
4b4:     file format pei-i386


Disassembly of section .text:

00411000 <.text>:
  411000:	cc                   	int3
  411001:	cc                   	int3
  411002:	cc                   	int3
  411003:	cc                   	int3
  411004:	cc                   	int3
  411005:	e9 21 63 00 00       	jmp    0x41732b
  41100a:	e9 b1 4f 00 00       	jmp    0x415fc0
  41100f:	e9 cc 33 00 00       	jmp    0x4143e0
  411014:	e9 90 63 00 00       	jmp    0x4173a9
  411019:	e9 ef 62 00 00       	jmp    0x41730d
  41101e:	e9 dd 63 00 00       	jmp    0x417400
  411023:	e9 f8 33 00 00       	jmp    0x414420
  411028:	e9 3a 63 00 00       	jmp    0x417367
  41102d:	e9 8e 3c 00 00       	jmp    0x414cc0
  411032:	e9 a9 40 00 00       	jmp    0x4150e0
  411037:	e9 d4 4b 00 00       	jmp    0x415c10
  41103c:	e9 3f 14 00 00       	jmp    0x412480
  411041:	e9 1a 4b 00 00       	jmp    0x415b60
  411046:	e9 40 63 00 00       	jmp    0x41738b
  41104b:	e9 c0 1e 00 00       	jmp    0x412f10
  411050:	e9 ab 1b 00 00       	jmp    0x412c00
  411055:	e9 bc 2b 00 00       	jmp    0x413c16
  41105a:	e9 b1 3d 00 00       	jmp    0x414e10
  41105f:	e9 dc 2b 00 00       	jmp    0x413c40
  411064:	e9 97 4b 00 00       	jmp    0x415c00
  411069:	e9 c2 52 00 00       	jmp    0x416330
  41106e:	e9 7d 4e 00 00       	jmp    0x415ef0
  411073:	e9 b6 2b 00 00       	jmp    0x413c2e
  411078:	e9 b3 18 00 00       	jmp    0x412930
  41107d:	e9 9d 62 00 00       	jmp    0x41731f
  411082:	e9 b9 1c 00 00       	jmp    0x412d40
  411087:	e9 14 44 00 00       	jmp    0x4154a0
  41108c:	e9 2e 62 00 00       	jmp    0x4172bf
  411091:	e9 8a 63 00 00       	jmp    0x417420
  411096:	e9 95 50 00 00       	jmp    0x416130
  41109b:	e9 94 2b 00 00       	jmp    0x413c34
  4110a0:	e9 02 62 00 00       	jmp    0x4172a7
  4110a5:	e9 66 58 00 00       	jmp    0x416910
  4110aa:	e9 e6 61 00 00       	jmp    0x417295
  4110af:	e9 ec 3f 00 00       	jmp    0x4150a0
  4110b4:	e9 4e 62 00 00       	jmp    0x417307
  4110b9:	e9 12 4a 00 00       	jmp    0x415ad0
  4110be:	e9 38 62 00 00       	jmp    0x4172fb
  4110c3:	e9 f8 4f 00 00       	jmp    0x4160c0
  4110c8:	e9 46 62 00 00       	jmp    0x417313
  4110cd:	e9 2e 63 00 00       	jmp    0x417400
  4110d2:	e9 51 2b 00 00       	jmp    0x413c28
  4110d7:	e9 e4 32 00 00       	jmp    0x4143c0
  4110dc:	e9 56 62 00 00       	jmp    0x417337
  4110e1:	e9 8a 42 00 00       	jmp    0x415370
  4110e6:	e9 37 2b 00 00       	jmp    0x413c22
  4110eb:	e9 c0 4c 00 00       	jmp    0x415db0
  4110f0:	e9 1b 08 00 00       	jmp    0x411910
  4110f5:	e9 2f 61 00 00       	jmp    0x417229
  4110fa:	e9 01 2e 00 00       	jmp    0x413f00
  4110ff:	e9 b1 62 00 00       	jmp    0x4173b5
  411104:	e9 3a 62 00 00       	jmp    0x417343
  411109:	e9 92 49 00 00       	jmp    0x415aa0
  41110e:	e9 64 61 00 00       	jmp    0x417277
  411113:	e9 58 1e 00 00       	jmp    0x412f70
  411118:	e9 e3 34 00 00       	jmp    0x414600
  41111d:	e9 63 62 00 00       	jmp    0x417385
  411122:	e9 9a 62 00 00       	jmp    0x4173c1
  411127:	e9 84 1a 00 00       	jmp    0x412bb0
  41112c:	e9 52 61 00 00       	jmp    0x417283
  411131:	e9 5a 20 00 00       	jmp    0x413190
  411136:	e9 c5 42 00 00       	jmp    0x415400
  41113b:	e9 30 49 00 00       	jmp    0x415a70
  411140:	e9 92 61 00 00       	jmp    0x4172d7
  411145:	e9 16 43 00 00       	jmp    0x415460
  41114a:	e9 31 1b 00 00       	jmp    0x412c80
  41114f:	e9 ff 60 00 00       	jmp    0x417253
  411154:	e9 c0 61 00 00       	jmp    0x417319
  411159:	e9 92 62 00 00       	jmp    0x4173f0
  41115e:	e9 1a 61 00 00       	jmp    0x41727d
  411163:	e9 35 62 00 00       	jmp    0x41739d
  411168:	e9 d9 2a 00 00       	jmp    0x413c46
  41116d:	e9 1e 49 00 00       	jmp    0x415a90
  411172:	e9 ee 60 00 00       	jmp    0x417265
  411177:	e9 b4 44 00 00       	jmp    0x415630
  41117c:	e9 0f 18 00 00       	jmp    0x412990
  411181:	e9 7a 62 00 00       	jmp    0x417400
  411186:	e9 d5 31 00 00       	jmp    0x414360
  41118b:	e9 90 43 00 00       	jmp    0x415520
  411190:	e9 54 61 00 00       	jmp    0x4172e9
  411195:	e9 96 41 00 00       	jmp    0x415330
  41119a:	e9 dd 2a 00 00       	jmp    0x413c7c
  41119f:	e9 0c 49 00 00       	jmp    0x415ab0
  4111a4:	e9 27 2d 00 00       	jmp    0x413ed0
  4111a9:	e9 87 60 00 00       	jmp    0x417235
  4111ae:	e9 0d 3f 00 00       	jmp    0x4150c0
  4111b3:	e9 98 3f 00 00       	jmp    0x415150
  4111b8:	e9 8a 60 00 00       	jmp    0x417247
  4111bd:	e9 2e 2d 00 00       	jmp    0x413ef0
  4111c2:	e9 3a 61 00 00       	jmp    0x417301
  4111c7:	e9 b4 49 00 00       	jmp    0x415b80
  4111cc:	e9 a5 2a 00 00       	jmp    0x413c76
  4111d1:	e9 ca 0c 00 00       	jmp    0x411ea0
  4111d6:	e9 d5 45 00 00       	jmp    0x4157b0
  4111db:	e9 69 61 00 00       	jmp    0x417349
  4111e0:	e9 3b 13 00 00       	jmp    0x412520
  4111e5:	e9 95 61 00 00       	jmp    0x41737f
  4111ea:	e9 f1 45 00 00       	jmp    0x4157e0
  4111ef:	e9 ec 32 00 00       	jmp    0x4144e0
  4111f4:	e9 23 2a 00 00       	jmp    0x413c1c
  4111f9:	e9 57 61 00 00       	jmp    0x417355
  4111fe:	e9 ed 61 00 00       	jmp    0x4173f0
  411203:	e9 e8 3e 00 00       	jmp    0x4150f0
  411208:	e9 f3 4d 00 00       	jmp    0x416000
  41120d:	e9 b5 61 00 00       	jmp    0x4173c7
  411212:	e9 d9 5f 00 00       	jmp    0x4171f0
  411217:	e9 d4 5b 00 00       	jmp    0x416df0
  41121c:	e9 ef 61 00 00       	jmp    0x417410
  411221:	e9 0a 3d 00 00       	jmp    0x414f30
  411226:	e9 90 61 00 00       	jmp    0x4173bb
  41122b:	e9 0d 61 00 00       	jmp    0x41733d
  411230:	e9 29 2a 00 00       	jmp    0x413c5e
  411235:	e9 06 16 00 00       	jmp    0x412840
  41123a:	e9 d1 39 00 00       	jmp    0x414c10
  41123f:	e9 35 61 00 00       	jmp    0x417379
  411244:	e9 9a 60 00 00       	jmp    0x4172e3
  411249:	e9 d2 49 00 00       	jmp    0x415c20
  41124e:	e9 8d 24 00 00       	jmp    0x4136e0
  411253:	e9 f5 5f 00 00       	jmp    0x41724d
  411258:	e9 04 61 00 00       	jmp    0x417361
  41125d:	e9 7e 2b 00 00       	jmp    0x413de0
  411262:	e9 69 27 00 00       	jmp    0x4139d0
  411267:	e9 cf 5f 00 00       	jmp    0x41723b
  41126c:	e9 af 61 00 00       	jmp    0x417420
  411271:	e9 8a 46 00 00       	jmp    0x415900
  411276:	e9 f8 60 00 00       	jmp    0x417373
  41127b:	e9 80 4e 00 00       	jmp    0x416100
  411280:	e9 28 60 00 00       	jmp    0x4172ad
  411285:	e9 56 13 00 00       	jmp    0x4125e0
  41128a:	e9 b1 30 00 00       	jmp    0x414340
  41128f:	e9 3c 49 00 00       	jmp    0x415bd0
  411294:	e9 97 45 00 00       	jmp    0x415830
  411299:	e9 62 4b 00 00       	jmp    0x415e00
  41129e:	e9 0d 46 00 00       	jmp    0x4158b0
  4112a3:	e9 48 4c 00 00       	jmp    0x415ef0
  4112a8:	e9 24 60 00 00       	jmp    0x4172d1
  4112ad:	e9 58 29 00 00       	jmp    0x413c0a
  4112b2:	e9 7a 60 00 00       	jmp    0x417331
  4112b7:	e9 e4 40 00 00       	jmp    0x4153a0
  4112bc:	e9 9a 60 00 00       	jmp    0x41735b
  4112c1:	e9 6a 61 00 00       	jmp    0x417430
  4112c6:	e9 45 2c 00 00       	jmp    0x413f10
  4112cb:	e9 80 2b 00 00       	jmp    0x413e50
  4112d0:	e9 0b 61 00 00       	jmp    0x4173e0
  4112d5:	e9 03 60 00 00       	jmp    0x4172dd
  4112da:	e9 8c 5f 00 00       	jmp    0x41726b
  4112df:	e9 6e 29 00 00       	jmp    0x413c52
  4112e4:	e9 27 61 00 00       	jmp    0x417410
  4112e9:	e9 42 17 00 00       	jmp    0x412a30
  4112ee:	e9 47 29 00 00       	jmp    0x413c3a
  4112f3:	e9 d8 60 00 00       	jmp    0x4173d0
  4112f8:	e9 13 29 00 00       	jmp    0x413c10
  4112fd:	e9 ee 47 00 00       	jmp    0x415af0
  411302:	e9 d9 40 00 00       	jmp    0x4153e0
  411307:	e9 d4 60 00 00       	jmp    0x4173e0
  41130c:	e9 7f 4d 00 00       	jmp    0x416090
  411311:	e9 aa 47 00 00       	jmp    0x415ac0
  411316:	e9 f5 4a 00 00       	jmp    0x415e10
  41131b:	e9 b0 60 00 00       	jmp    0x4173d0
  411320:	e9 ab 60 00 00       	jmp    0x4173d0
  411325:	e9 56 4f 00 00       	jmp    0x416280
  41132a:	e9 61 29 00 00       	jmp    0x413c90
  41132f:	e9 4c 47 00 00       	jmp    0x415a80
  411334:	e9 1f 29 00 00       	jmp    0x413c58
  411339:	e9 a2 4d 00 00       	jmp    0x4160e0
  41133e:	e9 58 5f 00 00       	jmp    0x41729b
  411343:	e9 58 4c 00 00       	jmp    0x415fa0
  411348:	e9 78 5f 00 00       	jmp    0x4172c5
  41134d:	e9 6e 41 00 00       	jmp    0x4154c0
  411352:	e9 99 4e 00 00       	jmp    0x4161f0
  411357:	e9 e4 4d 00 00       	jmp    0x416140
  41135c:	e9 42 60 00 00       	jmp    0x4173a3
  411361:	e9 fe 28 00 00       	jmp    0x413c64
  411366:	e9 c5 4e 00 00       	jmp    0x416230
  41136b:	e9 fa 28 00 00       	jmp    0x413c6a
  411370:	e9 14 5f 00 00       	jmp    0x417289
  411375:	e9 66 60 00 00       	jmp    0x4173e0
  41137a:	e9 d1 38 00 00       	jmp    0x414c50
  41137f:	e9 dc 26 00 00       	jmp    0x413a60
  411384:	e9 77 30 00 00       	jmp    0x414400
  411389:	e9 42 3f 00 00       	jmp    0x4152d0
  41138e:	e9 90 5e 00 00       	jmp    0x417223
  411393:	e9 78 47 00 00       	jmp    0x415b10
  411398:	e9 b3 2b 00 00       	jmp    0x413f50
  41139d:	e9 7e 4a 00 00       	jmp    0x415e20
  4113a2:	e9 59 38 00 00       	jmp    0x414c00
  4113a7:	e9 a3 5f 00 00       	jmp    0x41734f
  4113ac:	e9 6f 37 00 00       	jmp    0x414b20
  4113b1:	e9 6f 5f 00 00       	jmp    0x417325
  4113b6:	e9 35 60 00 00       	jmp    0x4173f0
  4113bb:	e9 40 4b 00 00       	jmp    0x415f00
  4113c0:	e9 db 4c 00 00       	jmp    0x4160a0
  4113c5:	e9 a3 5f 00 00       	jmp    0x41736d
  4113ca:	e9 b1 2a 00 00       	jmp    0x413e80
  4113cf:	e9 4c 47 00 00       	jmp    0x415b20
  4113d4:	e9 f7 4a 00 00       	jmp    0x415ed0
  4113d9:	e9 42 3d 00 00       	jmp    0x415120
  4113de:	e9 ed 28 00 00       	jmp    0x413cd0
  4113e3:	e9 af 5f 00 00       	jmp    0x417397
  4113e8:	e9 08 5f 00 00       	jmp    0x4172f5
  4113ed:	e9 7e 32 00 00       	jmp    0x414670
  4113f2:	e9 7a 5e 00 00       	jmp    0x417271
  4113f7:	e9 54 13 00 00       	jmp    0x412750
  4113fc:	e9 8f 4e 00 00       	jmp    0x416290
  411401:	e9 6a 47 00 00       	jmp    0x415b70
  411406:	e9 e4 5e 00 00       	jmp    0x4172ef
  41140b:	e9 a3 5e 00 00       	jmp    0x4172b3
  411410:	e9 8c 5e 00 00       	jmp    0x4172a1
  411415:	e9 15 5e 00 00       	jmp    0x41722f
  41141a:	e9 01 3a 00 00       	jmp    0x414e20
  41141f:	e9 3b 5e 00 00       	jmp    0x41725f
  411424:	e9 18 5e 00 00       	jmp    0x417241
  411429:	e9 ef 5d 00 00       	jmp    0x41721d
  41142e:	e9 8d 3e 00 00       	jmp    0x4152c0
  411433:	e9 57 5e 00 00       	jmp    0x41728f
  411438:	e9 73 3c 00 00       	jmp    0x4150b0
  41143d:	e9 0e 26 00 00       	jmp    0x413a50
  411442:	e9 09 47 00 00       	jmp    0x415b50
  411447:	e9 94 15 00 00       	jmp    0x4129e0
  41144c:	e9 40 5f 00 00       	jmp    0x417391
  411451:	e9 da 5f 00 00       	jmp    0x417430
  411456:	e9 5e 5e 00 00       	jmp    0x4172b9
  41145b:	e9 70 45 00 00       	jmp    0x4159d0
  411460:	e9 ab 5f 00 00       	jmp    0x417410
  411465:	e9 9a 27 00 00       	jmp    0x413c04
  41146a:	e9 dd 27 00 00       	jmp    0x413c4c
  41146f:	e9 57 5e 00 00       	jmp    0x4172cb
  411474:	e9 07 38 00 00       	jmp    0x414c80
  411479:	e9 db 5d 00 00       	jmp    0x417259
  41147e:	e9 ed 27 00 00       	jmp    0x413c70
  411483:	e9 27 5f 00 00       	jmp    0x4173af
  411488:	cc                   	int3
  411489:	cc                   	int3
  41148a:	cc                   	int3
  41148b:	cc                   	int3
  41148c:	cc                   	int3
  41148d:	cc                   	int3
  41148e:	cc                   	int3
  41148f:	cc                   	int3
  411490:	cc                   	int3
  411491:	cc                   	int3
  411492:	cc                   	int3
  411493:	cc                   	int3
  411494:	cc                   	int3
  411495:	cc                   	int3
  411496:	cc                   	int3
  411497:	cc                   	int3
  411498:	cc                   	int3
  411499:	cc                   	int3
  41149a:	cc                   	int3
  41149b:	cc                   	int3
  41149c:	cc                   	int3
  41149d:	cc                   	int3
  41149e:	cc                   	int3
  41149f:	cc                   	int3
  4114a0:	cc                   	int3
  4114a1:	cc                   	int3
  4114a2:	cc                   	int3
  4114a3:	cc                   	int3
  4114a4:	cc                   	int3
  4114a5:	cc                   	int3
  4114a6:	cc                   	int3
  4114a7:	cc                   	int3
  4114a8:	cc                   	int3
  4114a9:	cc                   	int3
  4114aa:	cc                   	int3
  4114ab:	cc                   	int3
  4114ac:	cc                   	int3
  4114ad:	cc                   	int3
  4114ae:	cc                   	int3
  4114af:	cc                   	int3
  4114b0:	cc                   	int3
  4114b1:	cc                   	int3
  4114b2:	cc                   	int3
  4114b3:	cc                   	int3
  4114b4:	cc                   	int3
  4114b5:	cc                   	int3
  4114b6:	cc                   	int3
  4114b7:	cc                   	int3
  4114b8:	cc                   	int3
  4114b9:	cc                   	int3
  4114ba:	cc                   	int3
  4114bb:	cc                   	int3
  4114bc:	cc                   	int3
  4114bd:	cc                   	int3
  4114be:	cc                   	int3
  4114bf:	cc                   	int3
  4114c0:	cc                   	int3
  4114c1:	cc                   	int3
  4114c2:	cc                   	int3
  4114c3:	cc                   	int3
  4114c4:	cc                   	int3
  4114c5:	cc                   	int3
  4114c6:	cc                   	int3
  4114c7:	cc                   	int3
  4114c8:	cc                   	int3
  4114c9:	cc                   	int3
  4114ca:	cc                   	int3
  4114cb:	cc                   	int3
  4114cc:	cc                   	int3
  4114cd:	cc                   	int3
  4114ce:	cc                   	int3
  4114cf:	cc                   	int3
  4114d0:	cc                   	int3
  4114d1:	cc                   	int3
  4114d2:	cc                   	int3
  4114d3:	cc                   	int3
  4114d4:	cc                   	int3
  4114d5:	cc                   	int3
  4114d6:	cc                   	int3
  4114d7:	cc                   	int3
  4114d8:	cc                   	int3
  4114d9:	cc                   	int3
  4114da:	cc                   	int3
  4114db:	cc                   	int3
  4114dc:	cc                   	int3
  4114dd:	cc                   	int3
  4114de:	cc                   	int3
  4114df:	cc                   	int3
  4114e0:	cc                   	int3
  4114e1:	cc                   	int3
  4114e2:	cc                   	int3
  4114e3:	cc                   	int3
  4114e4:	cc                   	int3
  4114e5:	cc                   	int3
  4114e6:	cc                   	int3
  4114e7:	cc                   	int3
  4114e8:	cc                   	int3
  4114e9:	cc                   	int3
  4114ea:	cc                   	int3
  4114eb:	cc                   	int3
  4114ec:	cc                   	int3
  4114ed:	cc                   	int3
  4114ee:	cc                   	int3
  4114ef:	cc                   	int3
  4114f0:	cc                   	int3
  4114f1:	cc                   	int3
  4114f2:	cc                   	int3
  4114f3:	cc                   	int3
  4114f4:	cc                   	int3
  4114f5:	cc                   	int3
  4114f6:	cc                   	int3
  4114f7:	cc                   	int3
  4114f8:	cc                   	int3
  4114f9:	cc                   	int3
  4114fa:	cc                   	int3
  4114fb:	cc                   	int3
  4114fc:	cc                   	int3
  4114fd:	cc                   	int3
  4114fe:	cc                   	int3
  4114ff:	cc                   	int3
  411500:	cc                   	int3
  411501:	cc                   	int3
  411502:	cc                   	int3
  411503:	cc                   	int3
  411504:	cc                   	int3
  411505:	cc                   	int3
  411506:	cc                   	int3
  411507:	cc                   	int3
  411508:	cc                   	int3
  411509:	cc                   	int3
  41150a:	cc                   	int3
  41150b:	cc                   	int3
  41150c:	cc                   	int3
  41150d:	cc                   	int3
  41150e:	cc                   	int3
  41150f:	cc                   	int3
  411510:	cc                   	int3
  411511:	cc                   	int3
  411512:	cc                   	int3
  411513:	cc                   	int3
  411514:	cc                   	int3
  411515:	cc                   	int3
  411516:	cc                   	int3
  411517:	cc                   	int3
  411518:	cc                   	int3
  411519:	cc                   	int3
  41151a:	cc                   	int3
  41151b:	cc                   	int3
  41151c:	cc                   	int3
  41151d:	cc                   	int3
  41151e:	cc                   	int3
  41151f:	cc                   	int3
  411520:	cc                   	int3
  411521:	cc                   	int3
  411522:	cc                   	int3
  411523:	cc                   	int3
  411524:	cc                   	int3
  411525:	cc                   	int3
  411526:	cc                   	int3
  411527:	cc                   	int3
  411528:	cc                   	int3
  411529:	cc                   	int3
  41152a:	cc                   	int3
  41152b:	cc                   	int3
  41152c:	cc                   	int3
  41152d:	cc                   	int3
  41152e:	cc                   	int3
  41152f:	cc                   	int3
  411530:	cc                   	int3
  411531:	cc                   	int3
  411532:	cc                   	int3
  411533:	cc                   	int3
  411534:	cc                   	int3
  411535:	cc                   	int3
  411536:	cc                   	int3
  411537:	cc                   	int3
  411538:	cc                   	int3
  411539:	cc                   	int3
  41153a:	cc                   	int3
  41153b:	cc                   	int3
  41153c:	cc                   	int3
  41153d:	cc                   	int3
  41153e:	cc                   	int3
  41153f:	cc                   	int3
  411540:	cc                   	int3
  411541:	cc                   	int3
  411542:	cc                   	int3
  411543:	cc                   	int3
  411544:	cc                   	int3
  411545:	cc                   	int3
  411546:	cc                   	int3
  411547:	cc                   	int3
  411548:	cc                   	int3
  411549:	cc                   	int3
  41154a:	cc                   	int3
  41154b:	cc                   	int3
  41154c:	cc                   	int3
  41154d:	cc                   	int3
  41154e:	cc                   	int3
  41154f:	cc                   	int3
  411550:	cc                   	int3
  411551:	cc                   	int3
  411552:	cc                   	int3
  411553:	cc                   	int3
  411554:	cc                   	int3
  411555:	cc                   	int3
  411556:	cc                   	int3
  411557:	cc                   	int3
  411558:	cc                   	int3
  411559:	cc                   	int3
  41155a:	cc                   	int3
  41155b:	cc                   	int3
  41155c:	cc                   	int3
  41155d:	cc                   	int3
  41155e:	cc                   	int3
  41155f:	cc                   	int3
  411560:	cc                   	int3
  411561:	cc                   	int3
  411562:	cc                   	int3
  411563:	cc                   	int3
  411564:	cc                   	int3
  411565:	cc                   	int3
  411566:	cc                   	int3
  411567:	cc                   	int3
  411568:	cc                   	int3
  411569:	cc                   	int3
  41156a:	cc                   	int3
  41156b:	cc                   	int3
  41156c:	cc                   	int3
  41156d:	cc                   	int3
  41156e:	cc                   	int3
  41156f:	cc                   	int3
  411570:	cc                   	int3
  411571:	cc                   	int3
  411572:	cc                   	int3
  411573:	cc                   	int3
  411574:	cc                   	int3
  411575:	cc                   	int3
  411576:	cc                   	int3
  411577:	cc                   	int3
  411578:	cc                   	int3
  411579:	cc                   	int3
  41157a:	cc                   	int3
  41157b:	cc                   	int3
  41157c:	cc                   	int3
  41157d:	cc                   	int3
  41157e:	cc                   	int3
  41157f:	cc                   	int3
  411580:	cc                   	int3
  411581:	cc                   	int3
  411582:	cc                   	int3
  411583:	cc                   	int3
  411584:	cc                   	int3
  411585:	cc                   	int3
  411586:	cc                   	int3
  411587:	cc                   	int3
  411588:	cc                   	int3
  411589:	cc                   	int3
  41158a:	cc                   	int3
  41158b:	cc                   	int3
  41158c:	cc                   	int3
  41158d:	cc                   	int3
  41158e:	cc                   	int3
  41158f:	cc                   	int3
  411590:	cc                   	int3
  411591:	cc                   	int3
  411592:	cc                   	int3
  411593:	cc                   	int3
  411594:	cc                   	int3
  411595:	cc                   	int3
  411596:	cc                   	int3
  411597:	cc                   	int3
  411598:	cc                   	int3
  411599:	cc                   	int3
  41159a:	cc                   	int3
  41159b:	cc                   	int3
  41159c:	cc                   	int3
  41159d:	cc                   	int3
  41159e:	cc                   	int3
  41159f:	cc                   	int3
  4115a0:	cc                   	int3
  4115a1:	cc                   	int3
  4115a2:	cc                   	int3
  4115a3:	cc                   	int3
  4115a4:	cc                   	int3
  4115a5:	cc                   	int3
  4115a6:	cc                   	int3
  4115a7:	cc                   	int3
  4115a8:	cc                   	int3
  4115a9:	cc                   	int3
  4115aa:	cc                   	int3
  4115ab:	cc                   	int3
  4115ac:	cc                   	int3
  4115ad:	cc                   	int3
  4115ae:	cc                   	int3
  4115af:	cc                   	int3
  4115b0:	cc                   	int3
  4115b1:	cc                   	int3
  4115b2:	cc                   	int3
  4115b3:	cc                   	int3
  4115b4:	cc                   	int3
  4115b5:	cc                   	int3
  4115b6:	cc                   	int3
  4115b7:	cc                   	int3
  4115b8:	cc                   	int3
  4115b9:	cc                   	int3
  4115ba:	cc                   	int3
  4115bb:	cc                   	int3
  4115bc:	cc                   	int3
  4115bd:	cc                   	int3
  4115be:	cc                   	int3
  4115bf:	cc                   	int3
  4115c0:	cc                   	int3
  4115c1:	cc                   	int3
  4115c2:	cc                   	int3
  4115c3:	cc                   	int3
  4115c4:	cc                   	int3
  4115c5:	cc                   	int3
  4115c6:	cc                   	int3
  4115c7:	cc                   	int3
  4115c8:	cc                   	int3
  4115c9:	cc                   	int3
  4115ca:	cc                   	int3
  4115cb:	cc                   	int3
  4115cc:	cc                   	int3
  4115cd:	cc                   	int3
  4115ce:	cc                   	int3
  4115cf:	cc                   	int3
  4115d0:	cc                   	int3
  4115d1:	cc                   	int3
  4115d2:	cc                   	int3
  4115d3:	cc                   	int3
  4115d4:	cc                   	int3
  4115d5:	cc                   	int3
  4115d6:	cc                   	int3
  4115d7:	cc                   	int3
  4115d8:	cc                   	int3
  4115d9:	cc                   	int3
  4115da:	cc                   	int3
  4115db:	cc                   	int3
  4115dc:	cc                   	int3
  4115dd:	cc                   	int3
  4115de:	cc                   	int3
  4115df:	cc                   	int3
  4115e0:	cc                   	int3
  4115e1:	cc                   	int3
  4115e2:	cc                   	int3
  4115e3:	cc                   	int3
  4115e4:	cc                   	int3
  4115e5:	cc                   	int3
  4115e6:	cc                   	int3
  4115e7:	cc                   	int3
  4115e8:	cc                   	int3
  4115e9:	cc                   	int3
  4115ea:	cc                   	int3
  4115eb:	cc                   	int3
  4115ec:	cc                   	int3
  4115ed:	cc                   	int3
  4115ee:	cc                   	int3
  4115ef:	cc                   	int3
  4115f0:	cc                   	int3
  4115f1:	cc                   	int3
  4115f2:	cc                   	int3
  4115f3:	cc                   	int3
  4115f4:	cc                   	int3
  4115f5:	cc                   	int3
  4115f6:	cc                   	int3
  4115f7:	cc                   	int3
  4115f8:	cc                   	int3
  4115f9:	cc                   	int3
  4115fa:	cc                   	int3
  4115fb:	cc                   	int3
  4115fc:	cc                   	int3
  4115fd:	cc                   	int3
  4115fe:	cc                   	int3
  4115ff:	cc                   	int3
  411600:	cc                   	int3
  411601:	cc                   	int3
  411602:	cc                   	int3
  411603:	cc                   	int3
  411604:	cc                   	int3
  411605:	cc                   	int3
  411606:	cc                   	int3
  411607:	cc                   	int3
  411608:	cc                   	int3
  411609:	cc                   	int3
  41160a:	cc                   	int3
  41160b:	cc                   	int3
  41160c:	cc                   	int3
  41160d:	cc                   	int3
  41160e:	cc                   	int3
  41160f:	cc                   	int3
  411610:	cc                   	int3
  411611:	cc                   	int3
  411612:	cc                   	int3
  411613:	cc                   	int3
  411614:	cc                   	int3
  411615:	cc                   	int3
  411616:	cc                   	int3
  411617:	cc                   	int3
  411618:	cc                   	int3
  411619:	cc                   	int3
  41161a:	cc                   	int3
  41161b:	cc                   	int3
  41161c:	cc                   	int3
  41161d:	cc                   	int3
  41161e:	cc                   	int3
  41161f:	cc                   	int3
  411620:	cc                   	int3
  411621:	cc                   	int3
  411622:	cc                   	int3
  411623:	cc                   	int3
  411624:	cc                   	int3
  411625:	cc                   	int3
  411626:	cc                   	int3
  411627:	cc                   	int3
  411628:	cc                   	int3
  411629:	cc                   	int3
  41162a:	cc                   	int3
  41162b:	cc                   	int3
  41162c:	cc                   	int3
  41162d:	cc                   	int3
  41162e:	cc                   	int3
  41162f:	cc                   	int3
  411630:	cc                   	int3
  411631:	cc                   	int3
  411632:	cc                   	int3
  411633:	cc                   	int3
  411634:	cc                   	int3
  411635:	cc                   	int3
  411636:	cc                   	int3
  411637:	cc                   	int3
  411638:	cc                   	int3
  411639:	cc                   	int3
  41163a:	cc                   	int3
  41163b:	cc                   	int3
  41163c:	cc                   	int3
  41163d:	cc                   	int3
  41163e:	cc                   	int3
  41163f:	cc                   	int3
  411640:	cc                   	int3
  411641:	cc                   	int3
  411642:	cc                   	int3
  411643:	cc                   	int3
  411644:	cc                   	int3
  411645:	cc                   	int3
  411646:	cc                   	int3
  411647:	cc                   	int3
  411648:	cc                   	int3
  411649:	cc                   	int3
  41164a:	cc                   	int3
  41164b:	cc                   	int3
  41164c:	cc                   	int3
  41164d:	cc                   	int3
  41164e:	cc                   	int3
  41164f:	cc                   	int3
  411650:	cc                   	int3
  411651:	cc                   	int3
  411652:	cc                   	int3
  411653:	cc                   	int3
  411654:	cc                   	int3
  411655:	cc                   	int3
  411656:	cc                   	int3
  411657:	cc                   	int3
  411658:	cc                   	int3
  411659:	cc                   	int3
  41165a:	cc                   	int3
  41165b:	cc                   	int3
  41165c:	cc                   	int3
  41165d:	cc                   	int3
  41165e:	cc                   	int3
  41165f:	cc                   	int3
  411660:	cc                   	int3
  411661:	cc                   	int3
  411662:	cc                   	int3
  411663:	cc                   	int3
  411664:	cc                   	int3
  411665:	cc                   	int3
  411666:	cc                   	int3
  411667:	cc                   	int3
  411668:	cc                   	int3
  411669:	cc                   	int3
  41166a:	cc                   	int3
  41166b:	cc                   	int3
  41166c:	cc                   	int3
  41166d:	cc                   	int3
  41166e:	cc                   	int3
  41166f:	cc                   	int3
  411670:	cc                   	int3
  411671:	cc                   	int3
  411672:	cc                   	int3
  411673:	cc                   	int3
  411674:	cc                   	int3
  411675:	cc                   	int3
  411676:	cc                   	int3
  411677:	cc                   	int3
  411678:	cc                   	int3
  411679:	cc                   	int3
  41167a:	cc                   	int3
  41167b:	cc                   	int3
  41167c:	cc                   	int3
  41167d:	cc                   	int3
  41167e:	cc                   	int3
  41167f:	cc                   	int3
  411680:	cc                   	int3
  411681:	cc                   	int3
  411682:	cc                   	int3
  411683:	cc                   	int3
  411684:	cc                   	int3
  411685:	cc                   	int3
  411686:	cc                   	int3
  411687:	cc                   	int3
  411688:	cc                   	int3
  411689:	cc                   	int3
  41168a:	cc                   	int3
  41168b:	cc                   	int3
  41168c:	cc                   	int3
  41168d:	cc                   	int3
  41168e:	cc                   	int3
  41168f:	cc                   	int3
  411690:	cc                   	int3
  411691:	cc                   	int3
  411692:	cc                   	int3
  411693:	cc                   	int3
  411694:	cc                   	int3
  411695:	cc                   	int3
  411696:	cc                   	int3
  411697:	cc                   	int3
  411698:	cc                   	int3
  411699:	cc                   	int3
  41169a:	cc                   	int3
  41169b:	cc                   	int3
  41169c:	cc                   	int3
  41169d:	cc                   	int3
  41169e:	cc                   	int3
  41169f:	cc                   	int3
  4116a0:	cc                   	int3
  4116a1:	cc                   	int3
  4116a2:	cc                   	int3
  4116a3:	cc                   	int3
  4116a4:	cc                   	int3
  4116a5:	cc                   	int3
  4116a6:	cc                   	int3
  4116a7:	cc                   	int3
  4116a8:	cc                   	int3
  4116a9:	cc                   	int3
  4116aa:	cc                   	int3
  4116ab:	cc                   	int3
  4116ac:	cc                   	int3
  4116ad:	cc                   	int3
  4116ae:	cc                   	int3
  4116af:	cc                   	int3
  4116b0:	cc                   	int3
  4116b1:	cc                   	int3
  4116b2:	cc                   	int3
  4116b3:	cc                   	int3
  4116b4:	cc                   	int3
  4116b5:	cc                   	int3
  4116b6:	cc                   	int3
  4116b7:	cc                   	int3
  4116b8:	cc                   	int3
  4116b9:	cc                   	int3
  4116ba:	cc                   	int3
  4116bb:	cc                   	int3
  4116bc:	cc                   	int3
  4116bd:	cc                   	int3
  4116be:	cc                   	int3
  4116bf:	cc                   	int3
  4116c0:	cc                   	int3
  4116c1:	cc                   	int3
  4116c2:	cc                   	int3
  4116c3:	cc                   	int3
  4116c4:	cc                   	int3
  4116c5:	cc                   	int3
  4116c6:	cc                   	int3
  4116c7:	cc                   	int3
  4116c8:	cc                   	int3
  4116c9:	cc                   	int3
  4116ca:	cc                   	int3
  4116cb:	cc                   	int3
  4116cc:	cc                   	int3
  4116cd:	cc                   	int3
  4116ce:	cc                   	int3
  4116cf:	cc                   	int3
  4116d0:	cc                   	int3
  4116d1:	cc                   	int3
  4116d2:	cc                   	int3
  4116d3:	cc                   	int3
  4116d4:	cc                   	int3
  4116d5:	cc                   	int3
  4116d6:	cc                   	int3
  4116d7:	cc                   	int3
  4116d8:	cc                   	int3
  4116d9:	cc                   	int3
  4116da:	cc                   	int3
  4116db:	cc                   	int3
  4116dc:	cc                   	int3
  4116dd:	cc                   	int3
  4116de:	cc                   	int3
  4116df:	cc                   	int3
  4116e0:	cc                   	int3
  4116e1:	cc                   	int3
  4116e2:	cc                   	int3
  4116e3:	cc                   	int3
  4116e4:	cc                   	int3
  4116e5:	cc                   	int3
  4116e6:	cc                   	int3
  4116e7:	cc                   	int3
  4116e8:	cc                   	int3
  4116e9:	cc                   	int3
  4116ea:	cc                   	int3
  4116eb:	cc                   	int3
  4116ec:	cc                   	int3
  4116ed:	cc                   	int3
  4116ee:	cc                   	int3
  4116ef:	cc                   	int3
  4116f0:	cc                   	int3
  4116f1:	cc                   	int3
  4116f2:	cc                   	int3
  4116f3:	cc                   	int3
  4116f4:	cc                   	int3
  4116f5:	cc                   	int3
  4116f6:	cc                   	int3
  4116f7:	cc                   	int3
  4116f8:	cc                   	int3
  4116f9:	cc                   	int3
  4116fa:	cc                   	int3
  4116fb:	cc                   	int3
  4116fc:	cc                   	int3
  4116fd:	cc                   	int3
  4116fe:	cc                   	int3
  4116ff:	cc                   	int3
  411700:	cc                   	int3
  411701:	cc                   	int3
  411702:	cc                   	int3
  411703:	cc                   	int3
  411704:	cc                   	int3
  411705:	cc                   	int3
  411706:	cc                   	int3
  411707:	cc                   	int3
  411708:	cc                   	int3
  411709:	cc                   	int3
  41170a:	cc                   	int3
  41170b:	cc                   	int3
  41170c:	cc                   	int3
  41170d:	cc                   	int3
  41170e:	cc                   	int3
  41170f:	cc                   	int3
  411710:	cc                   	int3
  411711:	cc                   	int3
  411712:	cc                   	int3
  411713:	cc                   	int3
  411714:	cc                   	int3
  411715:	cc                   	int3
  411716:	cc                   	int3
  411717:	cc                   	int3
  411718:	cc                   	int3
  411719:	cc                   	int3
  41171a:	cc                   	int3
  41171b:	cc                   	int3
  41171c:	cc                   	int3
  41171d:	cc                   	int3
  41171e:	cc                   	int3
  41171f:	cc                   	int3
  411720:	cc                   	int3
  411721:	cc                   	int3
  411722:	cc                   	int3
  411723:	cc                   	int3
  411724:	cc                   	int3
  411725:	cc                   	int3
  411726:	cc                   	int3
  411727:	cc                   	int3
  411728:	cc                   	int3
  411729:	cc                   	int3
  41172a:	cc                   	int3
  41172b:	cc                   	int3
  41172c:	cc                   	int3
  41172d:	cc                   	int3
  41172e:	cc                   	int3
  41172f:	cc                   	int3
  411730:	cc                   	int3
  411731:	cc                   	int3
  411732:	cc                   	int3
  411733:	cc                   	int3
  411734:	cc                   	int3
  411735:	cc                   	int3
  411736:	cc                   	int3
  411737:	cc                   	int3
  411738:	cc                   	int3
  411739:	cc                   	int3
  41173a:	cc                   	int3
  41173b:	cc                   	int3
  41173c:	cc                   	int3
  41173d:	cc                   	int3
  41173e:	cc                   	int3
  41173f:	cc                   	int3
  411740:	cc                   	int3
  411741:	cc                   	int3
  411742:	cc                   	int3
  411743:	cc                   	int3
  411744:	cc                   	int3
  411745:	cc                   	int3
  411746:	cc                   	int3
  411747:	cc                   	int3
  411748:	cc                   	int3
  411749:	cc                   	int3
  41174a:	cc                   	int3
  41174b:	cc                   	int3
  41174c:	cc                   	int3
  41174d:	cc                   	int3
  41174e:	cc                   	int3
  41174f:	cc                   	int3
  411750:	cc                   	int3
  411751:	cc                   	int3
  411752:	cc                   	int3
  411753:	cc                   	int3
  411754:	cc                   	int3
  411755:	cc                   	int3
  411756:	cc                   	int3
  411757:	cc                   	int3
  411758:	cc                   	int3
  411759:	cc                   	int3
  41175a:	cc                   	int3
  41175b:	cc                   	int3
  41175c:	cc                   	int3
  41175d:	cc                   	int3
  41175e:	cc                   	int3
  41175f:	cc                   	int3
  411760:	cc                   	int3
  411761:	cc                   	int3
  411762:	cc                   	int3
  411763:	cc                   	int3
  411764:	cc                   	int3
  411765:	cc                   	int3
  411766:	cc                   	int3
  411767:	cc                   	int3
  411768:	cc                   	int3
  411769:	cc                   	int3
  41176a:	cc                   	int3
  41176b:	cc                   	int3
  41176c:	cc                   	int3
  41176d:	cc                   	int3
  41176e:	cc                   	int3
  41176f:	cc                   	int3
  411770:	cc                   	int3
  411771:	cc                   	int3
  411772:	cc                   	int3
  411773:	cc                   	int3
  411774:	cc                   	int3
  411775:	cc                   	int3
  411776:	cc                   	int3
  411777:	cc                   	int3
  411778:	cc                   	int3
  411779:	cc                   	int3
  41177a:	cc                   	int3
  41177b:	cc                   	int3
  41177c:	cc                   	int3
  41177d:	cc                   	int3
  41177e:	cc                   	int3
  41177f:	cc                   	int3
  411780:	cc                   	int3
  411781:	cc                   	int3
  411782:	cc                   	int3
  411783:	cc                   	int3
  411784:	cc                   	int3
  411785:	cc                   	int3
  411786:	cc                   	int3
  411787:	cc                   	int3
  411788:	cc                   	int3
  411789:	cc                   	int3
  41178a:	cc                   	int3
  41178b:	cc                   	int3
  41178c:	cc                   	int3
  41178d:	cc                   	int3
  41178e:	cc                   	int3
  41178f:	cc                   	int3
  411790:	cc                   	int3
  411791:	cc                   	int3
  411792:	cc                   	int3
  411793:	cc                   	int3
  411794:	cc                   	int3
  411795:	cc                   	int3
  411796:	cc                   	int3
  411797:	cc                   	int3
  411798:	cc                   	int3
  411799:	cc                   	int3
  41179a:	cc                   	int3
  41179b:	cc                   	int3
  41179c:	cc                   	int3
  41179d:	cc                   	int3
  41179e:	cc                   	int3
  41179f:	cc                   	int3
  4117a0:	cc                   	int3
  4117a1:	cc                   	int3
  4117a2:	cc                   	int3
  4117a3:	cc                   	int3
  4117a4:	cc                   	int3
  4117a5:	cc                   	int3
  4117a6:	cc                   	int3
  4117a7:	cc                   	int3
  4117a8:	cc                   	int3
  4117a9:	cc                   	int3
  4117aa:	cc                   	int3
  4117ab:	cc                   	int3
  4117ac:	cc                   	int3
  4117ad:	cc                   	int3
  4117ae:	cc                   	int3
  4117af:	cc                   	int3
  4117b0:	cc                   	int3
  4117b1:	cc                   	int3
  4117b2:	cc                   	int3
  4117b3:	cc                   	int3
  4117b4:	cc                   	int3
  4117b5:	cc                   	int3
  4117b6:	cc                   	int3
  4117b7:	cc                   	int3
  4117b8:	cc                   	int3
  4117b9:	cc                   	int3
  4117ba:	cc                   	int3
  4117bb:	cc                   	int3
  4117bc:	cc                   	int3
  4117bd:	cc                   	int3
  4117be:	cc                   	int3
  4117bf:	cc                   	int3
  4117c0:	cc                   	int3
  4117c1:	cc                   	int3
  4117c2:	cc                   	int3
  4117c3:	cc                   	int3
  4117c4:	cc                   	int3
  4117c5:	cc                   	int3
  4117c6:	cc                   	int3
  4117c7:	cc                   	int3
  4117c8:	cc                   	int3
  4117c9:	cc                   	int3
  4117ca:	cc                   	int3
  4117cb:	cc                   	int3
  4117cc:	cc                   	int3
  4117cd:	cc                   	int3
  4117ce:	cc                   	int3
  4117cf:	cc                   	int3
  4117d0:	cc                   	int3
  4117d1:	cc                   	int3
  4117d2:	cc                   	int3
  4117d3:	cc                   	int3
  4117d4:	cc                   	int3
  4117d5:	cc                   	int3
  4117d6:	cc                   	int3
  4117d7:	cc                   	int3
  4117d8:	cc                   	int3
  4117d9:	cc                   	int3
  4117da:	cc                   	int3
  4117db:	cc                   	int3
  4117dc:	cc                   	int3
  4117dd:	cc                   	int3
  4117de:	cc                   	int3
  4117df:	cc                   	int3
  4117e0:	cc                   	int3
  4117e1:	cc                   	int3
  4117e2:	cc                   	int3
  4117e3:	cc                   	int3
  4117e4:	cc                   	int3
  4117e5:	cc                   	int3
  4117e6:	cc                   	int3
  4117e7:	cc                   	int3
  4117e8:	cc                   	int3
  4117e9:	cc                   	int3
  4117ea:	cc                   	int3
  4117eb:	cc                   	int3
  4117ec:	cc                   	int3
  4117ed:	cc                   	int3
  4117ee:	cc                   	int3
  4117ef:	cc                   	int3
  4117f0:	cc                   	int3
  4117f1:	cc                   	int3
  4117f2:	cc                   	int3
  4117f3:	cc                   	int3
  4117f4:	cc                   	int3
  4117f5:	cc                   	int3
  4117f6:	cc                   	int3
  4117f7:	cc                   	int3
  4117f8:	cc                   	int3
  4117f9:	cc                   	int3
  4117fa:	cc                   	int3
  4117fb:	cc                   	int3
  4117fc:	cc                   	int3
  4117fd:	cc                   	int3
  4117fe:	cc                   	int3
  4117ff:	cc                   	int3
  411800:	cc                   	int3
  411801:	cc                   	int3
  411802:	cc                   	int3
  411803:	cc                   	int3
  411804:	cc                   	int3
  411805:	cc                   	int3
  411806:	cc                   	int3
  411807:	cc                   	int3
  411808:	cc                   	int3
  411809:	cc                   	int3
  41180a:	cc                   	int3
  41180b:	cc                   	int3
  41180c:	cc                   	int3
  41180d:	cc                   	int3
  41180e:	cc                   	int3
  41180f:	cc                   	int3
  411810:	cc                   	int3
  411811:	cc                   	int3
  411812:	cc                   	int3
  411813:	cc                   	int3
  411814:	cc                   	int3
  411815:	cc                   	int3
  411816:	cc                   	int3
  411817:	cc                   	int3
  411818:	cc                   	int3
  411819:	cc                   	int3
  41181a:	cc                   	int3
  41181b:	cc                   	int3
  41181c:	cc                   	int3
  41181d:	cc                   	int3
  41181e:	cc                   	int3
  41181f:	cc                   	int3
  411820:	cc                   	int3
  411821:	cc                   	int3
  411822:	cc                   	int3
  411823:	cc                   	int3
  411824:	cc                   	int3
  411825:	cc                   	int3
  411826:	cc                   	int3
  411827:	cc                   	int3
  411828:	cc                   	int3
  411829:	cc                   	int3
  41182a:	cc                   	int3
  41182b:	cc                   	int3
  41182c:	cc                   	int3
  41182d:	cc                   	int3
  41182e:	cc                   	int3
  41182f:	cc                   	int3
  411830:	cc                   	int3
  411831:	cc                   	int3
  411832:	cc                   	int3
  411833:	cc                   	int3
  411834:	cc                   	int3
  411835:	cc                   	int3
  411836:	cc                   	int3
  411837:	cc                   	int3
  411838:	cc                   	int3
  411839:	cc                   	int3
  41183a:	cc                   	int3
  41183b:	cc                   	int3
  41183c:	cc                   	int3
  41183d:	cc                   	int3
  41183e:	cc                   	int3
  41183f:	cc                   	int3
  411840:	cc                   	int3
  411841:	cc                   	int3
  411842:	cc                   	int3
  411843:	cc                   	int3
  411844:	cc                   	int3
  411845:	cc                   	int3
  411846:	cc                   	int3
  411847:	cc                   	int3
  411848:	cc                   	int3
  411849:	cc                   	int3
  41184a:	cc                   	int3
  41184b:	cc                   	int3
  41184c:	cc                   	int3
  41184d:	cc                   	int3
  41184e:	cc                   	int3
  41184f:	cc                   	int3
  411850:	cc                   	int3
  411851:	cc                   	int3
  411852:	cc                   	int3
  411853:	cc                   	int3
  411854:	cc                   	int3
  411855:	cc                   	int3
  411856:	cc                   	int3
  411857:	cc                   	int3
  411858:	cc                   	int3
  411859:	cc                   	int3
  41185a:	cc                   	int3
  41185b:	cc                   	int3
  41185c:	cc                   	int3
  41185d:	cc                   	int3
  41185e:	cc                   	int3
  41185f:	cc                   	int3
  411860:	cc                   	int3
  411861:	cc                   	int3
  411862:	cc                   	int3
  411863:	cc                   	int3
  411864:	cc                   	int3
  411865:	cc                   	int3
  411866:	cc                   	int3
  411867:	cc                   	int3
  411868:	cc                   	int3
  411869:	cc                   	int3
  41186a:	cc                   	int3
  41186b:	cc                   	int3
  41186c:	cc                   	int3
  41186d:	cc                   	int3
  41186e:	cc                   	int3
  41186f:	cc                   	int3
  411870:	cc                   	int3
  411871:	cc                   	int3
  411872:	cc                   	int3
  411873:	cc                   	int3
  411874:	cc                   	int3
  411875:	cc                   	int3
  411876:	cc                   	int3
  411877:	cc                   	int3
  411878:	cc                   	int3
  411879:	cc                   	int3
  41187a:	cc                   	int3
  41187b:	cc                   	int3
  41187c:	cc                   	int3
  41187d:	cc                   	int3
  41187e:	cc                   	int3
  41187f:	cc                   	int3
  411880:	cc                   	int3
  411881:	cc                   	int3
  411882:	cc                   	int3
  411883:	cc                   	int3
  411884:	cc                   	int3
  411885:	cc                   	int3
  411886:	cc                   	int3
  411887:	cc                   	int3
  411888:	cc                   	int3
  411889:	cc                   	int3
  41188a:	cc                   	int3
  41188b:	cc                   	int3
  41188c:	cc                   	int3
  41188d:	cc                   	int3
  41188e:	cc                   	int3
  41188f:	cc                   	int3
  411890:	cc                   	int3
  411891:	cc                   	int3
  411892:	cc                   	int3
  411893:	cc                   	int3
  411894:	cc                   	int3
  411895:	cc                   	int3
  411896:	cc                   	int3
  411897:	cc                   	int3
  411898:	cc                   	int3
  411899:	cc                   	int3
  41189a:	cc                   	int3
  41189b:	cc                   	int3
  41189c:	cc                   	int3
  41189d:	cc                   	int3
  41189e:	cc                   	int3
  41189f:	cc                   	int3
  4118a0:	cc                   	int3
  4118a1:	cc                   	int3
  4118a2:	cc                   	int3
  4118a3:	cc                   	int3
  4118a4:	cc                   	int3
  4118a5:	cc                   	int3
  4118a6:	cc                   	int3
  4118a7:	cc                   	int3
  4118a8:	cc                   	int3
  4118a9:	cc                   	int3
  4118aa:	cc                   	int3
  4118ab:	cc                   	int3
  4118ac:	cc                   	int3
  4118ad:	cc                   	int3
  4118ae:	cc                   	int3
  4118af:	cc                   	int3
  4118b0:	cc                   	int3
  4118b1:	cc                   	int3
  4118b2:	cc                   	int3
  4118b3:	cc                   	int3
  4118b4:	cc                   	int3
  4118b5:	cc                   	int3
  4118b6:	cc                   	int3
  4118b7:	cc                   	int3
  4118b8:	cc                   	int3
  4118b9:	cc                   	int3
  4118ba:	cc                   	int3
  4118bb:	cc                   	int3
  4118bc:	cc                   	int3
  4118bd:	cc                   	int3
  4118be:	cc                   	int3
  4118bf:	cc                   	int3
  4118c0:	cc                   	int3
  4118c1:	cc                   	int3
  4118c2:	cc                   	int3
  4118c3:	cc                   	int3
  4118c4:	cc                   	int3
  4118c5:	cc                   	int3
  4118c6:	cc                   	int3
  4118c7:	cc                   	int3
  4118c8:	cc                   	int3
  4118c9:	cc                   	int3
  4118ca:	cc                   	int3
  4118cb:	cc                   	int3
  4118cc:	cc                   	int3
  4118cd:	cc                   	int3
  4118ce:	cc                   	int3
  4118cf:	cc                   	int3
  4118d0:	cc                   	int3
  4118d1:	cc                   	int3
  4118d2:	cc                   	int3
  4118d3:	cc                   	int3
  4118d4:	cc                   	int3
  4118d5:	cc                   	int3
  4118d6:	cc                   	int3
  4118d7:	cc                   	int3
  4118d8:	cc                   	int3
  4118d9:	cc                   	int3
  4118da:	cc                   	int3
  4118db:	cc                   	int3
  4118dc:	cc                   	int3
  4118dd:	cc                   	int3
  4118de:	cc                   	int3
  4118df:	cc                   	int3
  4118e0:	cc                   	int3
  4118e1:	cc                   	int3
  4118e2:	cc                   	int3
  4118e3:	cc                   	int3
  4118e4:	cc                   	int3
  4118e5:	cc                   	int3
  4118e6:	cc                   	int3
  4118e7:	cc                   	int3
  4118e8:	cc                   	int3
  4118e9:	cc                   	int3
  4118ea:	cc                   	int3
  4118eb:	cc                   	int3
  4118ec:	cc                   	int3
  4118ed:	cc                   	int3
  4118ee:	cc                   	int3
  4118ef:	cc                   	int3
  4118f0:	cc                   	int3
  4118f1:	cc                   	int3
  4118f2:	cc                   	int3
  4118f3:	cc                   	int3
  4118f4:	cc                   	int3
  4118f5:	cc                   	int3
  4118f6:	cc                   	int3
  4118f7:	cc                   	int3
  4118f8:	cc                   	int3
  4118f9:	cc                   	int3
  4118fa:	cc                   	int3
  4118fb:	cc                   	int3
  4118fc:	cc                   	int3
  4118fd:	cc                   	int3
  4118fe:	cc                   	int3
  4118ff:	cc                   	int3
  411900:	cc                   	int3
  411901:	cc                   	int3
  411902:	cc                   	int3
  411903:	cc                   	int3
  411904:	cc                   	int3
  411905:	cc                   	int3
  411906:	cc                   	int3
  411907:	cc                   	int3
  411908:	cc                   	int3
  411909:	cc                   	int3
  41190a:	cc                   	int3
  41190b:	cc                   	int3
  41190c:	cc                   	int3
  41190d:	cc                   	int3
  41190e:	cc                   	int3
  41190f:	cc                   	int3
  411910:	55                   	push   %ebp
  411911:	8b ec                	mov    %esp,%ebp
  411913:	6a ff                	push   $0xffffffff
  411915:	68 1d 8a 41 00       	push   $0x418a1d
  41191a:	64 a1 00 00 00 00    	mov    %fs:0x0,%eax
  411920:	50                   	push   %eax
  411921:	51                   	push   %ecx
  411922:	81 ec 54 01 00 00    	sub    $0x154,%esp
  411928:	53                   	push   %ebx
  411929:	56                   	push   %esi
  41192a:	57                   	push   %edi
  41192b:	8d bd 5c ff ff ff    	lea    -0xa4(%ebp),%edi
  411931:	b9 25 00 00 00       	mov    $0x25,%ecx
  411936:	b8 cc cc cc cc       	mov    $0xcccccccc,%eax
  41193b:	f3 ab                	rep stos %eax,%es:(%edi)
  41193d:	a1 00 d0 41 00       	mov    0x41d000,%eax
  411942:	33 c5                	xor    %ebp,%eax
  411944:	89 45 ec             	mov    %eax,-0x14(%ebp)
  411947:	50                   	push   %eax
  411948:	8d 45 f4             	lea    -0xc(%ebp),%eax
  41194b:	64 a3 00 00 00 00    	mov    %eax,%fs:0x0
  411951:	89 65 f0             	mov    %esp,-0x10(%ebp)
  411954:	b9 64 00 42 00       	mov    $0x420064,%ecx
  411959:	e8 6c fa ff ff       	call   0x4113ca
  41195e:	c7 45 e4 00 00 00 00 	movl   $0x0,-0x1c(%ebp)
  411965:	8b 45 08             	mov    0x8(%ebp),%eax
  411968:	50                   	push   %eax
  411969:	8d 4d d4             	lea    -0x2c(%ebp),%ecx
  41196c:	e8 14 f9 ff ff       	call   0x411285
  411971:	c7 45 fc 00 00 00 00 	movl   $0x0,-0x4(%ebp)
  411978:	8d 4d d4             	lea    -0x2c(%ebp),%ecx
  41197b:	e8 f8 f6 ff ff       	call   0x411078
  411980:	0f b6 c0             	movzbl %al,%eax
  411983:	85 c0                	test   %eax,%eax
  411985:	0f 84 3a 03 00 00    	je     0x411cc5
  41198b:	8b 45 08             	mov    0x8(%ebp),%eax
  41198e:	8b 08                	mov    (%eax),%ecx
  411990:	8b 55 08             	mov    0x8(%ebp),%edx
  411993:	03 51 04             	add    0x4(%ecx),%edx
  411996:	8b f4                	mov    %esp,%esi
  411998:	8b ca                	mov    %edx,%ecx
  41199a:	ff 15 c8 e0 41 00    	call   *0x41e0c8
  4119a0:	3b f4                	cmp    %esp,%esi
  4119a2:	e8 24 f9 ff ff       	call   0x4112cb
  4119a7:	89 85 a4 fe ff ff    	mov    %eax,-0x15c(%ebp)
  4119ad:	89 95 a8 fe ff ff    	mov    %edx,-0x158(%ebp)
  4119b3:	83 bd a8 fe ff ff 00 	cmpl   $0x0,-0x158(%ebp)
  4119ba:	7f 18                	jg     0x4119d4
  4119bc:	7c 09                	jl     0x4119c7
  4119be:	83 bd a4 fe ff ff 01 	cmpl   $0x1,-0x15c(%ebp)
  4119c5:	77 0d                	ja     0x4119d4
  4119c7:	0f 57 c0             	xorps  %xmm0,%xmm0
  4119ca:	66 0f 13 85 9c fe ff 	movlpd %xmm0,-0x164(%ebp)
  4119d1:	ff 
  4119d2:	eb 2e                	jmp    0x411a02
  4119d4:	8b 45 08             	mov    0x8(%ebp),%eax
  4119d7:	8b 08                	mov    (%eax),%ecx
  4119d9:	8b 55 08             	mov    0x8(%ebp),%edx
  4119dc:	03 51 04             	add    0x4(%ecx),%edx
  4119df:	8b f4                	mov    %esp,%esi
  4119e1:	8b ca                	mov    %edx,%ecx
  4119e3:	ff 15 c8 e0 41 00    	call   *0x41e0c8
  4119e9:	3b f4                	cmp    %esp,%esi
  4119eb:	e8 db f8 ff ff       	call   0x4112cb
  4119f0:	83 e8 01             	sub    $0x1,%eax
  4119f3:	83 da 00             	sbb    $0x0,%edx
  4119f6:	89 85 9c fe ff ff    	mov    %eax,-0x164(%ebp)
  4119fc:	89 95 a0 fe ff ff    	mov    %edx,-0x160(%ebp)
  411a02:	8b 85 9c fe ff ff    	mov    -0x164(%ebp),%eax
  411a08:	8b 8d a0 fe ff ff    	mov    -0x160(%ebp),%ecx
  411a0e:	89 45 c4             	mov    %eax,-0x3c(%ebp)
  411a11:	89 4d c8             	mov    %ecx,-0x38(%ebp)
  411a14:	c6 45 fc 01          	movb   $0x1,-0x4(%ebp)
  411a18:	8b 45 08             	mov    0x8(%ebp),%eax
  411a1b:	8b 08                	mov    (%eax),%ecx
  411a1d:	8b 55 08             	mov    0x8(%ebp),%edx
  411a20:	03 51 04             	add    0x4(%ecx),%edx
  411a23:	8b f4                	mov    %esp,%esi
  411a25:	8b ca                	mov    %edx,%ecx
  411a27:	ff 15 c4 e0 41 00    	call   *0x41e0c4
  411a2d:	3b f4                	cmp    %esp,%esi
  411a2f:	e8 97 f8 ff ff       	call   0x4112cb
  411a34:	89 85 a8 fe ff ff    	mov    %eax,-0x158(%ebp)
  411a3a:	8b 85 a8 fe ff ff    	mov    -0x158(%ebp),%eax
  411a40:	25 c0 01 00 00       	and    $0x1c0,%eax
  411a45:	83 f8 40             	cmp    $0x40,%eax
  411a48:	0f 84 dd 00 00 00    	je     0x411b2b
  411a4e:	eb 12                	jmp    0x411a62
  411a50:	8b 45 c4             	mov    -0x3c(%ebp),%eax
  411a53:	83 e8 01             	sub    $0x1,%eax
  411a56:	8b 4d c8             	mov    -0x38(%ebp),%ecx
  411a59:	83 d9 00             	sbb    $0x0,%ecx
  411a5c:	89 45 c4             	mov    %eax,-0x3c(%ebp)
  411a5f:	89 4d c8             	mov    %ecx,-0x38(%ebp)
  411a62:	83 7d e4 00          	cmpl   $0x0,-0x1c(%ebp)
  411a66:	0f 85 bf 00 00 00    	jne    0x411b2b
  411a6c:	83 7d c8 00          	cmpl   $0x0,-0x38(%ebp)
  411a70:	0f 8c b5 00 00 00    	jl     0x411b2b
  411a76:	7f 0a                	jg     0x411a82
  411a78:	83 7d c4 00          	cmpl   $0x0,-0x3c(%ebp)
  411a7c:	0f 86 a9 00 00 00    	jbe    0x411b2b
  411a82:	8b 45 08             	mov    0x8(%ebp),%eax
  411a85:	8b 08                	mov    (%eax),%ecx
  411a87:	8b 55 08             	mov    0x8(%ebp),%edx
  411a8a:	03 51 04             	add    0x4(%ecx),%edx
  411a8d:	8b f4                	mov    %esp,%esi
  411a8f:	8b ca                	mov    %edx,%ecx
  411a91:	ff 15 e4 e0 41 00    	call   *0x41e0e4
  411a97:	3b f4                	cmp    %esp,%esi
  411a99:	e8 2d f8 ff ff       	call   0x4112cb
  411a9e:	88 85 ab fe ff ff    	mov    %al,-0x155(%ebp)
  411aa4:	8b 45 08             	mov    0x8(%ebp),%eax
  411aa7:	8b 08                	mov    (%eax),%ecx
  411aa9:	8b 55 08             	mov    0x8(%ebp),%edx
  411aac:	03 51 04             	add    0x4(%ecx),%edx
  411aaf:	8b f4                	mov    %esp,%esi
  411ab1:	8b ca                	mov    %edx,%ecx
  411ab3:	ff 15 e0 e0 41 00    	call   *0x41e0e0
  411ab9:	3b f4                	cmp    %esp,%esi
  411abb:	e8 0b f8 ff ff       	call   0x4112cb
  411ac0:	89 85 a4 fe ff ff    	mov    %eax,-0x15c(%ebp)
  411ac6:	8b f4                	mov    %esp,%esi
  411ac8:	0f b6 85 ab fe ff ff 	movzbl -0x155(%ebp),%eax
  411acf:	50                   	push   %eax
  411ad0:	8b 8d a4 fe ff ff    	mov    -0x15c(%ebp),%ecx
  411ad6:	ff 15 d0 e0 41 00    	call   *0x41e0d0
  411adc:	3b f4                	cmp    %esp,%esi
  411ade:	e8 e8 f7 ff ff       	call   0x4112cb
  411ae3:	89 85 a0 fe ff ff    	mov    %eax,-0x160(%ebp)
  411ae9:	8b 8d a0 fe ff ff    	mov    -0x160(%ebp),%ecx
  411aef:	89 8d f8 fe ff ff    	mov    %ecx,-0x108(%ebp)
  411af5:	e8 2d f6 ff ff       	call   0x411127
  411afa:	89 85 ec fe ff ff    	mov    %eax,-0x114(%ebp)
  411b00:	8d 95 f8 fe ff ff    	lea    -0x108(%ebp),%edx
  411b06:	52                   	push   %edx
  411b07:	8d 85 ec fe ff ff    	lea    -0x114(%ebp),%eax
  411b0d:	50                   	push   %eax
  411b0e:	e8 3d f5 ff ff       	call   0x411050
  411b13:	83 c4 08             	add    $0x8,%esp
  411b16:	0f b6 c8             	movzbl %al,%ecx
  411b19:	85 c9                	test   %ecx,%ecx
  411b1b:	74 09                	je     0x411b26
  411b1d:	8b 45 e4             	mov    -0x1c(%ebp),%eax
  411b20:	83 c8 04             	or     $0x4,%eax
  411b23:	89 45 e4             	mov    %eax,-0x1c(%ebp)
  411b26:	e9 25 ff ff ff       	jmp    0x411a50
  411b2b:	83 7d e4 00          	cmpl   $0x0,-0x1c(%ebp)
  411b2f:	75 7f                	jne    0x411bb0
  411b31:	8b 45 08             	mov    0x8(%ebp),%eax
  411b34:	8b 08                	mov    (%eax),%ecx
  411b36:	8b 55 08             	mov    0x8(%ebp),%edx
  411b39:	03 51 04             	add    0x4(%ecx),%edx
  411b3c:	8b f4                	mov    %esp,%esi
  411b3e:	8b ca                	mov    %edx,%ecx
  411b40:	ff 15 e0 e0 41 00    	call   *0x41e0e0
  411b46:	3b f4                	cmp    %esp,%esi
  411b48:	e8 7e f7 ff ff       	call   0x4112cb
  411b4d:	89 85 a8 fe ff ff    	mov    %eax,-0x158(%ebp)
  411b53:	8b f4                	mov    %esp,%esi
  411b55:	0f b6 45 0c          	movzbl 0xc(%ebp),%eax
  411b59:	50                   	push   %eax
  411b5a:	8b 8d a8 fe ff ff    	mov    -0x158(%ebp),%ecx
  411b60:	ff 15 d0 e0 41 00    	call   *0x41e0d0
  411b66:	3b f4                	cmp    %esp,%esi
  411b68:	e8 5e f7 ff ff       	call   0x4112cb
  411b6d:	89 85 a4 fe ff ff    	mov    %eax,-0x15c(%ebp)
  411b73:	8b 8d a4 fe ff ff    	mov    -0x15c(%ebp),%ecx
  411b79:	89 8d e0 fe ff ff    	mov    %ecx,-0x120(%ebp)
  411b7f:	e8 a3 f5 ff ff       	call   0x411127
  411b84:	89 85 d4 fe ff ff    	mov    %eax,-0x12c(%ebp)
  411b8a:	8d 95 e0 fe ff ff    	lea    -0x120(%ebp),%edx
  411b90:	52                   	push   %edx
  411b91:	8d 85 d4 fe ff ff    	lea    -0x12c(%ebp),%eax
  411b97:	50                   	push   %eax
  411b98:	e8 b3 f4 ff ff       	call   0x411050
  411b9d:	83 c4 08             	add    $0x8,%esp
  411ba0:	0f b6 c8             	movzbl %al,%ecx
  411ba3:	85 c9                	test   %ecx,%ecx
  411ba5:	74 09                	je     0x411bb0
  411ba7:	8b 45 e4             	mov    -0x1c(%ebp),%eax
  411baa:	83 c8 04             	or     $0x4,%eax
  411bad:	89 45 e4             	mov    %eax,-0x1c(%ebp)
  411bb0:	eb 12                	jmp    0x411bc4
  411bb2:	8b 45 c4             	mov    -0x3c(%ebp),%eax
  411bb5:	83 e8 01             	sub    $0x1,%eax
  411bb8:	8b 4d c8             	mov    -0x38(%ebp),%ecx
  411bbb:	83 d9 00             	sbb    $0x0,%ecx
  411bbe:	89 45 c4             	mov    %eax,-0x3c(%ebp)
  411bc1:	89 4d c8             	mov    %ecx,-0x38(%ebp)
  411bc4:	83 7d e4 00          	cmpl   $0x0,-0x1c(%ebp)
  411bc8:	0f 85 bf 00 00 00    	jne    0x411c8d
  411bce:	83 7d c8 00          	cmpl   $0x0,-0x38(%ebp)
  411bd2:	0f 8c b5 00 00 00    	jl     0x411c8d
  411bd8:	7f 0a                	jg     0x411be4
  411bda:	83 7d c4 00          	cmpl   $0x0,-0x3c(%ebp)
  411bde:	0f 86 a9 00 00 00    	jbe    0x411c8d
  411be4:	8b 45 08             	mov    0x8(%ebp),%eax
  411be7:	8b 08                	mov    (%eax),%ecx
  411be9:	8b 55 08             	mov    0x8(%ebp),%edx
  411bec:	03 51 04             	add    0x4(%ecx),%edx
  411bef:	8b f4                	mov    %esp,%esi
  411bf1:	8b ca                	mov    %edx,%ecx
  411bf3:	ff 15 e4 e0 41 00    	call   *0x41e0e4
  411bf9:	3b f4                	cmp    %esp,%esi
  411bfb:	e8 cb f6 ff ff       	call   0x4112cb
  411c00:	88 85 ab fe ff ff    	mov    %al,-0x155(%ebp)
  411c06:	8b 45 08             	mov    0x8(%ebp),%eax
  411c09:	8b 08                	mov    (%eax),%ecx
  411c0b:	8b 55 08             	mov    0x8(%ebp),%edx
  411c0e:	03 51 04             	add    0x4(%ecx),%edx
  411c11:	8b f4                	mov    %esp,%esi
  411c13:	8b ca                	mov    %edx,%ecx
  411c15:	ff 15 e0 e0 41 00    	call   *0x41e0e0
  411c1b:	3b f4                	cmp    %esp,%esi
  411c1d:	e8 a9 f6 ff ff       	call   0x4112cb
  411c22:	89 85 a4 fe ff ff    	mov    %eax,-0x15c(%ebp)
  411c28:	8b f4                	mov    %esp,%esi
  411c2a:	0f b6 85 ab fe ff ff 	movzbl -0x155(%ebp),%eax
  411c31:	50                   	push   %eax
  411c32:	8b 8d a4 fe ff ff    	mov    -0x15c(%ebp),%ecx
  411c38:	ff 15 d0 e0 41 00    	call   *0x41e0d0
  411c3e:	3b f4                	cmp    %esp,%esi
  411c40:	e8 86 f6 ff ff       	call   0x4112cb
  411c45:	89 85 a0 fe ff ff    	mov    %eax,-0x160(%ebp)
  411c4b:	8b 8d a0 fe ff ff    	mov    -0x160(%ebp),%ecx
  411c51:	89 8d c8 fe ff ff    	mov    %ecx,-0x138(%ebp)
  411c57:	e8 cb f4 ff ff       	call   0x411127
  411c5c:	89 85 bc fe ff ff    	mov    %eax,-0x144(%ebp)
  411c62:	8d 95 c8 fe ff ff    	lea    -0x138(%ebp),%edx
  411c68:	52                   	push   %edx
  411c69:	8d 85 bc fe ff ff    	lea    -0x144(%ebp),%eax
  411c6f:	50                   	push   %eax
  411c70:	e8 db f3 ff ff       	call   0x411050
  411c75:	83 c4 08             	add    $0x8,%esp
  411c78:	0f b6 c8             	movzbl %al,%ecx
  411c7b:	85 c9                	test   %ecx,%ecx
  411c7d:	74 09                	je     0x411c88
  411c7f:	8b 45 e4             	mov    -0x1c(%ebp),%eax
  411c82:	83 c8 04             	or     $0x4,%eax
  411c85:	89 45 e4             	mov    %eax,-0x1c(%ebp)
  411c88:	e9 25 ff ff ff       	jmp    0x411bb2
  411c8d:	eb 26                	jmp    0x411cb5
  411c8f:	8b f4                	mov    %esp,%esi
  411c91:	6a 01                	push   $0x1
  411c93:	6a 04                	push   $0x4
  411c95:	8b 45 08             	mov    0x8(%ebp),%eax
  411c98:	8b 08                	mov    (%eax),%ecx
  411c9a:	8b 55 08             	mov    0x8(%ebp),%edx
  411c9d:	03 51 04             	add    0x4(%ecx),%edx
  411ca0:	8b ca                	mov    %edx,%ecx
  411ca2:	ff 15 d8 e0 41 00    	call   *0x41e0d8
  411ca8:	3b f4                	cmp    %esp,%esi
  411caa:	e8 1c f6 ff ff       	call   0x4112cb
  411caf:	b8 be 1c 41 00       	mov    $0x411cbe,%eax
  411cb4:	c3                   	ret
  411cb5:	c7 45 fc 00 00 00 00 	movl   $0x0,-0x4(%ebp)
  411cbc:	eb 07                	jmp    0x411cc5
  411cbe:	c7 45 fc 00 00 00 00 	movl   $0x0,-0x4(%ebp)
  411cc5:	8b f4                	mov    %esp,%esi
  411cc7:	6a 00                	push   $0x0
  411cc9:	6a 00                	push   $0x0
  411ccb:	8b 45 08             	mov    0x8(%ebp),%eax
  411cce:	8b 08                	mov    (%eax),%ecx
  411cd0:	8b 55 08             	mov    0x8(%ebp),%edx
  411cd3:	03 51 04             	add    0x4(%ecx),%edx
  411cd6:	8b ca                	mov    %edx,%ecx
  411cd8:	ff 15 cc e0 41 00    	call   *0x41e0cc
  411cde:	3b f4                	cmp    %esp,%esi
  411ce0:	e8 e6 f5 ff ff       	call   0x4112cb
  411ce5:	8b f4                	mov    %esp,%esi
  411ce7:	6a 00                	push   $0x0
  411ce9:	8b 45 e4             	mov    -0x1c(%ebp),%eax
  411cec:	50                   	push   %eax
  411ced:	8b 4d 08             	mov    0x8(%ebp),%ecx
  411cf0:	8b 11                	mov    (%ecx),%edx
  411cf2:	8b 4d 08             	mov    0x8(%ebp),%ecx
  411cf5:	03 4a 04             	add    0x4(%edx),%ecx
  411cf8:	ff 15 d8 e0 41 00    	call   *0x41e0d8
  411cfe:	3b f4                	cmp    %esp,%esi
  411d00:	e8 c6 f5 ff ff       	call   0x4112cb
  411d05:	8b 45 08             	mov    0x8(%ebp),%eax
  411d08:	89 85 b0 fe ff ff    	mov    %eax,-0x150(%ebp)
  411d0e:	c7 45 fc ff ff ff ff 	movl   $0xffffffff,-0x4(%ebp)
  411d15:	8d 4d d4             	lea    -0x2c(%ebp),%ecx
  411d18:	e8 18 f5 ff ff       	call   0x411235
  411d1d:	8b 85 b0 fe ff ff    	mov    -0x150(%ebp),%eax
  411d23:	52                   	push   %edx
  411d24:	8b cd                	mov    %ebp,%ecx
  411d26:	50                   	push   %eax
  411d27:	8d 15 60 1d 41 00    	lea    0x411d60,%edx
  411d2d:	e8 2b f5 ff ff       	call   0x41125d
  411d32:	58                   	pop    %eax
  411d33:	5a                   	pop    %edx
  411d34:	8b 4d f4             	mov    -0xc(%ebp),%ecx
  411d37:	64 89 0d 00 00 00 00 	mov    %ecx,%fs:0x0
  411d3e:	59                   	pop    %ecx
  411d3f:	5f                   	pop    %edi
  411d40:	5e                   	pop    %esi
  411d41:	5b                   	pop    %ebx
  411d42:	8b 4d ec             	mov    -0x14(%ebp),%ecx
  411d45:	33 cd                	xor    %ebp,%ecx
  411d47:	e8 58 f4 ff ff       	call   0x4111a4
  411d4c:	81 c4 64 01 00 00    	add    $0x164,%esp
  411d52:	3b ec                	cmp    %esp,%ebp
  411d54:	e8 72 f5 ff ff       	call   0x4112cb
  411d59:	8b e5                	mov    %ebp,%esp
  411d5b:	5d                   	pop    %ebp
  411d5c:	c3                   	ret
  411d5d:	0f 1f 00             	nopl   (%eax)
  411d60:	01 00                	add    %eax,(%eax)
  411d62:	00 00                	add    %al,(%eax)
  411d64:	68 1d 41 00 d4       	push   $0xd400411d
  411d69:	ff                   	(bad)
  411d6a:	ff                   	(bad)
  411d6b:	ff 08                	decl   (%eax)
  411d6d:	00 00                	add    %al,(%eax)
  411d6f:	00 74 1d 41          	add    %dh,0x41(%ebp,%ebx,1)
  411d73:	00 5f 4f             	add    %bl,0x4f(%edi)
  411d76:	6b 00 cc             	imul   $0xffffffcc,(%eax),%eax
  411d79:	cc                   	int3
  411d7a:	cc                   	int3
  411d7b:	cc                   	int3
  411d7c:	cc                   	int3
  411d7d:	cc                   	int3
  411d7e:	cc                   	int3
  411d7f:	cc                   	int3
  411d80:	cc                   	int3
  411d81:	cc                   	int3
  411d82:	cc                   	int3
  411d83:	cc                   	int3
  411d84:	cc                   	int3
  411d85:	cc                   	int3
  411d86:	cc                   	int3
  411d87:	cc                   	int3
  411d88:	cc                   	int3
  411d89:	cc                   	int3
  411d8a:	cc                   	int3
  411d8b:	cc                   	int3
  411d8c:	cc                   	int3
  411d8d:	cc                   	int3
  411d8e:	cc                   	int3
  411d8f:	cc                   	int3
  411d90:	cc                   	int3
  411d91:	cc                   	int3
  411d92:	cc                   	int3
  411d93:	cc                   	int3
  411d94:	cc                   	int3
  411d95:	cc                   	int3
  411d96:	cc                   	int3
  411d97:	cc                   	int3
  411d98:	cc                   	int3
  411d99:	cc                   	int3
  411d9a:	cc                   	int3
  411d9b:	cc                   	int3
  411d9c:	cc                   	int3
  411d9d:	cc                   	int3
  411d9e:	cc                   	int3
  411d9f:	cc                   	int3
  411da0:	cc                   	int3
  411da1:	cc                   	int3
  411da2:	cc                   	int3
  411da3:	cc                   	int3
  411da4:	cc                   	int3
  411da5:	cc                   	int3
  411da6:	cc                   	int3
  411da7:	cc                   	int3
  411da8:	cc                   	int3
  411da9:	cc                   	int3
  411daa:	cc                   	int3
  411dab:	cc                   	int3
  411dac:	cc                   	int3
  411dad:	cc                   	int3
  411dae:	cc                   	int3
  411daf:	cc                   	int3
  411db0:	cc                   	int3
  411db1:	cc                   	int3
  411db2:	cc                   	int3
  411db3:	cc                   	int3
  411db4:	cc                   	int3
  411db5:	cc                   	int3
  411db6:	cc                   	int3
  411db7:	cc                   	int3
  411db8:	cc                   	int3
  411db9:	cc                   	int3
  411dba:	cc                   	int3
  411dbb:	cc                   	int3
  411dbc:	cc                   	int3
  411dbd:	cc                   	int3
  411dbe:	cc                   	int3
  411dbf:	cc                   	int3
  411dc0:	cc                   	int3
  411dc1:	cc                   	int3
  411dc2:	cc                   	int3
  411dc3:	cc                   	int3
  411dc4:	cc                   	int3
  411dc5:	cc                   	int3
  411dc6:	cc                   	int3
  411dc7:	cc                   	int3
  411dc8:	cc                   	int3
  411dc9:	cc                   	int3
  411dca:	cc                   	int3
  411dcb:	cc                   	int3
  411dcc:	cc                   	int3
  411dcd:	cc                   	int3
  411dce:	cc                   	int3
  411dcf:	cc                   	int3
  411dd0:	cc                   	int3
  411dd1:	cc                   	int3
  411dd2:	cc                   	int3
  411dd3:	cc                   	int3
  411dd4:	cc                   	int3
  411dd5:	cc                   	int3
  411dd6:	cc                   	int3
  411dd7:	cc                   	int3
  411dd8:	cc                   	int3
  411dd9:	cc                   	int3
  411dda:	cc                   	int3
  411ddb:	cc                   	int3
  411ddc:	cc                   	int3
  411ddd:	cc                   	int3
  411dde:	cc                   	int3
  411ddf:	cc                   	int3
  411de0:	cc                   	int3
  411de1:	cc                   	int3
  411de2:	cc                   	int3
  411de3:	cc                   	int3
  411de4:	cc                   	int3
  411de5:	cc                   	int3
  411de6:	cc                   	int3
  411de7:	cc                   	int3
  411de8:	cc                   	int3
  411de9:	cc                   	int3
  411dea:	cc                   	int3
  411deb:	cc                   	int3
  411dec:	cc                   	int3
  411ded:	cc                   	int3
  411dee:	cc                   	int3
  411def:	cc                   	int3
  411df0:	cc                   	int3
  411df1:	cc                   	int3
  411df2:	cc                   	int3
  411df3:	cc                   	int3
  411df4:	cc                   	int3
  411df5:	cc                   	int3
  411df6:	cc                   	int3
  411df7:	cc                   	int3
  411df8:	cc                   	int3
  411df9:	cc                   	int3
  411dfa:	cc                   	int3
  411dfb:	cc                   	int3
  411dfc:	cc                   	int3
  411dfd:	cc                   	int3
  411dfe:	cc                   	int3
  411dff:	cc                   	int3
  411e00:	cc                   	int3
  411e01:	cc                   	int3
  411e02:	cc                   	int3
  411e03:	cc                   	int3
  411e04:	cc                   	int3
  411e05:	cc                   	int3
  411e06:	cc                   	int3
  411e07:	cc                   	int3
  411e08:	cc                   	int3
  411e09:	cc                   	int3
  411e0a:	cc                   	int3
  411e0b:	cc                   	int3
  411e0c:	cc                   	int3
  411e0d:	cc                   	int3
  411e0e:	cc                   	int3
  411e0f:	cc                   	int3
  411e10:	cc                   	int3
  411e11:	cc                   	int3
  411e12:	cc                   	int3
  411e13:	cc                   	int3
  411e14:	cc                   	int3
  411e15:	cc                   	int3
  411e16:	cc                   	int3
  411e17:	cc                   	int3
  411e18:	cc                   	int3
  411e19:	cc                   	int3
  411e1a:	cc                   	int3
  411e1b:	cc                   	int3
  411e1c:	cc                   	int3
  411e1d:	cc                   	int3
  411e1e:	cc                   	int3
  411e1f:	cc                   	int3
  411e20:	cc                   	int3
  411e21:	cc                   	int3
  411e22:	cc                   	int3
  411e23:	cc                   	int3
  411e24:	cc                   	int3
  411e25:	cc                   	int3
  411e26:	cc                   	int3
  411e27:	cc                   	int3
  411e28:	cc                   	int3
  411e29:	cc                   	int3
  411e2a:	cc                   	int3
  411e2b:	cc                   	int3
  411e2c:	cc                   	int3
  411e2d:	cc                   	int3
  411e2e:	cc                   	int3
  411e2f:	cc                   	int3
  411e30:	cc                   	int3
  411e31:	cc                   	int3
  411e32:	cc                   	int3
  411e33:	cc                   	int3
  411e34:	cc                   	int3
  411e35:	cc                   	int3
  411e36:	cc                   	int3
  411e37:	cc                   	int3
  411e38:	cc                   	int3
  411e39:	cc                   	int3
  411e3a:	cc                   	int3
  411e3b:	cc                   	int3
  411e3c:	cc                   	int3
  411e3d:	cc                   	int3
  411e3e:	cc                   	int3
  411e3f:	cc                   	int3
  411e40:	cc                   	int3
  411e41:	cc                   	int3
  411e42:	cc                   	int3
  411e43:	cc                   	int3
  411e44:	cc                   	int3
  411e45:	cc                   	int3
  411e46:	cc                   	int3
  411e47:	cc                   	int3
  411e48:	cc                   	int3
  411e49:	cc                   	int3
  411e4a:	cc                   	int3
  411e4b:	cc                   	int3
  411e4c:	cc                   	int3
  411e4d:	cc                   	int3
  411e4e:	cc                   	int3
  411e4f:	cc                   	int3
  411e50:	cc                   	int3
  411e51:	cc                   	int3
  411e52:	cc                   	int3
  411e53:	cc                   	int3
  411e54:	cc                   	int3
  411e55:	cc                   	int3
  411e56:	cc                   	int3
  411e57:	cc                   	int3
  411e58:	cc                   	int3
  411e59:	cc                   	int3
  411e5a:	cc                   	int3
  411e5b:	cc                   	int3
  411e5c:	cc                   	int3
  411e5d:	cc                   	int3
  411e5e:	cc                   	int3
  411e5f:	cc                   	int3
  411e60:	cc                   	int3
  411e61:	cc                   	int3
  411e62:	cc                   	int3
  411e63:	cc                   	int3
  411e64:	cc                   	int3
  411e65:	cc                   	int3
  411e66:	cc                   	int3
  411e67:	cc                   	int3
  411e68:	cc                   	int3
  411e69:	cc                   	int3
  411e6a:	cc                   	int3
  411e6b:	cc                   	int3
  411e6c:	cc                   	int3
  411e6d:	cc                   	int3
  411e6e:	cc                   	int3
  411e6f:	cc                   	int3
  411e70:	cc                   	int3
  411e71:	cc                   	int3
  411e72:	cc                   	int3
  411e73:	cc                   	int3
  411e74:	cc                   	int3
  411e75:	cc                   	int3
  411e76:	cc                   	int3
  411e77:	cc                   	int3
  411e78:	cc                   	int3
  411e79:	cc                   	int3
  411e7a:	cc                   	int3
  411e7b:	cc                   	int3
  411e7c:	cc                   	int3
  411e7d:	cc                   	int3
  411e7e:	cc                   	int3
  411e7f:	cc                   	int3
  411e80:	cc                   	int3
  411e81:	cc                   	int3
  411e82:	cc                   	int3
  411e83:	cc                   	int3
  411e84:	cc                   	int3
  411e85:	cc                   	int3
  411e86:	cc                   	int3
  411e87:	cc                   	int3
  411e88:	cc                   	int3
  411e89:	cc                   	int3
  411e8a:	cc                   	int3
  411e8b:	cc                   	int3
  411e8c:	cc                   	int3
  411e8d:	cc                   	int3
  411e8e:	cc                   	int3
  411e8f:	cc                   	int3
  411e90:	cc                   	int3
  411e91:	cc                   	int3
  411e92:	cc                   	int3
  411e93:	cc                   	int3
  411e94:	cc                   	int3
  411e95:	cc                   	int3
  411e96:	cc                   	int3
  411e97:	cc                   	int3
  411e98:	cc                   	int3
  411e99:	cc                   	int3
  411e9a:	cc                   	int3
  411e9b:	cc                   	int3
  411e9c:	cc                   	int3
  411e9d:	cc                   	int3
  411e9e:	cc                   	int3
  411e9f:	cc                   	int3
  411ea0:	55                   	push   %ebp
  411ea1:	8b ec                	mov    %esp,%ebp
  411ea3:	6a ff                	push   $0xffffffff
  411ea5:	68 6d 8a 41 00       	push   $0x418a6d
  411eaa:	64 a1 00 00 00 00    	mov    %fs:0x0,%eax
  411eb0:	50                   	push   %eax
  411eb1:	51                   	push   %ecx
  411eb2:	81 ec 54 01 00 00    	sub    $0x154,%esp
  411eb8:	53                   	push   %ebx
  411eb9:	56                   	push   %esi
  411eba:	57                   	push   %edi
  411ebb:	8d bd 5c ff ff ff    	lea    -0xa4(%ebp),%edi
  411ec1:	b9 25 00 00 00       	mov    $0x25,%ecx
  411ec6:	b8 cc cc cc cc       	mov    $0xcccccccc,%eax
  411ecb:	f3 ab                	rep stos %eax,%es:(%edi)
  411ecd:	a1 00 d0 41 00       	mov    0x41d000,%eax
  411ed2:	33 c5                	xor    %ebp,%eax
  411ed4:	89 45 ec             	mov    %eax,-0x14(%ebp)
  411ed7:	50                   	push   %eax
  411ed8:	8d 45 f4             	lea    -0xc(%ebp),%eax
  411edb:	64 a3 00 00 00 00    	mov    %eax,%fs:0x0
  411ee1:	89 65 f0             	mov    %esp,-0x10(%ebp)
  411ee4:	b9 64 00 42 00       	mov    $0x420064,%ecx
  411ee9:	e8 dc f4 ff ff       	call   0x4113ca
  411eee:	c7 45 e4 00 00 00 00 	movl   $0x0,-0x1c(%ebp)
  411ef5:	8b 45 0c             	mov    0xc(%ebp),%eax
  411ef8:	50                   	push   %eax
  411ef9:	e8 4d f1 ff ff       	call   0x41104b
  411efe:	83 c4 04             	add    $0x4,%esp
  411f01:	33 c9                	xor    %ecx,%ecx
  411f03:	89 45 d4             	mov    %eax,-0x2c(%ebp)
  411f06:	89 4d d8             	mov    %ecx,-0x28(%ebp)
  411f09:	8b 45 08             	mov    0x8(%ebp),%eax
  411f0c:	8b 08                	mov    (%eax),%ecx
  411f0e:	8b 55 08             	mov    0x8(%ebp),%edx
  411f11:	03 51 04             	add    0x4(%ecx),%edx
  411f14:	8b f4                	mov    %esp,%esi
  411f16:	8b ca                	mov    %edx,%ecx
  411f18:	ff 15 c8 e0 41 00    	call   *0x41e0c8
  411f1e:	3b f4                	cmp    %esp,%esi
  411f20:	e8 a6 f3 ff ff       	call   0x4112cb
  411f25:	89 85 ac fe ff ff    	mov    %eax,-0x154(%ebp)
  411f2b:	89 95 b0 fe ff ff    	mov    %edx,-0x150(%ebp)
  411f31:	83 bd b0 fe ff ff 00 	cmpl   $0x0,-0x150(%ebp)
  411f38:	7c 79                	jl     0x411fb3
  411f3a:	7f 09                	jg     0x411f45
  411f3c:	83 bd ac fe ff ff 00 	cmpl   $0x0,-0x154(%ebp)
  411f43:	76 6e                	jbe    0x411fb3
  411f45:	8b 45 08             	mov    0x8(%ebp),%eax
  411f48:	8b 08                	mov    (%eax),%ecx
  411f4a:	8b 55 08             	mov    0x8(%ebp),%edx
  411f4d:	03 51 04             	add    0x4(%ecx),%edx
  411f50:	8b f4                	mov    %esp,%esi
  411f52:	8b ca                	mov    %edx,%ecx
  411f54:	ff 15 c8 e0 41 00    	call   *0x41e0c8
  411f5a:	3b f4                	cmp    %esp,%esi
  411f5c:	e8 6a f3 ff ff       	call   0x4112cb
  411f61:	89 85 a4 fe ff ff    	mov    %eax,-0x15c(%ebp)
  411f67:	89 95 a8 fe ff ff    	mov    %edx,-0x158(%ebp)
  411f6d:	8b 85 a8 fe ff ff    	mov    -0x158(%ebp),%eax
  411f73:	3b 45 d8             	cmp    -0x28(%ebp),%eax
  411f76:	7c 3b                	jl     0x411fb3
  411f78:	7f 0b                	jg     0x411f85
  411f7a:	8b 8d a4 fe ff ff    	mov    -0x15c(%ebp),%ecx
  411f80:	3b 4d d4             	cmp    -0x2c(%ebp),%ecx
  411f83:	76 2e                	jbe    0x411fb3
  411f85:	8b 55 08             	mov    0x8(%ebp),%edx
  411f88:	8b 02                	mov    (%edx),%eax
  411f8a:	8b 4d 08             	mov    0x8(%ebp),%ecx
  411f8d:	03 48 04             	add    0x4(%eax),%ecx
  411f90:	8b f4                	mov    %esp,%esi
  411f92:	ff 15 c8 e0 41 00    	call   *0x41e0c8
  411f98:	3b f4                	cmp    %esp,%esi
  411f9a:	e8 2c f3 ff ff       	call   0x4112cb
  411f9f:	2b 45 d4             	sub    -0x2c(%ebp),%eax
  411fa2:	1b 55 d8             	sbb    -0x28(%ebp),%edx
  411fa5:	89 85 9c fe ff ff    	mov    %eax,-0x164(%ebp)
  411fab:	89 95 a0 fe ff ff    	mov    %edx,-0x160(%ebp)
  411fb1:	eb 0b                	jmp    0x411fbe
  411fb3:	0f 57 c0             	xorps  %xmm0,%xmm0
  411fb6:	66 0f 13 85 9c fe ff 	movlpd %xmm0,-0x164(%ebp)
  411fbd:	ff 
  411fbe:	8b 8d 9c fe ff ff    	mov    -0x164(%ebp),%ecx
  411fc4:	8b 95 a0 fe ff ff    	mov    -0x160(%ebp),%edx
  411fca:	89 4d c4             	mov    %ecx,-0x3c(%ebp)
  411fcd:	89 55 c8             	mov    %edx,-0x38(%ebp)
  411fd0:	8b 45 08             	mov    0x8(%ebp),%eax
  411fd3:	50                   	push   %eax
  411fd4:	8d 4d b4             	lea    -0x4c(%ebp),%ecx
  411fd7:	e8 a9 f2 ff ff       	call   0x411285
  411fdc:	c7 45 fc 00 00 00 00 	movl   $0x0,-0x4(%ebp)
  411fe3:	8d 4d b4             	lea    -0x4c(%ebp),%ecx
  411fe6:	e8 8d f0 ff ff       	call   0x411078
  411feb:	0f b6 c0             	movzbl %al,%eax
  411fee:	85 c0                	test   %eax,%eax
  411ff0:	75 0e                	jne    0x412000
  411ff2:	8b 45 e4             	mov    -0x1c(%ebp),%eax
  411ff5:	83 c8 04             	or     $0x4,%eax
  411ff8:	89 45 e4             	mov    %eax,-0x1c(%ebp)
  411ffb:	e9 ba 02 00 00       	jmp    0x4122ba
  412000:	c6 45 fc 01          	movb   $0x1,-0x4(%ebp)
  412004:	8b 45 08             	mov    0x8(%ebp),%eax
  412007:	8b 08                	mov    (%eax),%ecx
  412009:	8b 55 08             	mov    0x8(%ebp),%edx
  41200c:	03 51 04             	add    0x4(%ecx),%edx
  41200f:	8b f4                	mov    %esp,%esi
  412011:	8b ca                	mov    %edx,%ecx
  412013:	ff 15 c4 e0 41 00    	call   *0x41e0c4
  412019:	3b f4                	cmp    %esp,%esi
  41201b:	e8 ab f2 ff ff       	call   0x4112cb
  412020:	89 85 b0 fe ff ff    	mov    %eax,-0x150(%ebp)
  412026:	8b 85 b0 fe ff ff    	mov    -0x150(%ebp),%eax
  41202c:	25 c0 01 00 00       	and    $0x1c0,%eax
  412031:	83 f8 40             	cmp    $0x40,%eax
  412034:	0f 84 d5 00 00 00    	je     0x41210f
  41203a:	eb 12                	jmp    0x41204e
  41203c:	8b 45 c4             	mov    -0x3c(%ebp),%eax
  41203f:	83 e8 01             	sub    $0x1,%eax
  412042:	8b 4d c8             	mov    -0x38(%ebp),%ecx
  412045:	83 d9 00             	sbb    $0x0,%ecx
  412048:	89 45 c4             	mov    %eax,-0x3c(%ebp)
  41204b:	89 4d c8             	mov    %ecx,-0x38(%ebp)
  41204e:	83 7d c8 00          	cmpl   $0x0,-0x38(%ebp)
  412052:	0f 8c b7 00 00 00    	jl     0x41210f
  412058:	7f 0a                	jg     0x412064
  41205a:	83 7d c4 00          	cmpl   $0x0,-0x3c(%ebp)
  41205e:	0f 86 ab 00 00 00    	jbe    0x41210f
  412064:	8b 45 08             	mov    0x8(%ebp),%eax
  412067:	8b 08                	mov    (%eax),%ecx
  412069:	8b 55 08             	mov    0x8(%ebp),%edx
  41206c:	03 51 04             	add    0x4(%ecx),%edx
  41206f:	8b f4                	mov    %esp,%esi
  412071:	8b ca                	mov    %edx,%ecx
  412073:	ff 15 e4 e0 41 00    	call   *0x41e0e4
  412079:	3b f4                	cmp    %esp,%esi
  41207b:	e8 4b f2 ff ff       	call   0x4112cb
  412080:	88 85 b3 fe ff ff    	mov    %al,-0x14d(%ebp)
  412086:	8b 45 08             	mov    0x8(%ebp),%eax
  412089:	8b 08                	mov    (%eax),%ecx
  41208b:	8b 55 08             	mov    0x8(%ebp),%edx
  41208e:	03 51 04             	add    0x4(%ecx),%edx
  412091:	8b f4                	mov    %esp,%esi
  412093:	8b ca                	mov    %edx,%ecx
  412095:	ff 15 e0 e0 41 00    	call   *0x41e0e0
  41209b:	3b f4                	cmp    %esp,%esi
  41209d:	e8 29 f2 ff ff       	call   0x4112cb
  4120a2:	89 85 ac fe ff ff    	mov    %eax,-0x154(%ebp)
  4120a8:	8b f4                	mov    %esp,%esi
  4120aa:	0f b6 85 b3 fe ff ff 	movzbl -0x14d(%ebp),%eax
  4120b1:	50                   	push   %eax
  4120b2:	8b 8d ac fe ff ff    	mov    -0x154(%ebp),%ecx
  4120b8:	ff 15 d0 e0 41 00    	call   *0x41e0d0
  4120be:	3b f4                	cmp    %esp,%esi
  4120c0:	e8 06 f2 ff ff       	call   0x4112cb
  4120c5:	89 85 a8 fe ff ff    	mov    %eax,-0x158(%ebp)
  4120cb:	8b 8d a8 fe ff ff    	mov    -0x158(%ebp),%ecx
  4120d1:	89 8d e8 fe ff ff    	mov    %ecx,-0x118(%ebp)
  4120d7:	e8 4b f0 ff ff       	call   0x411127
  4120dc:	89 85 dc fe ff ff    	mov    %eax,-0x124(%ebp)
  4120e2:	8d 95 e8 fe ff ff    	lea    -0x118(%ebp),%edx
  4120e8:	52                   	push   %edx
  4120e9:	8d 85 dc fe ff ff    	lea    -0x124(%ebp),%eax
  4120ef:	50                   	push   %eax
  4120f0:	e8 5b ef ff ff       	call   0x411050
  4120f5:	83 c4 08             	add    $0x8,%esp
  4120f8:	0f b6 c8             	movzbl %al,%ecx
  4120fb:	85 c9                	test   %ecx,%ecx
  4120fd:	74 0b                	je     0x41210a
  4120ff:	8b 45 e4             	mov    -0x1c(%ebp),%eax
  412102:	83 c8 04             	or     $0x4,%eax
  412105:	89 45 e4             	mov    %eax,-0x1c(%ebp)
  412108:	eb 05                	jmp    0x41210f
  41210a:	e9 2d ff ff ff       	jmp    0x41203c
  41210f:	83 7d e4 00          	cmpl   $0x0,-0x1c(%ebp)
  412113:	75 6e                	jne    0x412183
  412115:	8b 45 08             	mov    0x8(%ebp),%eax
  412118:	8b 08                	mov    (%eax),%ecx
  41211a:	8b 55 08             	mov    0x8(%ebp),%edx
  41211d:	03 51 04             	add    0x4(%ecx),%edx
  412120:	8b f4                	mov    %esp,%esi
  412122:	8b ca                	mov    %edx,%ecx
  412124:	ff 15 e0 e0 41 00    	call   *0x41e0e0
  41212a:	3b f4                	cmp    %esp,%esi
  41212c:	e8 9a f1 ff ff       	call   0x4112cb
  412131:	89 85 b0 fe ff ff    	mov    %eax,-0x150(%ebp)
  412137:	8b f4                	mov    %esp,%esi
  412139:	8b 45 d8             	mov    -0x28(%ebp),%eax
  41213c:	50                   	push   %eax
  41213d:	8b 4d d4             	mov    -0x2c(%ebp),%ecx
  412140:	51                   	push   %ecx
  412141:	8b 55 0c             	mov    0xc(%ebp),%edx
  412144:	52                   	push   %edx
  412145:	8b 8d b0 fe ff ff    	mov    -0x150(%ebp),%ecx
  41214b:	ff 15 d4 e0 41 00    	call   *0x41e0d4
  412151:	3b f4                	cmp    %esp,%esi
  412153:	e8 73 f1 ff ff       	call   0x4112cb
  412158:	89 85 a8 fe ff ff    	mov    %eax,-0x158(%ebp)
  41215e:	89 95 ac fe ff ff    	mov    %edx,-0x154(%ebp)
  412164:	8b 85 a8 fe ff ff    	mov    -0x158(%ebp),%eax
  41216a:	3b 45 d4             	cmp    -0x2c(%ebp),%eax
  41216d:	75 0b                	jne    0x41217a
  41216f:	8b 8d ac fe ff ff    	mov    -0x154(%ebp),%ecx
  412175:	3b 4d d8             	cmp    -0x28(%ebp),%ecx
  412178:	74 09                	je     0x412183
  41217a:	8b 45 e4             	mov    -0x1c(%ebp),%eax
  41217d:	83 c8 04             	or     $0x4,%eax
  412180:	89 45 e4             	mov    %eax,-0x1c(%ebp)
  412183:	83 7d e4 00          	cmpl   $0x0,-0x1c(%ebp)
  412187:	0f 85 d5 00 00 00    	jne    0x412262
  41218d:	eb 12                	jmp    0x4121a1
  41218f:	8b 45 c4             	mov    -0x3c(%ebp),%eax
  412192:	83 e8 01             	sub    $0x1,%eax
  412195:	8b 4d c8             	mov    -0x38(%ebp),%ecx
  412198:	83 d9 00             	sbb    $0x0,%ecx
  41219b:	89 45 c4             	mov    %eax,-0x3c(%ebp)
  41219e:	89 4d c8             	mov    %ecx,-0x38(%ebp)
  4121a1:	83 7d c8 00          	cmpl   $0x0,-0x38(%ebp)
  4121a5:	0f 8c b7 00 00 00    	jl     0x412262
  4121ab:	7f 0a                	jg     0x4121b7
  4121ad:	83 7d c4 00          	cmpl   $0x0,-0x3c(%ebp)
  4121b1:	0f 86 ab 00 00 00    	jbe    0x412262
  4121b7:	8b 45 08             	mov    0x8(%ebp),%eax
  4121ba:	8b 08                	mov    (%eax),%ecx
  4121bc:	8b 55 08             	mov    0x8(%ebp),%edx
  4121bf:	03 51 04             	add    0x4(%ecx),%edx
  4121c2:	8b f4                	mov    %esp,%esi
  4121c4:	8b ca                	mov    %edx,%ecx
  4121c6:	ff 15 e4 e0 41 00    	call   *0x41e0e4
  4121cc:	3b f4                	cmp    %esp,%esi
  4121ce:	e8 f8 f0 ff ff       	call   0x4112cb
  4121d3:	88 85 b3 fe ff ff    	mov    %al,-0x14d(%ebp)
  4121d9:	8b 45 08             	mov    0x8(%ebp),%eax
  4121dc:	8b 08                	mov    (%eax),%ecx
  4121de:	8b 55 08             	mov    0x8(%ebp),%edx
  4121e1:	03 51 04             	add    0x4(%ecx),%edx
  4121e4:	8b f4                	mov    %esp,%esi
  4121e6:	8b ca                	mov    %edx,%ecx
  4121e8:	ff 15 e0 e0 41 00    	call   *0x41e0e0
  4121ee:	3b f4                	cmp    %esp,%esi
  4121f0:	e8 d6 f0 ff ff       	call   0x4112cb
  4121f5:	89 85 ac fe ff ff    	mov    %eax,-0x154(%ebp)
  4121fb:	8b f4                	mov    %esp,%esi
  4121fd:	0f b6 85 b3 fe ff ff 	movzbl -0x14d(%ebp),%eax
  412204:	50                   	push   %eax
  412205:	8b 8d ac fe ff ff    	mov    -0x154(%ebp),%ecx
  41220b:	ff 15 d0 e0 41 00    	call   *0x41e0d0
  412211:	3b f4                	cmp    %esp,%esi
  412213:	e8 b3 f0 ff ff       	call   0x4112cb
  412218:	89 85 a8 fe ff ff    	mov    %eax,-0x158(%ebp)
  41221e:	8b 8d a8 fe ff ff    	mov    -0x158(%ebp),%ecx
  412224:	89 8d d0 fe ff ff    	mov    %ecx,-0x130(%ebp)
  41222a:	e8 f8 ee ff ff       	call   0x411127
  41222f:	89 85 c4 fe ff ff    	mov    %eax,-0x13c(%ebp)
  412235:	8d 95 d0 fe ff ff    	lea    -0x130(%ebp),%edx
  41223b:	52                   	push   %edx
  41223c:	8d 85 c4 fe ff ff    	lea    -0x13c(%ebp),%eax
  412242:	50                   	push   %eax
  412243:	e8 08 ee ff ff       	call   0x411050
  412248:	83 c4 08             	add    $0x8,%esp
  41224b:	0f b6 c8             	movzbl %al,%ecx
  41224e:	85 c9                	test   %ecx,%ecx
  412250:	74 0b                	je     0x41225d
  412252:	8b 45 e4             	mov    -0x1c(%ebp),%eax
  412255:	83 c8 04             	or     $0x4,%eax
  412258:	89 45 e4             	mov    %eax,-0x1c(%ebp)
  41225b:	eb 05                	jmp    0x412262
  41225d:	e9 2d ff ff ff       	jmp    0x41218f
  412262:	8b f4                	mov    %esp,%esi
  412264:	6a 00                	push   $0x0
  412266:	6a 00                	push   $0x0
  412268:	8b 45 08             	mov    0x8(%ebp),%eax
  41226b:	8b 08                	mov    (%eax),%ecx
  41226d:	8b 55 08             	mov    0x8(%ebp),%edx
  412270:	03 51 04             	add    0x4(%ecx),%edx
  412273:	8b ca                	mov    %edx,%ecx
  412275:	ff 15 cc e0 41 00    	call   *0x41e0cc
  41227b:	3b f4                	cmp    %esp,%esi
  41227d:	e8 49 f0 ff ff       	call   0x4112cb
  412282:	eb 26                	jmp    0x4122aa
  412284:	8b f4                	mov    %esp,%esi
  412286:	6a 01                	push   $0x1
  412288:	6a 04                	push   $0x4
  41228a:	8b 45 08             	mov    0x8(%ebp),%eax
  41228d:	8b 08                	mov    (%eax),%ecx
  41228f:	8b 55 08             	mov    0x8(%ebp),%edx
  412292:	03 51 04             	add    0x4(%ecx),%edx
  412295:	8b ca                	mov    %edx,%ecx
  412297:	ff 15 d8 e0 41 00    	call   *0x41e0d8
  41229d:	3b f4                	cmp    %esp,%esi
  41229f:	e8 27 f0 ff ff       	call   0x4112cb
  4122a4:	b8 b3 22 41 00       	mov    $0x4122b3,%eax
  4122a9:	c3                   	ret
  4122aa:	c7 45 fc 00 00 00 00 	movl   $0x0,-0x4(%ebp)
  4122b1:	eb 07                	jmp    0x4122ba
  4122b3:	c7 45 fc 00 00 00 00 	movl   $0x0,-0x4(%ebp)
  4122ba:	8b f4                	mov    %esp,%esi
  4122bc:	6a 00                	push   $0x0
  4122be:	8b 45 e4             	mov    -0x1c(%ebp),%eax
  4122c1:	50                   	push   %eax
  4122c2:	8b 4d 08             	mov    0x8(%ebp),%ecx
  4122c5:	8b 11                	mov    (%ecx),%edx
  4122c7:	8b 4d 08             	mov    0x8(%ebp),%ecx
  4122ca:	03 4a 04             	add    0x4(%edx),%ecx
  4122cd:	ff 15 d8 e0 41 00    	call   *0x41e0d8
  4122d3:	3b f4                	cmp    %esp,%esi
  4122d5:	e8 f1 ef ff ff       	call   0x4112cb
  4122da:	8b 45 08             	mov    0x8(%ebp),%eax
  4122dd:	89 85 b8 fe ff ff    	mov    %eax,-0x148(%ebp)
  4122e3:	c7 45 fc ff ff ff ff 	movl   $0xffffffff,-0x4(%ebp)
  4122ea:	8d 4d b4             	lea    -0x4c(%ebp),%ecx
  4122ed:	e8 43 ef ff ff       	call   0x411235
  4122f2:	8b 85 b8 fe ff ff    	mov    -0x148(%ebp),%eax
  4122f8:	52                   	push   %edx
  4122f9:	8b cd                	mov    %ebp,%ecx
  4122fb:	50                   	push   %eax
  4122fc:	8d 15 34 23 41 00    	lea    0x412334,%edx
  412302:	e8 56 ef ff ff       	call   0x41125d
  412307:	58                   	pop    %eax
  412308:	5a                   	pop    %edx
  412309:	8b 4d f4             	mov    -0xc(%ebp),%ecx
  41230c:	64 89 0d 00 00 00 00 	mov    %ecx,%fs:0x0
  412313:	59                   	pop    %ecx
  412314:	5f                   	pop    %edi
  412315:	5e                   	pop    %esi
  412316:	5b                   	pop    %ebx
  412317:	8b 4d ec             	mov    -0x14(%ebp),%ecx
  41231a:	33 cd                	xor    %ebp,%ecx
  41231c:	e8 83 ee ff ff       	call   0x4111a4
  412321:	81 c4 64 01 00 00    	add    $0x164,%esp
  412327:	3b ec                	cmp    %esp,%ebp
  412329:	e8 9d ef ff ff       	call   0x4112cb
  41232e:	8b e5                	mov    %ebp,%esp
  412330:	5d                   	pop    %ebp
  412331:	c3                   	ret
  412332:	66 90                	xchg   %ax,%ax
  412334:	01 00                	add    %eax,(%eax)
  412336:	00 00                	add    %al,(%eax)
  412338:	3c 23                	cmp    $0x23,%al
  41233a:	41                   	inc    %ecx
  41233b:	00 b4 ff ff ff 08 00 	add    %dh,0x8ffff(%edi,%edi,8)
  412342:	00 00                	add    %al,(%eax)
  412344:	48                   	dec    %eax
  412345:	23 41 00             	and    0x0(%ecx),%eax
  412348:	5f                   	pop    %edi
  412349:	4f                   	dec    %edi
  41234a:	6b 00 cc             	imul   $0xffffffcc,(%eax),%eax
  41234d:	cc                   	int3
  41234e:	cc                   	int3
  41234f:	cc                   	int3
  412350:	cc                   	int3
  412351:	cc                   	int3
  412352:	cc                   	int3
  412353:	cc                   	int3
  412354:	cc                   	int3
  412355:	cc                   	int3
  412356:	cc                   	int3
  412357:	cc                   	int3
  412358:	cc                   	int3
  412359:	cc                   	int3
  41235a:	cc                   	int3
  41235b:	cc                   	int3
  41235c:	cc                   	int3
  41235d:	cc                   	int3
  41235e:	cc                   	int3
  41235f:	cc                   	int3
  412360:	cc                   	int3
  412361:	cc                   	int3
  412362:	cc                   	int3
  412363:	cc                   	int3
  412364:	cc                   	int3
  412365:	cc                   	int3
  412366:	cc                   	int3
  412367:	cc                   	int3
  412368:	cc                   	int3
  412369:	cc                   	int3
  41236a:	cc                   	int3
  41236b:	cc                   	int3
  41236c:	cc                   	int3
  41236d:	cc                   	int3
  41236e:	cc                   	int3
  41236f:	cc                   	int3
  412370:	cc                   	int3
  412371:	cc                   	int3
  412372:	cc                   	int3
  412373:	cc                   	int3
  412374:	cc                   	int3
  412375:	cc                   	int3
  412376:	cc                   	int3
  412377:	cc                   	int3
  412378:	cc                   	int3
  412379:	cc                   	int3
  41237a:	cc                   	int3
  41237b:	cc                   	int3
  41237c:	cc                   	int3
  41237d:	cc                   	int3
  41237e:	cc                   	int3
  41237f:	cc                   	int3
  412380:	cc                   	int3
  412381:	cc                   	int3
  412382:	cc                   	int3
  412383:	cc                   	int3
  412384:	cc                   	int3
  412385:	cc                   	int3
  412386:	cc                   	int3
  412387:	cc                   	int3
  412388:	cc                   	int3
  412389:	cc                   	int3
  41238a:	cc                   	int3
  41238b:	cc                   	int3
  41238c:	cc                   	int3
  41238d:	cc                   	int3
  41238e:	cc                   	int3
  41238f:	cc                   	int3
  412390:	cc                   	int3
  412391:	cc                   	int3
  412392:	cc                   	int3
  412393:	cc                   	int3
  412394:	cc                   	int3
  412395:	cc                   	int3
  412396:	cc                   	int3
  412397:	cc                   	int3
  412398:	cc                   	int3
  412399:	cc                   	int3
  41239a:	cc                   	int3
  41239b:	cc                   	int3
  41239c:	cc                   	int3
  41239d:	cc                   	int3
  41239e:	cc                   	int3
  41239f:	cc                   	int3
  4123a0:	cc                   	int3
  4123a1:	cc                   	int3
  4123a2:	cc                   	int3
  4123a3:	cc                   	int3
  4123a4:	cc                   	int3
  4123a5:	cc                   	int3
  4123a6:	cc                   	int3
  4123a7:	cc                   	int3
  4123a8:	cc                   	int3
  4123a9:	cc                   	int3
  4123aa:	cc                   	int3
  4123ab:	cc                   	int3
  4123ac:	cc                   	int3
  4123ad:	cc                   	int3
  4123ae:	cc                   	int3
  4123af:	cc                   	int3
  4123b0:	cc                   	int3
  4123b1:	cc                   	int3
  4123b2:	cc                   	int3
  4123b3:	cc                   	int3
  4123b4:	cc                   	int3
  4123b5:	cc                   	int3
  4123b6:	cc                   	int3
  4123b7:	cc                   	int3
  4123b8:	cc                   	int3
  4123b9:	cc                   	int3
  4123ba:	cc                   	int3
  4123bb:	cc                   	int3
  4123bc:	cc                   	int3
  4123bd:	cc                   	int3
  4123be:	cc                   	int3
  4123bf:	cc                   	int3
  4123c0:	cc                   	int3
  4123c1:	cc                   	int3
  4123c2:	cc                   	int3
  4123c3:	cc                   	int3
  4123c4:	cc                   	int3
  4123c5:	cc                   	int3
  4123c6:	cc                   	int3
  4123c7:	cc                   	int3
  4123c8:	cc                   	int3
  4123c9:	cc                   	int3
  4123ca:	cc                   	int3
  4123cb:	cc                   	int3
  4123cc:	cc                   	int3
  4123cd:	cc                   	int3
  4123ce:	cc                   	int3
  4123cf:	cc                   	int3
  4123d0:	cc                   	int3
  4123d1:	cc                   	int3
  4123d2:	cc                   	int3
  4123d3:	cc                   	int3
  4123d4:	cc                   	int3
  4123d5:	cc                   	int3
  4123d6:	cc                   	int3
  4123d7:	cc                   	int3
  4123d8:	cc                   	int3
  4123d9:	cc                   	int3
  4123da:	cc                   	int3
  4123db:	cc                   	int3
  4123dc:	cc                   	int3
  4123dd:	cc                   	int3
  4123de:	cc                   	int3
  4123df:	cc                   	int3
  4123e0:	cc                   	int3
  4123e1:	cc                   	int3
  4123e2:	cc                   	int3
  4123e3:	cc                   	int3
  4123e4:	cc                   	int3
  4123e5:	cc                   	int3
  4123e6:	cc                   	int3
  4123e7:	cc                   	int3
  4123e8:	cc                   	int3
  4123e9:	cc                   	int3
  4123ea:	cc                   	int3
  4123eb:	cc                   	int3
  4123ec:	cc                   	int3
  4123ed:	cc                   	int3
  4123ee:	cc                   	int3
  4123ef:	cc                   	int3
  4123f0:	cc                   	int3
  4123f1:	cc                   	int3
  4123f2:	cc                   	int3
  4123f3:	cc                   	int3
  4123f4:	cc                   	int3
  4123f5:	cc                   	int3
  4123f6:	cc                   	int3
  4123f7:	cc                   	int3
  4123f8:	cc                   	int3
  4123f9:	cc                   	int3
  4123fa:	cc                   	int3
  4123fb:	cc                   	int3
  4123fc:	cc                   	int3
  4123fd:	cc                   	int3
  4123fe:	cc                   	int3
  4123ff:	cc                   	int3
  412400:	cc                   	int3
  412401:	cc                   	int3
  412402:	cc                   	int3
  412403:	cc                   	int3
  412404:	cc                   	int3
  412405:	cc                   	int3
  412406:	cc                   	int3
  412407:	cc                   	int3
  412408:	cc                   	int3
  412409:	cc                   	int3
  41240a:	cc                   	int3
  41240b:	cc                   	int3
  41240c:	cc                   	int3
  41240d:	cc                   	int3
  41240e:	cc                   	int3
  41240f:	cc                   	int3
  412410:	cc                   	int3
  412411:	cc                   	int3
  412412:	cc                   	int3
  412413:	cc                   	int3
  412414:	cc                   	int3
  412415:	cc                   	int3
  412416:	cc                   	int3
  412417:	cc                   	int3
  412418:	cc                   	int3
  412419:	cc                   	int3
  41241a:	cc                   	int3
  41241b:	cc                   	int3
  41241c:	cc                   	int3
  41241d:	cc                   	int3
  41241e:	cc                   	int3
  41241f:	cc                   	int3
  412420:	cc                   	int3
  412421:	cc                   	int3
  412422:	cc                   	int3
  412423:	cc                   	int3
  412424:	cc                   	int3
  412425:	cc                   	int3
  412426:	cc                   	int3
  412427:	cc                   	int3
  412428:	cc                   	int3
  412429:	cc                   	int3
  41242a:	cc                   	int3
  41242b:	cc                   	int3
  41242c:	cc                   	int3
  41242d:	cc                   	int3
  41242e:	cc                   	int3
  41242f:	cc                   	int3
  412430:	cc                   	int3
  412431:	cc                   	int3
  412432:	cc                   	int3
  412433:	cc                   	int3
  412434:	cc                   	int3
  412435:	cc                   	int3
  412436:	cc                   	int3
  412437:	cc                   	int3
  412438:	cc                   	int3
  412439:	cc                   	int3
  41243a:	cc                   	int3
  41243b:	cc                   	int3
  41243c:	cc                   	int3
  41243d:	cc                   	int3
  41243e:	cc                   	int3
  41243f:	cc                   	int3
  412440:	cc                   	int3
  412441:	cc                   	int3
  412442:	cc                   	int3
  412443:	cc                   	int3
  412444:	cc                   	int3
  412445:	cc                   	int3
  412446:	cc                   	int3
  412447:	cc                   	int3
  412448:	cc                   	int3
  412449:	cc                   	int3
  41244a:	cc                   	int3
  41244b:	cc                   	int3
  41244c:	cc                   	int3
  41244d:	cc                   	int3
  41244e:	cc                   	int3
  41244f:	cc                   	int3
  412450:	cc                   	int3
  412451:	cc                   	int3
  412452:	cc                   	int3
  412453:	cc                   	int3
  412454:	cc                   	int3
  412455:	cc                   	int3
  412456:	cc                   	int3
  412457:	cc                   	int3
  412458:	cc                   	int3
  412459:	cc                   	int3
  41245a:	cc                   	int3
  41245b:	cc                   	int3
  41245c:	cc                   	int3
  41245d:	cc                   	int3
  41245e:	cc                   	int3
  41245f:	cc                   	int3
  412460:	cc                   	int3
  412461:	cc                   	int3
  412462:	cc                   	int3
  412463:	cc                   	int3
  412464:	cc                   	int3
  412465:	cc                   	int3
  412466:	cc                   	int3
  412467:	cc                   	int3
  412468:	cc                   	int3
  412469:	cc                   	int3
  41246a:	cc                   	int3
  41246b:	cc                   	int3
  41246c:	cc                   	int3
  41246d:	cc                   	int3
  41246e:	cc                   	int3
  41246f:	cc                   	int3
  412470:	cc                   	int3
  412471:	cc                   	int3
  412472:	cc                   	int3
  412473:	cc                   	int3
  412474:	cc                   	int3
  412475:	cc                   	int3
  412476:	cc                   	int3
  412477:	cc                   	int3
  412478:	cc                   	int3
  412479:	cc                   	int3
  41247a:	cc                   	int3
  41247b:	cc                   	int3
  41247c:	cc                   	int3
  41247d:	cc                   	int3
  41247e:	cc                   	int3
  41247f:	cc                   	int3
  412480:	55                   	push   %ebp
  412481:	8b ec                	mov    %esp,%ebp
  412483:	81 ec c0 00 00 00    	sub    $0xc0,%esp
  412489:	53                   	push   %ebx
  41248a:	56                   	push   %esi
  41248b:	57                   	push   %edi
  41248c:	8b fd                	mov    %ebp,%edi
  41248e:	33 c9                	xor    %ecx,%ecx
  412490:	b8 cc cc cc cc       	mov    $0xcccccccc,%eax
  412495:	f3 ab                	rep stos %eax,%es:(%edi)
  412497:	b9 64 00 42 00       	mov    $0x420064,%ecx
  41249c:	e8 29 ef ff ff       	call   0x4113ca
  4124a1:	8b f4                	mov    %esp,%esi
  4124a3:	6a 0a                	push   $0xa
  4124a5:	8b 45 08             	mov    0x8(%ebp),%eax
  4124a8:	8b 08                	mov    (%eax),%ecx
  4124aa:	8b 55 08             	mov    0x8(%ebp),%edx
  4124ad:	03 51 04             	add    0x4(%ecx),%edx
  4124b0:	8b ca                	mov    %edx,%ecx
  4124b2:	ff 15 e8 e0 41 00    	call   *0x41e0e8
  4124b8:	3b f4                	cmp    %esp,%esi
  4124ba:	e8 0c ee ff ff       	call   0x4112cb
  4124bf:	8b f4                	mov    %esp,%esi
  4124c1:	0f b6 c0             	movzbl %al,%eax
  4124c4:	50                   	push   %eax
  4124c5:	8b 4d 08             	mov    0x8(%ebp),%ecx
  4124c8:	ff 15 b8 e0 41 00    	call   *0x41e0b8
  4124ce:	3b f4                	cmp    %esp,%esi
  4124d0:	e8 f6 ed ff ff       	call   0x4112cb
  4124d5:	8b f4                	mov    %esp,%esi
  4124d7:	8b 4d 08             	mov    0x8(%ebp),%ecx
  4124da:	ff 15 b4 e0 41 00    	call   *0x41e0b4
  4124e0:	3b f4                	cmp    %esp,%esi
  4124e2:	e8 e4 ed ff ff       	call   0x4112cb
  4124e7:	8b 45 08             	mov    0x8(%ebp),%eax
  4124ea:	5f                   	pop    %edi
  4124eb:	5e                   	pop    %esi
  4124ec:	5b                   	pop    %ebx
  4124ed:	81 c4 c0 00 00 00    	add    $0xc0,%esp
  4124f3:	3b ec                	cmp    %esp,%ebp
  4124f5:	e8 d1 ed ff ff       	call   0x4112cb
  4124fa:	8b e5                	mov    %ebp,%esp
  4124fc:	5d                   	pop    %ebp
  4124fd:	c3                   	ret
  4124fe:	cc                   	int3
  4124ff:	cc                   	int3
  412500:	cc                   	int3
  412501:	cc                   	int3
  412502:	cc                   	int3
  412503:	cc                   	int3
  412504:	cc                   	int3
  412505:	cc                   	int3
  412506:	cc                   	int3
  412507:	cc                   	int3
  412508:	cc                   	int3
  412509:	cc                   	int3
  41250a:	cc                   	int3
  41250b:	cc                   	int3
  41250c:	cc                   	int3
  41250d:	cc                   	int3
  41250e:	cc                   	int3
  41250f:	cc                   	int3
  412510:	cc                   	int3
  412511:	cc                   	int3
  412512:	cc                   	int3
  412513:	cc                   	int3
  412514:	cc                   	int3
  412515:	cc                   	int3
  412516:	cc                   	int3
  412517:	cc                   	int3
  412518:	cc                   	int3
  412519:	cc                   	int3
  41251a:	cc                   	int3
  41251b:	cc                   	int3
  41251c:	cc                   	int3
  41251d:	cc                   	int3
  41251e:	cc                   	int3
  41251f:	cc                   	int3
  412520:	55                   	push   %ebp
  412521:	8b ec                	mov    %esp,%ebp
  412523:	81 ec dc 00 00 00    	sub    $0xdc,%esp
  412529:	53                   	push   %ebx
  41252a:	56                   	push   %esi
  41252b:	57                   	push   %edi
  41252c:	51                   	push   %ecx
  41252d:	8d 7d e4             	lea    -0x1c(%ebp),%edi
  412530:	b9 07 00 00 00       	mov    $0x7,%ecx
  412535:	b8 cc cc cc cc       	mov    $0xcccccccc,%eax
  41253a:	f3 ab                	rep stos %eax,%es:(%edi)
  41253c:	59                   	pop    %ecx
  41253d:	89 4d f8             	mov    %ecx,-0x8(%ebp)
  412540:	b9 64 00 42 00       	mov    $0x420064,%ecx
  412545:	e8 80 ee ff ff       	call   0x4113ca
  41254a:	8b 45 f8             	mov    -0x8(%ebp),%eax
  41254d:	8b 4d 08             	mov    0x8(%ebp),%ecx
  412550:	89 08                	mov    %ecx,(%eax)
  412552:	8b 45 f8             	mov    -0x8(%ebp),%eax
  412555:	8b 08                	mov    (%eax),%ecx
  412557:	89 8d 24 ff ff ff    	mov    %ecx,-0xdc(%ebp)
  41255d:	8b 95 24 ff ff ff    	mov    -0xdc(%ebp),%edx
  412563:	8b 02                	mov    (%edx),%eax
  412565:	8b 8d 24 ff ff ff    	mov    -0xdc(%ebp),%ecx
  41256b:	03 48 04             	add    0x4(%eax),%ecx
  41256e:	8b f4                	mov    %esp,%esi
  412570:	ff 15 e0 e0 41 00    	call   *0x41e0e0
  412576:	3b f4                	cmp    %esp,%esi
  412578:	e8 4e ed ff ff       	call   0x4112cb
  41257d:	89 45 ec             	mov    %eax,-0x14(%ebp)
  412580:	83 7d ec 00          	cmpl   $0x0,-0x14(%ebp)
  412584:	74 16                	je     0x41259c
  412586:	8b 45 ec             	mov    -0x14(%ebp),%eax
  412589:	8b 10                	mov    (%eax),%edx
  41258b:	8b f4                	mov    %esp,%esi
  41258d:	8b 4d ec             	mov    -0x14(%ebp),%ecx
  412590:	8b 42 04             	mov    0x4(%edx),%eax
  412593:	ff d0                	call   *%eax
  412595:	3b f4                	cmp    %esp,%esi
  412597:	e8 2f ed ff ff       	call   0x4112cb
  41259c:	8b 45 f8             	mov    -0x8(%ebp),%eax
  41259f:	5f                   	pop    %edi
  4125a0:	5e                   	pop    %esi
  4125a1:	5b                   	pop    %ebx
  4125a2:	81 c4 dc 00 00 00    	add    $0xdc,%esp
  4125a8:	3b ec                	cmp    %esp,%ebp
  4125aa:	e8 1c ed ff ff       	call   0x4112cb
  4125af:	8b e5                	mov    %ebp,%esp
  4125b1:	5d                   	pop    %ebp
  4125b2:	c2 04 00             	ret    $0x4
  4125b5:	cc                   	int3
  4125b6:	cc                   	int3
  4125b7:	cc                   	int3
  4125b8:	cc                   	int3
  4125b9:	cc                   	int3
  4125ba:	cc                   	int3
  4125bb:	cc                   	int3
  4125bc:	cc                   	int3
  4125bd:	cc                   	int3
  4125be:	cc                   	int3
  4125bf:	cc                   	int3
  4125c0:	cc                   	int3
  4125c1:	cc                   	int3
  4125c2:	cc                   	int3
  4125c3:	cc                   	int3
  4125c4:	cc                   	int3
  4125c5:	cc                   	int3
  4125c6:	cc                   	int3
  4125c7:	cc                   	int3
  4125c8:	cc                   	int3
  4125c9:	cc                   	int3
  4125ca:	cc                   	int3
  4125cb:	cc                   	int3
  4125cc:	cc                   	int3
  4125cd:	cc                   	int3
  4125ce:	cc                   	int3
  4125cf:	cc                   	int3
  4125d0:	cc                   	int3
  4125d1:	cc                   	int3
  4125d2:	cc                   	int3
  4125d3:	cc                   	int3
  4125d4:	cc                   	int3
  4125d5:	cc                   	int3
  4125d6:	cc                   	int3
  4125d7:	cc                   	int3
  4125d8:	cc                   	int3
  4125d9:	cc                   	int3
  4125da:	cc                   	int3
  4125db:	cc                   	int3
  4125dc:	cc                   	int3
  4125dd:	cc                   	int3
  4125de:	cc                   	int3
  4125df:	cc                   	int3
  4125e0:	55                   	push   %ebp
  4125e1:	8b ec                	mov    %esp,%ebp
  4125e3:	6a ff                	push   $0xffffffff
  4125e5:	68 bd 8a 41 00       	push   $0x418abd
  4125ea:	64 a1 00 00 00 00    	mov    %fs:0x0,%eax
  4125f0:	50                   	push   %eax
  4125f1:	81 ec d8 00 00 00    	sub    $0xd8,%esp
  4125f7:	53                   	push   %ebx
  4125f8:	56                   	push   %esi
  4125f9:	57                   	push   %edi
  4125fa:	51                   	push   %ecx
  4125fb:	8d 7d dc             	lea    -0x24(%ebp),%edi
  4125fe:	b9 06 00 00 00       	mov    $0x6,%ecx
  412603:	b8 cc cc cc cc       	mov    $0xcccccccc,%eax
  412608:	f3 ab                	rep stos %eax,%es:(%edi)
  41260a:	59                   	pop    %ecx
  41260b:	a1 00 d0 41 00       	mov    0x41d000,%eax
  412610:	33 c5                	xor    %ebp,%eax
  412612:	50                   	push   %eax
  412613:	8d 45 f4             	lea    -0xc(%ebp),%eax
  412616:	64 a3 00 00 00 00    	mov    %eax,%fs:0x0
  41261c:	89 4d ec             	mov    %ecx,-0x14(%ebp)
  41261f:	b9 64 00 42 00       	mov    $0x420064,%ecx
  412624:	e8 a1 ed ff ff       	call   0x4113ca
  412629:	8b 45 08             	mov    0x8(%ebp),%eax
  41262c:	50                   	push   %eax
  41262d:	8b 4d ec             	mov    -0x14(%ebp),%ecx
  412630:	e8 ab eb ff ff       	call   0x4111e0
  412635:	c7 45 fc 00 00 00 00 	movl   $0x0,-0x4(%ebp)
  41263c:	8b 45 08             	mov    0x8(%ebp),%eax
  41263f:	8b 08                	mov    (%eax),%ecx
  412641:	8b 55 08             	mov    0x8(%ebp),%edx
  412644:	03 51 04             	add    0x4(%ecx),%edx
  412647:	8b f4                	mov    %esp,%esi
  412649:	8b ca                	mov    %edx,%ecx
  41264b:	ff 15 c0 e0 41 00    	call   *0x41e0c0
  412651:	3b f4                	cmp    %esp,%esi
  412653:	e8 73 ec ff ff       	call   0x4112cb
  412658:	0f b6 c0             	movzbl %al,%eax
  41265b:	85 c0                	test   %eax,%eax
  41265d:	75 09                	jne    0x412668
  41265f:	8b 45 ec             	mov    -0x14(%ebp),%eax
  412662:	c6 40 04 00          	movb   $0x0,0x4(%eax)
  412666:	eb 6a                	jmp    0x4126d2
  412668:	8b 45 08             	mov    0x8(%ebp),%eax
  41266b:	8b 08                	mov    (%eax),%ecx
  41266d:	8b 55 08             	mov    0x8(%ebp),%edx
  412670:	03 51 04             	add    0x4(%ecx),%edx
  412673:	8b f4                	mov    %esp,%esi
  412675:	8b ca                	mov    %edx,%ecx
  412677:	ff 15 dc e0 41 00    	call   *0x41e0dc
  41267d:	3b f4                	cmp    %esp,%esi
  41267f:	e8 47 ec ff ff       	call   0x4112cb
  412684:	89 45 e0             	mov    %eax,-0x20(%ebp)
  412687:	83 7d e0 00          	cmpl   $0x0,-0x20(%ebp)
  41268b:	74 08                	je     0x412695
  41268d:	8b 45 e0             	mov    -0x20(%ebp),%eax
  412690:	3b 45 08             	cmp    0x8(%ebp),%eax
  412693:	75 09                	jne    0x41269e
  412695:	8b 45 ec             	mov    -0x14(%ebp),%eax
  412698:	c6 40 04 01          	movb   $0x1,0x4(%eax)
  41269c:	eb 34                	jmp    0x4126d2
  41269e:	8b f4                	mov    %esp,%esi
  4126a0:	8b 4d e0             	mov    -0x20(%ebp),%ecx
  4126a3:	ff 15 b4 e0 41 00    	call   *0x41e0b4
  4126a9:	3b f4                	cmp    %esp,%esi
  4126ab:	e8 1b ec ff ff       	call   0x4112cb
  4126b0:	8b 45 08             	mov    0x8(%ebp),%eax
  4126b3:	8b 08                	mov    (%eax),%ecx
  4126b5:	8b 55 08             	mov    0x8(%ebp),%edx
  4126b8:	03 51 04             	add    0x4(%ecx),%edx
  4126bb:	8b f4                	mov    %esp,%esi
  4126bd:	8b ca                	mov    %edx,%ecx
  4126bf:	ff 15 c0 e0 41 00    	call   *0x41e0c0
  4126c5:	3b f4                	cmp    %esp,%esi
  4126c7:	e8 ff eb ff ff       	call   0x4112cb
  4126cc:	8b 4d ec             	mov    -0x14(%ebp),%ecx
  4126cf:	88 41 04             	mov    %al,0x4(%ecx)
  4126d2:	c7 45 fc ff ff ff ff 	movl   $0xffffffff,-0x4(%ebp)
  4126d9:	8b 45 ec             	mov    -0x14(%ebp),%eax
  4126dc:	8b 4d f4             	mov    -0xc(%ebp),%ecx
  4126df:	64 89 0d 00 00 00 00 	mov    %ecx,%fs:0x0
  4126e6:	59                   	pop    %ecx
  4126e7:	5f                   	pop    %edi
  4126e8:	5e                   	pop    %esi
  4126e9:	5b                   	pop    %ebx
  4126ea:	81 c4 e4 00 00 00    	add    $0xe4,%esp
  4126f0:	3b ec                	cmp    %esp,%ebp
  4126f2:	e8 d4 eb ff ff       	call   0x4112cb
  4126f7:	8b e5                	mov    %ebp,%esp
  4126f9:	5d                   	pop    %ebp
  4126fa:	c2 04 00             	ret    $0x4
  4126fd:	cc                   	int3
  4126fe:	cc                   	int3
  4126ff:	cc                   	int3
  412700:	cc                   	int3
  412701:	cc                   	int3
  412702:	cc                   	int3
  412703:	cc                   	int3
  412704:	cc                   	int3
  412705:	cc                   	int3
  412706:	cc                   	int3
  412707:	cc                   	int3
  412708:	cc                   	int3
  412709:	cc                   	int3
  41270a:	cc                   	int3
  41270b:	cc                   	int3
  41270c:	cc                   	int3
  41270d:	cc                   	int3
  41270e:	cc                   	int3
  41270f:	cc                   	int3
  412710:	cc                   	int3
  412711:	cc                   	int3
  412712:	cc                   	int3
  412713:	cc                   	int3
  412714:	cc                   	int3
  412715:	cc                   	int3
  412716:	cc                   	int3
  412717:	cc                   	int3
  412718:	cc                   	int3
  412719:	cc                   	int3
  41271a:	cc                   	int3
  41271b:	cc                   	int3
  41271c:	cc                   	int3
  41271d:	cc                   	int3
  41271e:	cc                   	int3
  41271f:	cc                   	int3
  412720:	cc                   	int3
  412721:	cc                   	int3
  412722:	cc                   	int3
  412723:	cc                   	int3
  412724:	cc                   	int3
  412725:	cc                   	int3
  412726:	cc                   	int3
  412727:	cc                   	int3
  412728:	cc                   	int3
  412729:	cc                   	int3
  41272a:	cc                   	int3
  41272b:	cc                   	int3
  41272c:	cc                   	int3
  41272d:	cc                   	int3
  41272e:	cc                   	int3
  41272f:	cc                   	int3
  412730:	cc                   	int3
  412731:	cc                   	int3
  412732:	cc                   	int3
  412733:	cc                   	int3
  412734:	cc                   	int3
  412735:	cc                   	int3
  412736:	cc                   	int3
  412737:	cc                   	int3
  412738:	cc                   	int3
  412739:	cc                   	int3
  41273a:	cc                   	int3
  41273b:	cc                   	int3
  41273c:	cc                   	int3
  41273d:	cc                   	int3
  41273e:	cc                   	int3
  41273f:	cc                   	int3
  412740:	cc                   	int3
  412741:	cc                   	int3
  412742:	cc                   	int3
  412743:	cc                   	int3
  412744:	cc                   	int3
  412745:	cc                   	int3
  412746:	cc                   	int3
  412747:	cc                   	int3
  412748:	cc                   	int3
  412749:	cc                   	int3
  41274a:	cc                   	int3
  41274b:	cc                   	int3
  41274c:	cc                   	int3
  41274d:	cc                   	int3
  41274e:	cc                   	int3
  41274f:	cc                   	int3
  412750:	55                   	push   %ebp
  412751:	8b ec                	mov    %esp,%ebp
  412753:	6a ff                	push   $0xffffffff
  412755:	68 f0 8a 41 00       	push   $0x418af0
  41275a:	64 a1 00 00 00 00    	mov    %fs:0x0,%eax
  412760:	50                   	push   %eax
  412761:	81 ec dc 00 00 00    	sub    $0xdc,%esp
  412767:	53                   	push   %ebx
  412768:	56                   	push   %esi
  412769:	57                   	push   %edi
  41276a:	51                   	push   %ecx
  41276b:	8d 7d d8             	lea    -0x28(%ebp),%edi
  41276e:	b9 07 00 00 00       	mov    $0x7,%ecx
  412773:	b8 cc cc cc cc       	mov    $0xcccccccc,%eax
  412778:	f3 ab                	rep stos %eax,%es:(%edi)
  41277a:	59                   	pop    %ecx
  41277b:	a1 00 d0 41 00       	mov    0x41d000,%eax
  412780:	33 c5                	xor    %ebp,%eax
  412782:	50                   	push   %eax
  412783:	8d 45 f4             	lea    -0xc(%ebp),%eax
  412786:	64 a3 00 00 00 00    	mov    %eax,%fs:0x0
  41278c:	89 4d ec             	mov    %ecx,-0x14(%ebp)
  41278f:	b9 64 00 42 00       	mov    $0x420064,%ecx
  412794:	e8 31 ec ff ff       	call   0x4113ca
  412799:	8b 45 ec             	mov    -0x14(%ebp),%eax
  41279c:	8b 08                	mov    (%eax),%ecx
  41279e:	89 8d 18 ff ff ff    	mov    %ecx,-0xe8(%ebp)
  4127a4:	8b 95 18 ff ff ff    	mov    -0xe8(%ebp),%edx
  4127aa:	8b 02                	mov    (%edx),%eax
  4127ac:	8b 8d 18 ff ff ff    	mov    -0xe8(%ebp),%ecx
  4127b2:	03 48 04             	add    0x4(%eax),%ecx
  4127b5:	8b f4                	mov    %esp,%esi
  4127b7:	ff 15 e0 e0 41 00    	call   *0x41e0e0
  4127bd:	3b f4                	cmp    %esp,%esi
  4127bf:	e8 07 eb ff ff       	call   0x4112cb
  4127c4:	89 45 e0             	mov    %eax,-0x20(%ebp)
  4127c7:	83 7d e0 00          	cmpl   $0x0,-0x20(%ebp)
  4127cb:	74 16                	je     0x4127e3
  4127cd:	8b 45 e0             	mov    -0x20(%ebp),%eax
  4127d0:	8b 10                	mov    (%eax),%edx
  4127d2:	8b f4                	mov    %esp,%esi
  4127d4:	8b 4d e0             	mov    -0x20(%ebp),%ecx
  4127d7:	8b 42 08             	mov    0x8(%edx),%eax
  4127da:	ff d0                	call   *%eax
  4127dc:	3b f4                	cmp    %esp,%esi
  4127de:	e8 e8 ea ff ff       	call   0x4112cb
  4127e3:	8b 4d f4             	mov    -0xc(%ebp),%ecx
  4127e6:	64 89 0d 00 00 00 00 	mov    %ecx,%fs:0x0
  4127ed:	59                   	pop    %ecx
  4127ee:	5f                   	pop    %edi
  4127ef:	5e                   	pop    %esi
  4127f0:	5b                   	pop    %ebx
  4127f1:	81 c4 e8 00 00 00    	add    $0xe8,%esp
  4127f7:	3b ec                	cmp    %esp,%ebp
  4127f9:	e8 cd ea ff ff       	call   0x4112cb
  4127fe:	8b e5                	mov    %ebp,%esp
  412800:	5d                   	pop    %ebp
  412801:	c3                   	ret
  412802:	cc                   	int3
  412803:	cc                   	int3
  412804:	cc                   	int3
  412805:	cc                   	int3
  412806:	cc                   	int3
  412807:	cc                   	int3
  412808:	cc                   	int3
  412809:	cc                   	int3
  41280a:	cc                   	int3
  41280b:	cc                   	int3
  41280c:	cc                   	int3
  41280d:	cc                   	int3
  41280e:	cc                   	int3
  41280f:	cc                   	int3
  412810:	cc                   	int3
  412811:	cc                   	int3
  412812:	cc                   	int3
  412813:	cc                   	int3
  412814:	cc                   	int3
  412815:	cc                   	int3
  412816:	cc                   	int3
  412817:	cc                   	int3
  412818:	cc                   	int3
  412819:	cc                   	int3
  41281a:	cc                   	int3
  41281b:	cc                   	int3
  41281c:	cc                   	int3
  41281d:	cc                   	int3
  41281e:	cc                   	int3
  41281f:	cc                   	int3
  412820:	cc                   	int3
  412821:	cc                   	int3
  412822:	cc                   	int3
  412823:	cc                   	int3
  412824:	cc                   	int3
  412825:	cc                   	int3
  412826:	cc                   	int3
  412827:	cc                   	int3
  412828:	cc                   	int3
  412829:	cc                   	int3
  41282a:	cc                   	int3
  41282b:	cc                   	int3
  41282c:	cc                   	int3
  41282d:	cc                   	int3
  41282e:	cc                   	int3
  41282f:	cc                   	int3
  412830:	cc                   	int3
  412831:	cc                   	int3
  412832:	cc                   	int3
  412833:	cc                   	int3
  412834:	cc                   	int3
  412835:	cc                   	int3
  412836:	cc                   	int3
  412837:	cc                   	int3
  412838:	cc                   	int3
  412839:	cc                   	int3
  41283a:	cc                   	int3
  41283b:	cc                   	int3
  41283c:	cc                   	int3
  41283d:	cc                   	int3
  41283e:	cc                   	int3
  41283f:	cc                   	int3
  412840:	55                   	push   %ebp
  412841:	8b ec                	mov    %esp,%ebp
  412843:	6a ff                	push   $0xffffffff
  412845:	68 20 8b 41 00       	push   $0x418b20
  41284a:	64 a1 00 00 00 00    	mov    %fs:0x0,%eax
  412850:	50                   	push   %eax
  412851:	81 ec dc 00 00 00    	sub    $0xdc,%esp
  412857:	53                   	push   %ebx
  412858:	56                   	push   %esi
  412859:	57                   	push   %edi
  41285a:	51                   	push   %ecx
  41285b:	8d 7d d8             	lea    -0x28(%ebp),%edi
  41285e:	b9 07 00 00 00       	mov    $0x7,%ecx
  412863:	b8 cc cc cc cc       	mov    $0xcccccccc,%eax
  412868:	f3 ab                	rep stos %eax,%es:(%edi)
  41286a:	59                   	pop    %ecx
  41286b:	a1 00 d0 41 00       	mov    0x41d000,%eax
  412870:	33 c5                	xor    %ebp,%eax
  412872:	50                   	push   %eax
  412873:	8d 45 f4             	lea    -0xc(%ebp),%eax
  412876:	64 a3 00 00 00 00    	mov    %eax,%fs:0x0
  41287c:	89 4d ec             	mov    %ecx,-0x14(%ebp)
  41287f:	b9 64 00 42 00       	mov    $0x420064,%ecx
  412884:	e8 41 eb ff ff       	call   0x4113ca
  412889:	e8 58 e8 ff ff       	call   0x4110e6
  41288e:	0f b6 c0             	movzbl %al,%eax
  412891:	85 c0                	test   %eax,%eax
  412893:	75 09                	jne    0x41289e
  412895:	c6 85 1b ff ff ff 01 	movb   $0x1,-0xe5(%ebp)
  41289c:	eb 07                	jmp    0x4128a5
  41289e:	c6 85 1b ff ff ff 00 	movb   $0x0,-0xe5(%ebp)
  4128a5:	8a 8d 1b ff ff ff    	mov    -0xe5(%ebp),%cl
  4128ab:	88 4d e3             	mov    %cl,-0x1d(%ebp)
  4128ae:	0f b6 45 e3          	movzbl -0x1d(%ebp),%eax
  4128b2:	85 c0                	test   %eax,%eax
  4128b4:	74 14                	je     0x4128ca
  4128b6:	8b f4                	mov    %esp,%esi
  4128b8:	8b 45 ec             	mov    -0x14(%ebp),%eax
  4128bb:	8b 08                	mov    (%eax),%ecx
  4128bd:	ff 15 ec e0 41 00    	call   *0x41e0ec
  4128c3:	3b f4                	cmp    %esp,%esi
  4128c5:	e8 01 ea ff ff       	call   0x4112cb
  4128ca:	8b 4d ec             	mov    -0x14(%ebp),%ecx
  4128cd:	e8 25 eb ff ff       	call   0x4113f7
  4128d2:	8b 4d f4             	mov    -0xc(%ebp),%ecx
  4128d5:	64 89 0d 00 00 00 00 	mov    %ecx,%fs:0x0
  4128dc:	59                   	pop    %ecx
  4128dd:	5f                   	pop    %edi
  4128de:	5e                   	pop    %esi
  4128df:	5b                   	pop    %ebx
  4128e0:	81 c4 e8 00 00 00    	add    $0xe8,%esp
  4128e6:	3b ec                	cmp    %esp,%ebp
  4128e8:	e8 de e9 ff ff       	call   0x4112cb
  4128ed:	8b e5                	mov    %ebp,%esp
  4128ef:	5d                   	pop    %ebp
  4128f0:	c3                   	ret
  4128f1:	cc                   	int3
  4128f2:	cc                   	int3
  4128f3:	cc                   	int3
  4128f4:	cc                   	int3
  4128f5:	cc                   	int3
  4128f6:	cc                   	int3
  4128f7:	cc                   	int3
  4128f8:	cc                   	int3
  4128f9:	cc                   	int3
  4128fa:	cc                   	int3
  4128fb:	cc                   	int3
  4128fc:	cc                   	int3
  4128fd:	cc                   	int3
  4128fe:	cc                   	int3
  4128ff:	cc                   	int3
  412900:	cc                   	int3
  412901:	cc                   	int3
  412902:	cc                   	int3
  412903:	cc                   	int3
  412904:	cc                   	int3
  412905:	cc                   	int3
  412906:	cc                   	int3
  412907:	cc                   	int3
  412908:	cc                   	int3
  412909:	cc                   	int3
  41290a:	cc                   	int3
  41290b:	cc                   	int3
  41290c:	cc                   	int3
  41290d:	cc                   	int3
  41290e:	cc                   	int3
  41290f:	cc                   	int3
  412910:	cc                   	int3
  412911:	cc                   	int3
  412912:	cc                   	int3
  412913:	cc                   	int3
  412914:	cc                   	int3
  412915:	cc                   	int3
  412916:	cc                   	int3
  412917:	cc                   	int3
  412918:	cc                   	int3
  412919:	cc                   	int3
  41291a:	cc                   	int3
  41291b:	cc                   	int3
  41291c:	cc                   	int3
  41291d:	cc                   	int3
  41291e:	cc                   	int3
  41291f:	cc                   	int3
  412920:	cc                   	int3
  412921:	cc                   	int3
  412922:	cc                   	int3
  412923:	cc                   	int3
  412924:	cc                   	int3
  412925:	cc                   	int3
  412926:	cc                   	int3
  412927:	cc                   	int3
  412928:	cc                   	int3
  412929:	cc                   	int3
  41292a:	cc                   	int3
  41292b:	cc                   	int3
  41292c:	cc                   	int3
  41292d:	cc                   	int3
  41292e:	cc                   	int3
  41292f:	cc                   	int3
  412930:	55                   	push   %ebp
  412931:	8b ec                	mov    %esp,%ebp
  412933:	81 ec cc 00 00 00    	sub    $0xcc,%esp
  412939:	53                   	push   %ebx
  41293a:	56                   	push   %esi
  41293b:	57                   	push   %edi
  41293c:	51                   	push   %ecx
  41293d:	8d 7d f4             	lea    -0xc(%ebp),%edi
  412940:	b9 03 00 00 00       	mov    $0x3,%ecx
  412945:	b8 cc cc cc cc       	mov    $0xcccccccc,%eax
  41294a:	f3 ab                	rep stos %eax,%es:(%edi)
  41294c:	59                   	pop    %ecx
  41294d:	89 4d f8             	mov    %ecx,-0x8(%ebp)
  412950:	b9 64 00 42 00       	mov    $0x420064,%ecx
  412955:	e8 70 ea ff ff       	call   0x4113ca
  41295a:	8b 45 f8             	mov    -0x8(%ebp),%eax
  41295d:	0f b6 40 04          	movzbl 0x4(%eax),%eax
  412961:	5f                   	pop    %edi
  412962:	5e                   	pop    %esi
  412963:	5b                   	pop    %ebx
  412964:	81 c4 cc 00 00 00    	add    $0xcc,%esp
  41296a:	3b ec                	cmp    %esp,%ebp
  41296c:	e8 5a e9 ff ff       	call   0x4112cb
  412971:	8b e5                	mov    %ebp,%esp
  412973:	5d                   	pop    %ebp
  412974:	c3                   	ret
  412975:	cc                   	int3
  412976:	cc                   	int3
  412977:	cc                   	int3
  412978:	cc                   	int3
  412979:	cc                   	int3
  41297a:	cc                   	int3
  41297b:	cc                   	int3
  41297c:	cc                   	int3
  41297d:	cc                   	int3
  41297e:	cc                   	int3
  41297f:	cc                   	int3
  412980:	cc                   	int3
  412981:	cc                   	int3
  412982:	cc                   	int3
  412983:	cc                   	int3
  412984:	cc                   	int3
  412985:	cc                   	int3
  412986:	cc                   	int3
  412987:	cc                   	int3
  412988:	cc                   	int3
  412989:	cc                   	int3
  41298a:	cc                   	int3
  41298b:	cc                   	int3
  41298c:	cc                   	int3
  41298d:	cc                   	int3
  41298e:	cc                   	int3
  41298f:	cc                   	int3
  412990:	55                   	push   %ebp
  412991:	8b ec                	mov    %esp,%ebp
  412993:	81 ec c0 00 00 00    	sub    $0xc0,%esp
  412999:	53                   	push   %ebx
  41299a:	56                   	push   %esi
  41299b:	57                   	push   %edi
  41299c:	8b fd                	mov    %ebp,%edi
  41299e:	33 c9                	xor    %ecx,%ecx
  4129a0:	b8 cc cc cc cc       	mov    $0xcccccccc,%eax
  4129a5:	f3 ab                	rep stos %eax,%es:(%edi)
  4129a7:	b9 f4 00 42 00       	mov    $0x4200f4,%ecx
  4129ac:	e8 19 ea ff ff       	call   0x4113ca
  4129b1:	5f                   	pop    %edi
  4129b2:	5e                   	pop    %esi
  4129b3:	5b                   	pop    %ebx
  4129b4:	81 c4 c0 00 00 00    	add    $0xc0,%esp
  4129ba:	3b ec                	cmp    %esp,%ebp
  4129bc:	e8 0a e9 ff ff       	call   0x4112cb
  4129c1:	8b e5                	mov    %ebp,%esp
  4129c3:	5d                   	pop    %ebp
  4129c4:	c3                   	ret
  4129c5:	cc                   	int3
  4129c6:	cc                   	int3
  4129c7:	cc                   	int3
  4129c8:	cc                   	int3
  4129c9:	cc                   	int3
  4129ca:	cc                   	int3
  4129cb:	cc                   	int3
  4129cc:	cc                   	int3
  4129cd:	cc                   	int3
  4129ce:	cc                   	int3
  4129cf:	cc                   	int3
  4129d0:	cc                   	int3
  4129d1:	cc                   	int3
  4129d2:	cc                   	int3
  4129d3:	cc                   	int3
  4129d4:	cc                   	int3
  4129d5:	cc                   	int3
  4129d6:	cc                   	int3
  4129d7:	cc                   	int3
  4129d8:	cc                   	int3
  4129d9:	cc                   	int3
  4129da:	cc                   	int3
  4129db:	cc                   	int3
  4129dc:	cc                   	int3
  4129dd:	cc                   	int3
  4129de:	cc                   	int3
  4129df:	cc                   	int3
  4129e0:	55                   	push   %ebp
  4129e1:	8b ec                	mov    %esp,%ebp
  4129e3:	81 ec c0 00 00 00    	sub    $0xc0,%esp
  4129e9:	53                   	push   %ebx
  4129ea:	56                   	push   %esi
  4129eb:	57                   	push   %edi
  4129ec:	8b fd                	mov    %ebp,%edi
  4129ee:	33 c9                	xor    %ecx,%ecx
  4129f0:	b8 cc cc cc cc       	mov    $0xcccccccc,%eax
  4129f5:	f3 ab                	rep stos %eax,%es:(%edi)
  4129f7:	b9 f4 00 42 00       	mov    $0x4200f4,%ecx
  4129fc:	e8 c9 e9 ff ff       	call   0x4113ca
  412a01:	5f                   	pop    %edi
  412a02:	5e                   	pop    %esi
  412a03:	5b                   	pop    %ebx
  412a04:	81 c4 c0 00 00 00    	add    $0xc0,%esp
  412a0a:	3b ec                	cmp    %esp,%ebp
  412a0c:	e8 ba e8 ff ff       	call   0x4112cb
  412a11:	8b e5                	mov    %ebp,%esp
  412a13:	5d                   	pop    %ebp
  412a14:	c3                   	ret
  412a15:	cc                   	int3
  412a16:	cc                   	int3
  412a17:	cc                   	int3
  412a18:	cc                   	int3
  412a19:	cc                   	int3
  412a1a:	cc                   	int3
  412a1b:	cc                   	int3
  412a1c:	cc                   	int3
  412a1d:	cc                   	int3
  412a1e:	cc                   	int3
  412a1f:	cc                   	int3
  412a20:	cc                   	int3
  412a21:	cc                   	int3
  412a22:	cc                   	int3
  412a23:	cc                   	int3
  412a24:	cc                   	int3
  412a25:	cc                   	int3
  412a26:	cc                   	int3
  412a27:	cc                   	int3
  412a28:	cc                   	int3
  412a29:	cc                   	int3
  412a2a:	cc                   	int3
  412a2b:	cc                   	int3
  412a2c:	cc                   	int3
  412a2d:	cc                   	int3
  412a2e:	cc                   	int3
  412a2f:	cc                   	int3
  412a30:	55                   	push   %ebp
  412a31:	8b ec                	mov    %esp,%ebp
  412a33:	81 ec fc 00 00 00    	sub    $0xfc,%esp
  412a39:	53                   	push   %ebx
  412a3a:	56                   	push   %esi
  412a3b:	57                   	push   %edi
  412a3c:	8d 7d c4             	lea    -0x3c(%ebp),%edi
  412a3f:	b9 0f 00 00 00       	mov    $0xf,%ecx
  412a44:	b8 cc cc cc cc       	mov    $0xcccccccc,%eax
  412a49:	f3 ab                	rep stos %eax,%es:(%edi)
  412a4b:	a1 00 d0 41 00       	mov    0x41d000,%eax
  412a50:	33 c5                	xor    %ebp,%eax
  412a52:	89 45 fc             	mov    %eax,-0x4(%ebp)
  412a55:	b9 f4 00 42 00       	mov    $0x4200f4,%ecx
  412a5a:	e8 6b e9 ff ff       	call   0x4113ca
  412a5f:	33 c0                	xor    %eax,%eax
  412a61:	66 89 45 f4          	mov    %ax,-0xc(%ebp)
  412a65:	33 c0                	xor    %eax,%eax
  412a67:	66 89 45 f6          	mov    %ax,-0xa(%ebp)
  412a6b:	8b f4                	mov    %esp,%esi
  412a6d:	8d 45 d4             	lea    -0x2c(%ebp),%eax
  412a70:	50                   	push   %eax
  412a71:	8b 4d 08             	mov    0x8(%ebp),%ecx
  412a74:	51                   	push   %ecx
  412a75:	ff 15 0c e0 41 00    	call   *0x41e00c
  412a7b:	3b f4                	cmp    %esp,%esi
  412a7d:	e8 49 e8 ff ff       	call   0x4112cb
  412a82:	8b f4                	mov    %esp,%esi
  412a84:	8d 45 c8             	lea    -0x38(%ebp),%eax
  412a87:	50                   	push   %eax
  412a88:	8b 4d f4             	mov    -0xc(%ebp),%ecx
  412a8b:	51                   	push   %ecx
  412a8c:	0f bf 55 d4          	movswl -0x2c(%ebp),%edx
  412a90:	0f bf 45 d6          	movswl -0x2a(%ebp),%eax
  412a94:	0f af d0             	imul   %eax,%edx
  412a97:	52                   	push   %edx
  412a98:	6a 20                	push   $0x20
  412a9a:	8b 4d 08             	mov    0x8(%ebp),%ecx
  412a9d:	51                   	push   %ecx
  412a9e:	ff 15 04 e0 41 00    	call   *0x41e004
  412aa4:	3b f4                	cmp    %esp,%esi
  412aa6:	e8 20 e8 ff ff       	call   0x4112cb
  412aab:	8b f4                	mov    %esp,%esi
  412aad:	8d 45 c8             	lea    -0x38(%ebp),%eax
  412ab0:	50                   	push   %eax
  412ab1:	8b 4d f4             	mov    -0xc(%ebp),%ecx
  412ab4:	51                   	push   %ecx
  412ab5:	0f bf 55 d4          	movswl -0x2c(%ebp),%edx
  412ab9:	0f bf 45 d6          	movswl -0x2a(%ebp),%eax
  412abd:	0f af d0             	imul   %eax,%edx
  412ac0:	52                   	push   %edx
  412ac1:	0f b7 4d dc          	movzwl -0x24(%ebp),%ecx
  412ac5:	51                   	push   %ecx
  412ac6:	8b 55 08             	mov    0x8(%ebp),%edx
  412ac9:	52                   	push   %edx
  412aca:	ff 15 08 e0 41 00    	call   *0x41e008
  412ad0:	3b f4                	cmp    %esp,%esi
  412ad2:	e8 f4 e7 ff ff       	call   0x4112cb
  412ad7:	8b f4                	mov    %esp,%esi
  412ad9:	8b 45 f4             	mov    -0xc(%ebp),%eax
  412adc:	50                   	push   %eax
  412add:	8b 4d 08             	mov    0x8(%ebp),%ecx
  412ae0:	51                   	push   %ecx
  412ae1:	ff 15 10 e0 41 00    	call   *0x41e010
  412ae7:	3b f4                	cmp    %esp,%esi
  412ae9:	e8 dd e7 ff ff       	call   0x4112cb
  412aee:	52                   	push   %edx
  412aef:	8b cd                	mov    %ebp,%ecx
  412af1:	50                   	push   %eax
  412af2:	8d 15 20 2b 41 00    	lea    0x412b20,%edx
  412af8:	e8 60 e7 ff ff       	call   0x41125d
  412afd:	58                   	pop    %eax
  412afe:	5a                   	pop    %edx
  412aff:	5f                   	pop    %edi
  412b00:	5e                   	pop    %esi
  412b01:	5b                   	pop    %ebx
  412b02:	8b 4d fc             	mov    -0x4(%ebp),%ecx
  412b05:	33 cd                	xor    %ebp,%ecx
  412b07:	e8 98 e6 ff ff       	call   0x4111a4
  412b0c:	81 c4 fc 00 00 00    	add    $0xfc,%esp
  412b12:	3b ec                	cmp    %esp,%ebp
  412b14:	e8 b2 e7 ff ff       	call   0x4112cb
  412b19:	8b e5                	mov    %ebp,%esp
  412b1b:	5d                   	pop    %ebp
  412b1c:	c3                   	ret
  412b1d:	0f 1f 00             	nopl   (%eax)
  412b20:	03 00                	add    (%eax),%eax
  412b22:	00 00                	add    %al,(%eax)
  412b24:	28 2b                	sub    %ch,(%ebx)
  412b26:	41                   	inc    %ecx
  412b27:	00 f4                	add    %dh,%ah
  412b29:	ff                   	(bad)
  412b2a:	ff                   	(bad)
  412b2b:	ff 04 00             	incl   (%eax,%eax,1)
  412b2e:	00 00                	add    %al,(%eax)
  412b30:	56                   	push   %esi
  412b31:	2b 41 00             	sub    0x0(%ecx),%eax
  412b34:	d4 ff                	aam    $0xff
  412b36:	ff                   	(bad)
  412b37:	ff 16                	call   *(%esi)
  412b39:	00 00                	add    %al,(%eax)
  412b3b:	00 50 2b             	add    %dl,0x2b(%eax)
  412b3e:	41                   	inc    %ecx
  412b3f:	00 c8                	add    %cl,%al
  412b41:	ff                   	(bad)
  412b42:	ff                   	(bad)
  412b43:	ff 04 00             	incl   (%eax,%eax,1)
  412b46:	00 00                	add    %al,(%eax)
  412b48:	4c                   	dec    %esp
  412b49:	2b 41 00             	sub    0x0(%ecx),%eax
  412b4c:	6e                   	outsb  %ds:(%esi),(%dx)
  412b4d:	75 6d                	jne    0x412bbc
  412b4f:	00 62 69             	add    %ah,0x69(%edx)
  412b52:	6e                   	outsb  %ds:(%esi),(%dx)
  412b53:	66 6f                	outsw  %ds:(%esi),(%dx)
  412b55:	00 63 6f             	add    %ah,0x6f(%ebx)
  412b58:	6f                   	outsl  %ds:(%esi),(%dx)
  412b59:	72 64                	jb     0x412bbf
  412b5b:	00 cc                	add    %cl,%ah
  412b5d:	cc                   	int3
  412b5e:	cc                   	int3
  412b5f:	cc                   	int3
  412b60:	cc                   	int3
  412b61:	cc                   	int3
  412b62:	cc                   	int3
  412b63:	cc                   	int3
  412b64:	cc                   	int3
  412b65:	cc                   	int3
  412b66:	cc                   	int3
  412b67:	cc                   	int3
  412b68:	cc                   	int3
  412b69:	cc                   	int3
  412b6a:	cc                   	int3
  412b6b:	cc                   	int3
  412b6c:	cc                   	int3
  412b6d:	cc                   	int3
  412b6e:	cc                   	int3
  412b6f:	cc                   	int3
  412b70:	cc                   	int3
  412b71:	cc                   	int3
  412b72:	cc                   	int3
  412b73:	cc                   	int3
  412b74:	cc                   	int3
  412b75:	cc                   	int3
  412b76:	cc                   	int3
  412b77:	cc                   	int3
  412b78:	cc                   	int3
  412b79:	cc                   	int3
  412b7a:	cc                   	int3
  412b7b:	cc                   	int3
  412b7c:	cc                   	int3
  412b7d:	cc                   	int3
  412b7e:	cc                   	int3
  412b7f:	cc                   	int3
  412b80:	cc                   	int3
  412b81:	cc                   	int3
  412b82:	cc                   	int3
  412b83:	cc                   	int3
  412b84:	cc                   	int3
  412b85:	cc                   	int3
  412b86:	cc                   	int3
  412b87:	cc                   	int3
  412b88:	cc                   	int3
  412b89:	cc                   	int3
  412b8a:	cc                   	int3
  412b8b:	cc                   	int3
  412b8c:	cc                   	int3
  412b8d:	cc                   	int3
  412b8e:	cc                   	int3
  412b8f:	cc                   	int3
  412b90:	cc                   	int3
  412b91:	cc                   	int3
  412b92:	cc                   	int3
  412b93:	cc                   	int3
  412b94:	cc                   	int3
  412b95:	cc                   	int3
  412b96:	cc                   	int3
  412b97:	cc                   	int3
  412b98:	cc                   	int3
  412b99:	cc                   	int3
  412b9a:	cc                   	int3
  412b9b:	cc                   	int3
  412b9c:	cc                   	int3
  412b9d:	cc                   	int3
  412b9e:	cc                   	int3
  412b9f:	cc                   	int3
  412ba0:	cc                   	int3
  412ba1:	cc                   	int3
  412ba2:	cc                   	int3
  412ba3:	cc                   	int3
  412ba4:	cc                   	int3
  412ba5:	cc                   	int3
  412ba6:	cc                   	int3
  412ba7:	cc                   	int3
  412ba8:	cc                   	int3
  412ba9:	cc                   	int3
  412baa:	cc                   	int3
  412bab:	cc                   	int3
  412bac:	cc                   	int3
  412bad:	cc                   	int3
  412bae:	cc                   	int3
  412baf:	cc                   	int3
  412bb0:	55                   	push   %ebp
  412bb1:	8b ec                	mov    %esp,%ebp
  412bb3:	81 ec c0 00 00 00    	sub    $0xc0,%esp
  412bb9:	53                   	push   %ebx
  412bba:	56                   	push   %esi
  412bbb:	57                   	push   %edi
  412bbc:	8b fd                	mov    %ebp,%edi
  412bbe:	33 c9                	xor    %ecx,%ecx
  412bc0:	b8 cc cc cc cc       	mov    $0xcccccccc,%eax
  412bc5:	f3 ab                	rep stos %eax,%es:(%edi)
  412bc7:	b9 4b 00 42 00       	mov    $0x42004b,%ecx
  412bcc:	e8 f9 e7 ff ff       	call   0x4113ca
  412bd1:	83 c8 ff             	or     $0xffffffff,%eax
  412bd4:	5f                   	pop    %edi
  412bd5:	5e                   	pop    %esi
  412bd6:	5b                   	pop    %ebx
  412bd7:	81 c4 c0 00 00 00    	add    $0xc0,%esp
  412bdd:	3b ec                	cmp    %esp,%ebp
  412bdf:	e8 e7 e6 ff ff       	call   0x4112cb
  412be4:	8b e5                	mov    %ebp,%esp
  412be6:	5d                   	pop    %ebp
  412be7:	c3                   	ret
  412be8:	cc                   	int3
  412be9:	cc                   	int3
  412bea:	cc                   	int3
  412beb:	cc                   	int3
  412bec:	cc                   	int3
  412bed:	cc                   	int3
  412bee:	cc                   	int3
  412bef:	cc                   	int3
  412bf0:	cc                   	int3
  412bf1:	cc                   	int3
  412bf2:	cc                   	int3
  412bf3:	cc                   	int3
  412bf4:	cc                   	int3
  412bf5:	cc                   	int3
  412bf6:	cc                   	int3
  412bf7:	cc                   	int3
  412bf8:	cc                   	int3
  412bf9:	cc                   	int3
  412bfa:	cc                   	int3
  412bfb:	cc                   	int3
  412bfc:	cc                   	int3
  412bfd:	cc                   	int3
  412bfe:	cc                   	int3
  412bff:	cc                   	int3
  412c00:	55                   	push   %ebp
  412c01:	8b ec                	mov    %esp,%ebp
  412c03:	81 ec c4 00 00 00    	sub    $0xc4,%esp
  412c09:	53                   	push   %ebx
  412c0a:	56                   	push   %esi
  412c0b:	57                   	push   %edi
  412c0c:	8d 7d fc             	lea    -0x4(%ebp),%edi
  412c0f:	b9 01 00 00 00       	mov    $0x1,%ecx
  412c14:	b8 cc cc cc cc       	mov    $0xcccccccc,%eax
  412c19:	f3 ab                	rep stos %eax,%es:(%edi)
  412c1b:	b9 4b 00 42 00       	mov    $0x42004b,%ecx
  412c20:	e8 a5 e7 ff ff       	call   0x4113ca
  412c25:	8b 45 08             	mov    0x8(%ebp),%eax
  412c28:	8b 4d 0c             	mov    0xc(%ebp),%ecx
  412c2b:	8b 10                	mov    (%eax),%edx
  412c2d:	3b 11                	cmp    (%ecx),%edx
  412c2f:	75 0c                	jne    0x412c3d
  412c31:	c7 85 3c ff ff ff 01 	movl   $0x1,-0xc4(%ebp)
  412c38:	00 00 00 
  412c3b:	eb 0a                	jmp    0x412c47
  412c3d:	c7 85 3c ff ff ff 00 	movl   $0x0,-0xc4(%ebp)
  412c44:	00 00 00 
  412c47:	0f b6 85 3c ff ff ff 	movzbl -0xc4(%ebp),%eax
  412c4e:	5f                   	pop    %edi
  412c4f:	5e                   	pop    %esi
  412c50:	5b                   	pop    %ebx
  412c51:	81 c4 c4 00 00 00    	add    $0xc4,%esp
  412c57:	3b ec                	cmp    %esp,%ebp
  412c59:	e8 6d e6 ff ff       	call   0x4112cb
  412c5e:	8b e5                	mov    %ebp,%esp
  412c60:	5d                   	pop    %ebp
  412c61:	c3                   	ret
  412c62:	cc                   	int3
  412c63:	cc                   	int3
  412c64:	cc                   	int3
  412c65:	cc                   	int3
  412c66:	cc                   	int3
  412c67:	cc                   	int3
  412c68:	cc                   	int3
  412c69:	cc                   	int3
  412c6a:	cc                   	int3
  412c6b:	cc                   	int3
  412c6c:	cc                   	int3
  412c6d:	cc                   	int3
  412c6e:	cc                   	int3
  412c6f:	cc                   	int3
  412c70:	cc                   	int3
  412c71:	cc                   	int3
  412c72:	cc                   	int3
  412c73:	cc                   	int3
  412c74:	cc                   	int3
  412c75:	cc                   	int3
  412c76:	cc                   	int3
  412c77:	cc                   	int3
  412c78:	cc                   	int3
  412c79:	cc                   	int3
  412c7a:	cc                   	int3
  412c7b:	cc                   	int3
  412c7c:	cc                   	int3
  412c7d:	cc                   	int3
  412c7e:	cc                   	int3
  412c7f:	cc                   	int3
  412c80:	55                   	push   %ebp
  412c81:	8b ec                	mov    %esp,%ebp
  412c83:	81 ec cc 00 00 00    	sub    $0xcc,%esp
  412c89:	53                   	push   %ebx
  412c8a:	56                   	push   %esi
  412c8b:	57                   	push   %edi
  412c8c:	8d 7d f4             	lea    -0xc(%ebp),%edi
  412c8f:	b9 03 00 00 00       	mov    $0x3,%ecx
  412c94:	b8 cc cc cc cc       	mov    $0xcccccccc,%eax
  412c99:	f3 ab                	rep stos %eax,%es:(%edi)
  412c9b:	b9 f4 00 42 00       	mov    $0x4200f4,%ecx
  412ca0:	e8 25 e7 ff ff       	call   0x4113ca
  412ca5:	66 8b 45 0c          	mov    0xc(%ebp),%ax
  412ca9:	66 89 45 f8          	mov    %ax,-0x8(%ebp)
  412cad:	66 8b 45 10          	mov    0x10(%ebp),%ax
  412cb1:	66 89 45 fa          	mov    %ax,-0x6(%ebp)
  412cb5:	8b f4                	mov    %esp,%esi
  412cb7:	8b 45 f8             	mov    -0x8(%ebp),%eax
  412cba:	50                   	push   %eax
  412cbb:	8b 4d 08             	mov    0x8(%ebp),%ecx
  412cbe:	51                   	push   %ecx
  412cbf:	ff 15 10 e0 41 00    	call   *0x41e010
  412cc5:	3b f4                	cmp    %esp,%esi
  412cc7:	e8 ff e5 ff ff       	call   0x4112cb
  412ccc:	52                   	push   %edx
  412ccd:	8b cd                	mov    %ebp,%ecx
  412ccf:	50                   	push   %eax
  412cd0:	8d 15 f4 2c 41 00    	lea    0x412cf4,%edx
  412cd6:	e8 82 e5 ff ff       	call   0x41125d
  412cdb:	58                   	pop    %eax
  412cdc:	5a                   	pop    %edx
  412cdd:	5f                   	pop    %edi
  412cde:	5e                   	pop    %esi
  412cdf:	5b                   	pop    %ebx
  412ce0:	81 c4 cc 00 00 00    	add    $0xcc,%esp
  412ce6:	3b ec                	cmp    %esp,%ebp
  412ce8:	e8 de e5 ff ff       	call   0x4112cb
  412ced:	8b e5                	mov    %ebp,%esp
  412cef:	5d                   	pop    %ebp
  412cf0:	c3                   	ret
  412cf1:	0f 1f 00             	nopl   (%eax)
  412cf4:	01 00                	add    %eax,(%eax)
  412cf6:	00 00                	add    %al,(%eax)
  412cf8:	fc                   	cld
  412cf9:	2c 41                	sub    $0x41,%al
  412cfb:	00 f8                	add    %bh,%al
  412cfd:	ff                   	(bad)
  412cfe:	ff                   	(bad)
  412cff:	ff 04 00             	incl   (%eax,%eax,1)
  412d02:	00 00                	add    %al,(%eax)
  412d04:	08 2d 41 00 63 6f    	or     %ch,0x6f630041
  412d0a:	6f                   	outsl  %ds:(%esi),(%dx)
  412d0b:	72 64                	jb     0x412d71
  412d0d:	00 cc                	add    %cl,%ah
  412d0f:	cc                   	int3
  412d10:	cc                   	int3
  412d11:	cc                   	int3
  412d12:	cc                   	int3
  412d13:	cc                   	int3
  412d14:	cc                   	int3
  412d15:	cc                   	int3
  412d16:	cc                   	int3
  412d17:	cc                   	int3
  412d18:	cc                   	int3
  412d19:	cc                   	int3
  412d1a:	cc                   	int3
  412d1b:	cc                   	int3
  412d1c:	cc                   	int3
  412d1d:	cc                   	int3
  412d1e:	cc                   	int3
  412d1f:	cc                   	int3
  412d20:	cc                   	int3
  412d21:	cc                   	int3
  412d22:	cc                   	int3
  412d23:	cc                   	int3
  412d24:	cc                   	int3
  412d25:	cc                   	int3
  412d26:	cc                   	int3
  412d27:	cc                   	int3
  412d28:	cc                   	int3
  412d29:	cc                   	int3
  412d2a:	cc                   	int3
  412d2b:	cc                   	int3
  412d2c:	cc                   	int3
  412d2d:	cc                   	int3
  412d2e:	cc                   	int3
  412d2f:	cc                   	int3
  412d30:	cc                   	int3
  412d31:	cc                   	int3
  412d32:	cc                   	int3
  412d33:	cc                   	int3
  412d34:	cc                   	int3
  412d35:	cc                   	int3
  412d36:	cc                   	int3
  412d37:	cc                   	int3
  412d38:	cc                   	int3
  412d39:	cc                   	int3
  412d3a:	cc                   	int3
  412d3b:	cc                   	int3
  412d3c:	cc                   	int3
  412d3d:	cc                   	int3
  412d3e:	cc                   	int3
  412d3f:	cc                   	int3
  412d40:	55                   	push   %ebp
  412d41:	8b ec                	mov    %esp,%ebp
  412d43:	81 ec e8 00 00 00    	sub    $0xe8,%esp
  412d49:	53                   	push   %ebx
  412d4a:	56                   	push   %esi
  412d4b:	57                   	push   %edi
  412d4c:	8d 7d d8             	lea    -0x28(%ebp),%edi
  412d4f:	b9 0a 00 00 00       	mov    $0xa,%ecx
  412d54:	b8 cc cc cc cc       	mov    $0xcccccccc,%eax
  412d59:	f3 ab                	rep stos %eax,%es:(%edi)
  412d5b:	b9 f4 00 42 00       	mov    $0x4200f4,%ecx
  412d60:	e8 65 e6 ff ff       	call   0x4113ca
  412d65:	8b 45 08             	mov    0x8(%ebp),%eax
  412d68:	50                   	push   %eax
  412d69:	e8 7b e5 ff ff       	call   0x4112e9
  412d6e:	83 c4 04             	add    $0x4,%esp
  412d71:	6a 00                	push   $0x0
  412d73:	6a 00                	push   $0x0
  412d75:	8b 45 08             	mov    0x8(%ebp),%eax
  412d78:	50                   	push   %eax
  412d79:	e8 cc e3 ff ff       	call   0x41114a
  412d7e:	83 c4 0c             	add    $0xc,%esp
  412d81:	c7 45 ec 00 00 00 00 	movl   $0x0,-0x14(%ebp)
  412d88:	eb 09                	jmp    0x412d93
  412d8a:	8b 45 ec             	mov    -0x14(%ebp),%eax
  412d8d:	83 c0 01             	add    $0x1,%eax
  412d90:	89 45 ec             	mov    %eax,-0x14(%ebp)
  412d93:	83 7d ec 12          	cmpl   $0x12,-0x14(%ebp)
  412d97:	0f 8f 88 00 00 00    	jg     0x412e25
  412d9d:	6a 2a                	push   $0x2a
  412d9f:	a1 b0 e0 41 00       	mov    0x41e0b0,%eax
  412da4:	50                   	push   %eax
  412da5:	e8 46 e3 ff ff       	call   0x4110f0
  412daa:	83 c4 08             	add    $0x8,%esp
  412dad:	c7 45 f8 01 00 00 00 	movl   $0x1,-0x8(%ebp)
  412db4:	eb 09                	jmp    0x412dbf
  412db6:	8b 45 f8             	mov    -0x8(%ebp),%eax
  412db9:	83 c0 01             	add    $0x1,%eax
  412dbc:	89 45 f8             	mov    %eax,-0x8(%ebp)
  412dbf:	83 7d f8 45          	cmpl   $0x45,-0x8(%ebp)
  412dc3:	7f 35                	jg     0x412dfa
  412dc5:	83 7d ec 00          	cmpl   $0x0,-0x14(%ebp)
  412dc9:	7e 0f                	jle    0x412dda
  412dcb:	83 7d ec 11          	cmpl   $0x11,-0x14(%ebp)
  412dcf:	7f 09                	jg     0x412dda
  412dd1:	c6 85 1b ff ff ff 20 	movb   $0x20,-0xe5(%ebp)
  412dd8:	eb 07                	jmp    0x412de1
  412dda:	c6 85 1b ff ff ff 2a 	movb   $0x2a,-0xe5(%ebp)
  412de1:	0f b6 85 1b ff ff ff 	movzbl -0xe5(%ebp),%eax
  412de8:	50                   	push   %eax
  412de9:	8b 0d b0 e0 41 00    	mov    0x41e0b0,%ecx
  412def:	51                   	push   %ecx
  412df0:	e8 fb e2 ff ff       	call   0x4110f0
  412df5:	83 c4 08             	add    $0x8,%esp
  412df8:	eb bc                	jmp    0x412db6
  412dfa:	8b f4                	mov    %esp,%esi
  412dfc:	68 3c 10 41 00       	push   $0x41103c
  412e01:	6a 2a                	push   $0x2a
  412e03:	a1 b0 e0 41 00       	mov    0x41e0b0,%eax
  412e08:	50                   	push   %eax
  412e09:	e8 e2 e2 ff ff       	call   0x4110f0
  412e0e:	83 c4 08             	add    $0x8,%esp
  412e11:	8b c8                	mov    %eax,%ecx
  412e13:	ff 15 bc e0 41 00    	call   *0x41e0bc
  412e19:	3b f4                	cmp    %esp,%esi
  412e1b:	e8 ab e4 ff ff       	call   0x4112cb
  412e20:	e9 65 ff ff ff       	jmp    0x412d8a
  412e25:	c7 45 e0 00 00 00 00 	movl   $0x0,-0x20(%ebp)
  412e2c:	eb 09                	jmp    0x412e37
  412e2e:	8b 45 e0             	mov    -0x20(%ebp),%eax
  412e31:	83 c0 01             	add    $0x1,%eax
  412e34:	89 45 e0             	mov    %eax,-0x20(%ebp)
  412e37:	83 7d e0 14          	cmpl   $0x14,-0x20(%ebp)
  412e3b:	7d 5f                	jge    0x412e9c
  412e3d:	8b f4                	mov    %esp,%esi
  412e3f:	ff 15 10 e2 41 00    	call   *0x41e210
  412e45:	3b f4                	cmp    %esp,%esi
  412e47:	e8 7f e4 ff ff       	call   0x4112cb
  412e4c:	99                   	cltd
  412e4d:	b9 1a 00 00 00       	mov    $0x1a,%ecx
  412e52:	f7 f9                	idiv   %ecx
  412e54:	83 c2 41             	add    $0x41,%edx
  412e57:	52                   	push   %edx
  412e58:	8b f4                	mov    %esp,%esi
  412e5a:	ff 15 10 e2 41 00    	call   *0x41e210
  412e60:	3b f4                	cmp    %esp,%esi
  412e62:	e8 64 e4 ff ff       	call   0x4112cb
  412e67:	99                   	cltd
  412e68:	b9 11 00 00 00       	mov    $0x11,%ecx
  412e6d:	f7 f9                	idiv   %ecx
  412e6f:	83 c2 01             	add    $0x1,%edx
  412e72:	52                   	push   %edx
  412e73:	8b f4                	mov    %esp,%esi
  412e75:	ff 15 10 e2 41 00    	call   *0x41e210
  412e7b:	3b f4                	cmp    %esp,%esi
  412e7d:	e8 49 e4 ff ff       	call   0x4112cb
  412e82:	99                   	cltd
  412e83:	b9 45 00 00 00       	mov    $0x45,%ecx
  412e88:	f7 f9                	idiv   %ecx
  412e8a:	83 c2 01             	add    $0x1,%edx
  412e8d:	52                   	push   %edx
  412e8e:	8b 55 08             	mov    0x8(%ebp),%edx
  412e91:	52                   	push   %edx
  412e92:	e8 cb e3 ff ff       	call   0x411262
  412e97:	83 c4 10             	add    $0x10,%esp
  412e9a:	eb 92                	jmp    0x412e2e
  412e9c:	5f                   	pop    %edi
  412e9d:	5e                   	pop    %esi
  412e9e:	5b                   	pop    %ebx
  412e9f:	81 c4 e8 00 00 00    	add    $0xe8,%esp
  412ea5:	3b ec                	cmp    %esp,%ebp
  412ea7:	e8 1f e4 ff ff       	call   0x4112cb
  412eac:	8b e5                	mov    %ebp,%esp
  412eae:	5d                   	pop    %ebp
  412eaf:	c3                   	ret
  412eb0:	cc                   	int3
  412eb1:	cc                   	int3
  412eb2:	cc                   	int3
  412eb3:	cc                   	int3
  412eb4:	cc                   	int3
  412eb5:	cc                   	int3
  412eb6:	cc                   	int3
  412eb7:	cc                   	int3
  412eb8:	cc                   	int3
  412eb9:	cc                   	int3
  412eba:	cc                   	int3
  412ebb:	cc                   	int3
  412ebc:	cc                   	int3
  412ebd:	cc                   	int3
  412ebe:	cc                   	int3
  412ebf:	cc                   	int3
  412ec0:	cc                   	int3
  412ec1:	cc                   	int3
  412ec2:	cc                   	int3
  412ec3:	cc                   	int3
  412ec4:	cc                   	int3
  412ec5:	cc                   	int3
  412ec6:	cc                   	int3
  412ec7:	cc                   	int3
  412ec8:	cc                   	int3
  412ec9:	cc                   	int3
  412eca:	cc                   	int3
  412ecb:	cc                   	int3
  412ecc:	cc                   	int3
  412ecd:	cc                   	int3
  412ece:	cc                   	int3
  412ecf:	cc                   	int3
  412ed0:	cc                   	int3
  412ed1:	cc                   	int3
  412ed2:	cc                   	int3
  412ed3:	cc                   	int3
  412ed4:	cc                   	int3
  412ed5:	cc                   	int3
  412ed6:	cc                   	int3
  412ed7:	cc                   	int3
  412ed8:	cc                   	int3
  412ed9:	cc                   	int3
  412eda:	cc                   	int3
  412edb:	cc                   	int3
  412edc:	cc                   	int3
  412edd:	cc                   	int3
  412ede:	cc                   	int3
  412edf:	cc                   	int3
  412ee0:	cc                   	int3
  412ee1:	cc                   	int3
  412ee2:	cc                   	int3
  412ee3:	cc                   	int3
  412ee4:	cc                   	int3
  412ee5:	cc                   	int3
  412ee6:	cc                   	int3
  412ee7:	cc                   	int3
  412ee8:	cc                   	int3
  412ee9:	cc                   	int3
  412eea:	cc                   	int3
  412eeb:	cc                   	int3
  412eec:	cc                   	int3
  412eed:	cc                   	int3
  412eee:	cc                   	int3
  412eef:	cc                   	int3
  412ef0:	cc                   	int3
  412ef1:	cc                   	int3
  412ef2:	cc                   	int3
  412ef3:	cc                   	int3
  412ef4:	cc                   	int3
  412ef5:	cc                   	int3
  412ef6:	cc                   	int3
  412ef7:	cc                   	int3
  412ef8:	cc                   	int3
  412ef9:	cc                   	int3
  412efa:	cc                   	int3
  412efb:	cc                   	int3
  412efc:	cc                   	int3
  412efd:	cc                   	int3
  412efe:	cc                   	int3
  412eff:	cc                   	int3
  412f00:	cc                   	int3
  412f01:	cc                   	int3
  412f02:	cc                   	int3
  412f03:	cc                   	int3
  412f04:	cc                   	int3
  412f05:	cc                   	int3
  412f06:	cc                   	int3
  412f07:	cc                   	int3
  412f08:	cc                   	int3
  412f09:	cc                   	int3
  412f0a:	cc                   	int3
  412f0b:	cc                   	int3
  412f0c:	cc                   	int3
  412f0d:	cc                   	int3
  412f0e:	cc                   	int3
  412f0f:	cc                   	int3
  412f10:	55                   	push   %ebp
  412f11:	8b ec                	mov    %esp,%ebp
  412f13:	81 ec c0 00 00 00    	sub    $0xc0,%esp
  412f19:	53                   	push   %ebx
  412f1a:	56                   	push   %esi
  412f1b:	57                   	push   %edi
  412f1c:	8b fd                	mov    %ebp,%edi
  412f1e:	33 c9                	xor    %ecx,%ecx
  412f20:	b8 cc cc cc cc       	mov    $0xcccccccc,%eax
  412f25:	f3 ab                	rep stos %eax,%es:(%edi)
  412f27:	b9 4b 00 42 00       	mov    $0x42004b,%ecx
  412f2c:	e8 99 e4 ff ff       	call   0x4113ca
  412f31:	8b 45 08             	mov    0x8(%ebp),%eax
  412f34:	50                   	push   %eax
  412f35:	e8 e5 e4 ff ff       	call   0x41141f
  412f3a:	83 c4 04             	add    $0x4,%esp
  412f3d:	5f                   	pop    %edi
  412f3e:	5e                   	pop    %esi
  412f3f:	5b                   	pop    %ebx
  412f40:	81 c4 c0 00 00 00    	add    $0xc0,%esp
  412f46:	3b ec                	cmp    %esp,%ebp
  412f48:	e8 7e e3 ff ff       	call   0x4112cb
  412f4d:	8b e5                	mov    %ebp,%esp
  412f4f:	5d                   	pop    %ebp
  412f50:	c3                   	ret
  412f51:	cc                   	int3
  412f52:	cc                   	int3
  412f53:	cc                   	int3
  412f54:	cc                   	int3
  412f55:	cc                   	int3
  412f56:	cc                   	int3
  412f57:	cc                   	int3
  412f58:	cc                   	int3
  412f59:	cc                   	int3
  412f5a:	cc                   	int3
  412f5b:	cc                   	int3
  412f5c:	cc                   	int3
  412f5d:	cc                   	int3
  412f5e:	cc                   	int3
  412f5f:	cc                   	int3
  412f60:	cc                   	int3
  412f61:	cc                   	int3
  412f62:	cc                   	int3
  412f63:	cc                   	int3
  412f64:	cc                   	int3
  412f65:	cc                   	int3
  412f66:	cc                   	int3
  412f67:	cc                   	int3
  412f68:	cc                   	int3
  412f69:	cc                   	int3
  412f6a:	cc                   	int3
  412f6b:	cc                   	int3
  412f6c:	cc                   	int3
  412f6d:	cc                   	int3
  412f6e:	cc                   	int3
  412f6f:	cc                   	int3
  412f70:	55                   	push   %ebp
  412f71:	8b ec                	mov    %esp,%ebp
  412f73:	81 ec cc 00 00 00    	sub    $0xcc,%esp
  412f79:	53                   	push   %ebx
  412f7a:	56                   	push   %esi
  412f7b:	57                   	push   %edi
  412f7c:	8d 7d f4             	lea    -0xc(%ebp),%edi
  412f7f:	b9 03 00 00 00       	mov    $0x3,%ecx
  412f84:	b8 cc cc cc cc       	mov    $0xcccccccc,%eax
  412f89:	f3 ab                	rep stos %eax,%es:(%edi)
  412f8b:	b9 f4 00 42 00       	mov    $0x4200f4,%ecx
  412f90:	e8 35 e4 ff ff       	call   0x4113ca
  412f95:	b8 01 00 00 00       	mov    $0x1,%eax
  412f9a:	85 c0                	test   %eax,%eax
  412f9c:	0f 84 69 01 00 00    	je     0x41310b
  412fa2:	8b 45 08             	mov    0x8(%ebp),%eax
  412fa5:	50                   	push   %eax
  412fa6:	e8 3e e3 ff ff       	call   0x4112e9
  412fab:	83 c4 04             	add    $0x4,%esp
  412fae:	8b f4                	mov    %esp,%esi
  412fb0:	68 3c 10 41 00       	push   $0x41103c
  412fb5:	68 30 ab 41 00       	push   $0x41ab30
  412fba:	a1 b0 e0 41 00       	mov    0x41e0b0,%eax
  412fbf:	50                   	push   %eax
  412fc0:	e8 0c e2 ff ff       	call   0x4111d1
  412fc5:	83 c4 08             	add    $0x8,%esp
  412fc8:	8b c8                	mov    %eax,%ecx
  412fca:	ff 15 bc e0 41 00    	call   *0x41e0bc
  412fd0:	3b f4                	cmp    %esp,%esi
  412fd2:	e8 f4 e2 ff ff       	call   0x4112cb
  412fd7:	8b f4                	mov    %esp,%esi
  412fd9:	68 3c 10 41 00       	push   $0x41103c
  412fde:	68 70 ab 41 00       	push   $0x41ab70
  412fe3:	a1 b0 e0 41 00       	mov    0x41e0b0,%eax
  412fe8:	50                   	push   %eax
  412fe9:	e8 e3 e1 ff ff       	call   0x4111d1
  412fee:	83 c4 08             	add    $0x8,%esp
  412ff1:	8b c8                	mov    %eax,%ecx
  412ff3:	ff 15 bc e0 41 00    	call   *0x41e0bc
  412ff9:	3b f4                	cmp    %esp,%esi
  412ffb:	e8 cb e2 ff ff       	call   0x4112cb
  413000:	8b f4                	mov    %esp,%esi
  413002:	68 3c 10 41 00       	push   $0x41103c
  413007:	68 b0 ab 41 00       	push   $0x41abb0
  41300c:	a1 b0 e0 41 00       	mov    0x41e0b0,%eax
  413011:	50                   	push   %eax
  413012:	e8 ba e1 ff ff       	call   0x4111d1
  413017:	83 c4 08             	add    $0x8,%esp
  41301a:	8b c8                	mov    %eax,%ecx
  41301c:	ff 15 bc e0 41 00    	call   *0x41e0bc
  413022:	3b f4                	cmp    %esp,%esi
  413024:	e8 a2 e2 ff ff       	call   0x4112cb
  413029:	8b f4                	mov    %esp,%esi
  41302b:	68 3c 10 41 00       	push   $0x41103c
  413030:	68 d8 ab 41 00       	push   $0x41abd8
  413035:	a1 b0 e0 41 00       	mov    0x41e0b0,%eax
  41303a:	50                   	push   %eax
  41303b:	e8 91 e1 ff ff       	call   0x4111d1
  413040:	83 c4 08             	add    $0x8,%esp
  413043:	8b c8                	mov    %eax,%ecx
  413045:	ff 15 bc e0 41 00    	call   *0x41e0bc
  41304b:	3b f4                	cmp    %esp,%esi
  41304d:	e8 79 e2 ff ff       	call   0x4112cb
  413052:	8b f4                	mov    %esp,%esi
  413054:	68 3c 10 41 00       	push   $0x41103c
  413059:	68 00 ac 41 00       	push   $0x41ac00
  41305e:	a1 b0 e0 41 00       	mov    0x41e0b0,%eax
  413063:	50                   	push   %eax
  413064:	e8 68 e1 ff ff       	call   0x4111d1
  413069:	83 c4 08             	add    $0x8,%esp
  41306c:	8b c8                	mov    %eax,%ecx
  41306e:	ff 15 bc e0 41 00    	call   *0x41e0bc
  413074:	3b f4                	cmp    %esp,%esi
  413076:	e8 50 e2 ff ff       	call   0x4112cb
  41307b:	8b f4                	mov    %esp,%esi
  41307d:	68 3c 10 41 00       	push   $0x41103c
  413082:	68 60 ac 41 00       	push   $0x41ac60
  413087:	a1 b0 e0 41 00       	mov    0x41e0b0,%eax
  41308c:	50                   	push   %eax
  41308d:	e8 3f e1 ff ff       	call   0x4111d1
  413092:	83 c4 08             	add    $0x8,%esp
  413095:	8b c8                	mov    %eax,%ecx
  413097:	ff 15 bc e0 41 00    	call   *0x41e0bc
  41309d:	3b f4                	cmp    %esp,%esi
  41309f:	e8 27 e2 ff ff       	call   0x4112cb
  4130a4:	8b f4                	mov    %esp,%esi
  4130a6:	68 3c 10 41 00       	push   $0x41103c
  4130ab:	68 bc ac 41 00       	push   $0x41acbc
  4130b0:	a1 b0 e0 41 00       	mov    0x41e0b0,%eax
  4130b5:	50                   	push   %eax
  4130b6:	e8 16 e1 ff ff       	call   0x4111d1
  4130bb:	83 c4 08             	add    $0x8,%esp
  4130be:	8b c8                	mov    %eax,%ecx
  4130c0:	ff 15 bc e0 41 00    	call   *0x41e0bc
  4130c6:	3b f4                	cmp    %esp,%esi
  4130c8:	e8 fe e1 ff ff       	call   0x4112cb
  4130cd:	68 c4 ac 41 00       	push   $0x41acc4
  4130d2:	a1 b0 e0 41 00       	mov    0x41e0b0,%eax
  4130d7:	50                   	push   %eax
  4130d8:	e8 f4 e0 ff ff       	call   0x4111d1
  4130dd:	83 c4 08             	add    $0x8,%esp
  4130e0:	8b f4                	mov    %esp,%esi
  4130e2:	ff 15 00 e2 41 00    	call   *0x41e200
  4130e8:	3b f4                	cmp    %esp,%esi
  4130ea:	e8 dc e1 ff ff       	call   0x4112cb
  4130ef:	88 45 fb             	mov    %al,-0x5(%ebp)
  4130f2:	0f be 45 fb          	movsbl -0x5(%ebp),%eax
  4130f6:	83 f8 30             	cmp    $0x30,%eax
  4130f9:	7c 0b                	jl     0x413106
  4130fb:	0f be 45 fb          	movsbl -0x5(%ebp),%eax
  4130ff:	83 f8 36             	cmp    $0x36,%eax
  413102:	7f 02                	jg     0x413106
  413104:	eb 05                	jmp    0x41310b
  413106:	e9 8a fe ff ff       	jmp    0x412f95
  41310b:	0f b6 45 fb          	movzbl -0x5(%ebp),%eax
  41310f:	5f                   	pop    %edi
  413110:	5e                   	pop    %esi
  413111:	5b                   	pop    %ebx
  413112:	81 c4 cc 00 00 00    	add    $0xcc,%esp
  413118:	3b ec                	cmp    %esp,%ebp
  41311a:	e8 ac e1 ff ff       	call   0x4112cb
  41311f:	8b e5                	mov    %ebp,%esp
  413121:	5d                   	pop    %ebp
  413122:	c3                   	ret
  413123:	cc                   	int3
  413124:	cc                   	int3
  413125:	cc                   	int3
  413126:	cc                   	int3
  413127:	cc                   	int3
  413128:	cc                   	int3
  413129:	cc                   	int3
  41312a:	cc                   	int3
  41312b:	cc                   	int3
  41312c:	cc                   	int3
  41312d:	cc                   	int3
  41312e:	cc                   	int3
  41312f:	cc                   	int3
  413130:	cc                   	int3
  413131:	cc                   	int3
  413132:	cc                   	int3
  413133:	cc                   	int3
  413134:	cc                   	int3
  413135:	cc                   	int3
  413136:	cc                   	int3
  413137:	cc                   	int3
  413138:	cc                   	int3
  413139:	cc                   	int3
  41313a:	cc                   	int3
  41313b:	cc                   	int3
  41313c:	cc                   	int3
  41313d:	cc                   	int3
  41313e:	cc                   	int3
  41313f:	cc                   	int3
  413140:	cc                   	int3
  413141:	cc                   	int3
  413142:	cc                   	int3
  413143:	cc                   	int3
  413144:	cc                   	int3
  413145:	cc                   	int3
  413146:	cc                   	int3
  413147:	cc                   	int3
  413148:	cc                   	int3
  413149:	cc                   	int3
  41314a:	cc                   	int3
  41314b:	cc                   	int3
  41314c:	cc                   	int3
  41314d:	cc                   	int3
  41314e:	cc                   	int3
  41314f:	cc                   	int3
  413150:	cc                   	int3
  413151:	cc                   	int3
  413152:	cc                   	int3
  413153:	cc                   	int3
  413154:	cc                   	int3
  413155:	cc                   	int3
  413156:	cc                   	int3
  413157:	cc                   	int3
  413158:	cc                   	int3
  413159:	cc                   	int3
  41315a:	cc                   	int3
  41315b:	cc                   	int3
  41315c:	cc                   	int3
  41315d:	cc                   	int3
  41315e:	cc                   	int3
  41315f:	cc                   	int3
  413160:	cc                   	int3
  413161:	cc                   	int3
  413162:	cc                   	int3
  413163:	cc                   	int3
  413164:	cc                   	int3
  413165:	cc                   	int3
  413166:	cc                   	int3
  413167:	cc                   	int3
  413168:	cc                   	int3
  413169:	cc                   	int3
  41316a:	cc                   	int3
  41316b:	cc                   	int3
  41316c:	cc                   	int3
  41316d:	cc                   	int3
  41316e:	cc                   	int3
  41316f:	cc                   	int3
  413170:	cc                   	int3
  413171:	cc                   	int3
  413172:	cc                   	int3
  413173:	cc                   	int3
  413174:	cc                   	int3
  413175:	cc                   	int3
  413176:	cc                   	int3
  413177:	cc                   	int3
  413178:	cc                   	int3
  413179:	cc                   	int3
  41317a:	cc                   	int3
  41317b:	cc                   	int3
  41317c:	cc                   	int3
  41317d:	cc                   	int3
  41317e:	cc                   	int3
  41317f:	cc                   	int3
  413180:	cc                   	int3
  413181:	cc                   	int3
  413182:	cc                   	int3
  413183:	cc                   	int3
  413184:	cc                   	int3
  413185:	cc                   	int3
  413186:	cc                   	int3
  413187:	cc                   	int3
  413188:	cc                   	int3
  413189:	cc                   	int3
  41318a:	cc                   	int3
  41318b:	cc                   	int3
  41318c:	cc                   	int3
  41318d:	cc                   	int3
  41318e:	cc                   	int3
  41318f:	cc                   	int3
  413190:	55                   	push   %ebp
  413191:	8b ec                	mov    %esp,%ebp
  413193:	81 ec e8 00 00 00    	sub    $0xe8,%esp
  413199:	53                   	push   %ebx
  41319a:	56                   	push   %esi
  41319b:	57                   	push   %edi
  41319c:	8d 7d d8             	lea    -0x28(%ebp),%edi
  41319f:	b9 0a 00 00 00       	mov    $0xa,%ecx
  4131a4:	b8 cc cc cc cc       	mov    $0xcccccccc,%eax
  4131a9:	f3 ab                	rep stos %eax,%es:(%edi)
  4131ab:	b9 f4 00 42 00       	mov    $0x4200f4,%ecx
  4131b0:	e8 15 e2 ff ff       	call   0x4113ca
  4131b5:	c7 45 f8 01 00 00 00 	movl   $0x1,-0x8(%ebp)
  4131bc:	8b 45 08             	mov    0x8(%ebp),%eax
  4131bf:	50                   	push   %eax
  4131c0:	e8 bd de ff ff       	call   0x411082
  4131c5:	83 c4 04             	add    $0x4,%esp
  4131c8:	c7 45 ec 23 00 00 00 	movl   $0x23,-0x14(%ebp)
  4131cf:	c7 45 e0 09 00 00 00 	movl   $0x9,-0x20(%ebp)
  4131d6:	8b 45 e0             	mov    -0x20(%ebp),%eax
  4131d9:	50                   	push   %eax
  4131da:	8b 4d ec             	mov    -0x14(%ebp),%ecx
  4131dd:	51                   	push   %ecx
  4131de:	8b 55 08             	mov    0x8(%ebp),%edx
  4131e1:	52                   	push   %edx
  4131e2:	e8 63 df ff ff       	call   0x41114a
  4131e7:	83 c4 0c             	add    $0xc,%esp
  4131ea:	83 7d f8 00          	cmpl   $0x0,-0x8(%ebp)
  4131ee:	0f 84 b8 02 00 00    	je     0x4134ac
  4131f4:	8b f4                	mov    %esp,%esi
  4131f6:	ff 15 04 e2 41 00    	call   *0x41e204
  4131fc:	3b f4                	cmp    %esp,%esi
  4131fe:	e8 c8 e0 ff ff       	call   0x4112cb
  413203:	89 85 18 ff ff ff    	mov    %eax,-0xe8(%ebp)
  413209:	8b 85 18 ff ff ff    	mov    -0xe8(%ebp),%eax
  41320f:	83 e8 20             	sub    $0x20,%eax
  413212:	89 85 18 ff ff ff    	mov    %eax,-0xe8(%ebp)
  413218:	81 bd 18 ff ff ff c0 	cmpl   $0xc0,-0xe8(%ebp)
  41321f:	00 00 00 
  413222:	0f 87 66 02 00 00    	ja     0x41348e
  413228:	8b 8d 18 ff ff ff    	mov    -0xe8(%ebp),%ecx
  41322e:	0f b6 91 e4 34 41 00 	movzbl 0x4134e4(%ecx),%edx
  413235:	ff 24 95 c4 34 41 00 	jmp    *0x4134c4(,%edx,4)
  41323c:	83 7d 0c 00          	cmpl   $0x0,0xc(%ebp)
  413240:	75 02                	jne    0x413244
  413242:	eb a6                	jmp    0x4131ea
  413244:	8b f4                	mov    %esp,%esi
  413246:	ff 15 04 e2 41 00    	call   *0x41e204
  41324c:	3b f4                	cmp    %esp,%esi
  41324e:	e8 78 e0 ff ff       	call   0x4112cb
  413253:	89 85 18 ff ff ff    	mov    %eax,-0xe8(%ebp)
  413259:	8b 85 18 ff ff ff    	mov    -0xe8(%ebp),%eax
  41325f:	83 e8 48             	sub    $0x48,%eax
  413262:	89 85 18 ff ff ff    	mov    %eax,-0xe8(%ebp)
  413268:	83 bd 18 ff ff ff 08 	cmpl   $0x8,-0xe8(%ebp)
  41326f:	0f 87 e6 00 00 00    	ja     0x41335b
  413275:	8b 8d 18 ff ff ff    	mov    -0xe8(%ebp),%ecx
  41327b:	ff 24 8d a8 35 41 00 	jmp    *0x4135a8(,%ecx,4)
  413282:	8b 45 ec             	mov    -0x14(%ebp),%eax
  413285:	83 e8 01             	sub    $0x1,%eax
  413288:	89 45 ec             	mov    %eax,-0x14(%ebp)
  41328b:	83 7d ec 01          	cmpl   $0x1,-0x14(%ebp)
  41328f:	7d 25                	jge    0x4132b6
  413291:	83 7d 10 00          	cmpl   $0x0,0x10(%ebp)
  413295:	74 0c                	je     0x4132a3
  413297:	c7 85 18 ff ff ff 45 	movl   $0x45,-0xe8(%ebp)
  41329e:	00 00 00 
  4132a1:	eb 0a                	jmp    0x4132ad
  4132a3:	c7 85 18 ff ff ff 01 	movl   $0x1,-0xe8(%ebp)
  4132aa:	00 00 00 
  4132ad:	8b 85 18 ff ff ff    	mov    -0xe8(%ebp),%eax
  4132b3:	89 45 ec             	mov    %eax,-0x14(%ebp)
  4132b6:	e9 a0 00 00 00       	jmp    0x41335b
  4132bb:	8b 45 ec             	mov    -0x14(%ebp),%eax
  4132be:	83 c0 01             	add    $0x1,%eax
  4132c1:	89 45 ec             	mov    %eax,-0x14(%ebp)
  4132c4:	83 7d ec 45          	cmpl   $0x45,-0x14(%ebp)
  4132c8:	7e 25                	jle    0x4132ef
  4132ca:	83 7d 10 00          	cmpl   $0x0,0x10(%ebp)
  4132ce:	74 0c                	je     0x4132dc
  4132d0:	c7 85 18 ff ff ff 01 	movl   $0x1,-0xe8(%ebp)
  4132d7:	00 00 00 
  4132da:	eb 0a                	jmp    0x4132e6
  4132dc:	c7 85 18 ff ff ff 45 	movl   $0x45,-0xe8(%ebp)
  4132e3:	00 00 00 
  4132e6:	8b 85 18 ff ff ff    	mov    -0xe8(%ebp),%eax
  4132ec:	89 45 ec             	mov    %eax,-0x14(%ebp)
  4132ef:	eb 6a                	jmp    0x41335b
  4132f1:	8b 45 e0             	mov    -0x20(%ebp),%eax
  4132f4:	83 e8 01             	sub    $0x1,%eax
  4132f7:	89 45 e0             	mov    %eax,-0x20(%ebp)
  4132fa:	83 7d e0 01          	cmpl   $0x1,-0x20(%ebp)
  4132fe:	7d 25                	jge    0x413325
  413300:	83 7d 10 00          	cmpl   $0x0,0x10(%ebp)
  413304:	74 0c                	je     0x413312
  413306:	c7 85 18 ff ff ff 11 	movl   $0x11,-0xe8(%ebp)
  41330d:	00 00 00 
  413310:	eb 0a                	jmp    0x41331c
  413312:	c7 85 18 ff ff ff 01 	movl   $0x1,-0xe8(%ebp)
  413319:	00 00 00 
  41331c:	8b 85 18 ff ff ff    	mov    -0xe8(%ebp),%eax
  413322:	89 45 e0             	mov    %eax,-0x20(%ebp)
  413325:	eb 34                	jmp    0x41335b
  413327:	8b 45 e0             	mov    -0x20(%ebp),%eax
  41332a:	83 c0 01             	add    $0x1,%eax
  41332d:	89 45 e0             	mov    %eax,-0x20(%ebp)
  413330:	83 7d e0 11          	cmpl   $0x11,-0x20(%ebp)
  413334:	7e 25                	jle    0x41335b
  413336:	83 7d 10 00          	cmpl   $0x0,0x10(%ebp)
  41333a:	74 0c                	je     0x413348
  41333c:	c7 85 18 ff ff ff 01 	movl   $0x1,-0xe8(%ebp)
  413343:	00 00 00 
  413346:	eb 0a                	jmp    0x413352
  413348:	c7 85 18 ff ff ff 11 	movl   $0x11,-0xe8(%ebp)
  41334f:	00 00 00 
  413352:	8b 85 18 ff ff ff    	mov    -0xe8(%ebp),%eax
  413358:	89 45 e0             	mov    %eax,-0x20(%ebp)
  41335b:	e9 33 01 00 00       	jmp    0x413493
  413360:	83 7d 0c 00          	cmpl   $0x0,0xc(%ebp)
  413364:	74 05                	je     0x41336b
  413366:	e9 7f fe ff ff       	jmp    0x4131ea
  41336b:	8b 45 ec             	mov    -0x14(%ebp),%eax
  41336e:	83 e8 01             	sub    $0x1,%eax
  413371:	89 45 ec             	mov    %eax,-0x14(%ebp)
  413374:	83 7d ec 01          	cmpl   $0x1,-0x14(%ebp)
  413378:	7d 25                	jge    0x41339f
  41337a:	83 7d 10 00          	cmpl   $0x0,0x10(%ebp)
  41337e:	74 0c                	je     0x41338c
  413380:	c7 85 18 ff ff ff 45 	movl   $0x45,-0xe8(%ebp)
  413387:	00 00 00 
  41338a:	eb 0a                	jmp    0x413396
  41338c:	c7 85 18 ff ff ff 01 	movl   $0x1,-0xe8(%ebp)
  413393:	00 00 00 
  413396:	8b 85 18 ff ff ff    	mov    -0xe8(%ebp),%eax
  41339c:	89 45 ec             	mov    %eax,-0x14(%ebp)
  41339f:	e9 ef 00 00 00       	jmp    0x413493
  4133a4:	83 7d 0c 00          	cmpl   $0x0,0xc(%ebp)
  4133a8:	74 05                	je     0x4133af
  4133aa:	e9 3b fe ff ff       	jmp    0x4131ea
  4133af:	8b 45 ec             	mov    -0x14(%ebp),%eax
  4133b2:	83 c0 01             	add    $0x1,%eax
  4133b5:	89 45 ec             	mov    %eax,-0x14(%ebp)
  4133b8:	83 7d ec 45          	cmpl   $0x45,-0x14(%ebp)
  4133bc:	7e 25                	jle    0x4133e3
  4133be:	83 7d 10 00          	cmpl   $0x0,0x10(%ebp)
  4133c2:	74 0c                	je     0x4133d0
  4133c4:	c7 85 18 ff ff ff 01 	movl   $0x1,-0xe8(%ebp)
  4133cb:	00 00 00 
  4133ce:	eb 0a                	jmp    0x4133da
  4133d0:	c7 85 18 ff ff ff 45 	movl   $0x45,-0xe8(%ebp)
  4133d7:	00 00 00 
  4133da:	8b 85 18 ff ff ff    	mov    -0xe8(%ebp),%eax
  4133e0:	89 45 ec             	mov    %eax,-0x14(%ebp)
  4133e3:	e9 ab 00 00 00       	jmp    0x413493
  4133e8:	e9 a6 00 00 00       	jmp    0x413493
  4133ed:	83 7d 0c 00          	cmpl   $0x0,0xc(%ebp)
  4133f1:	74 05                	je     0x4133f8
  4133f3:	e9 f2 fd ff ff       	jmp    0x4131ea
  4133f8:	8b 45 e0             	mov    -0x20(%ebp),%eax
  4133fb:	83 e8 01             	sub    $0x1,%eax
  4133fe:	89 45 e0             	mov    %eax,-0x20(%ebp)
  413401:	83 7d e0 01          	cmpl   $0x1,-0x20(%ebp)
  413405:	7d 25                	jge    0x41342c
  413407:	83 7d 10 00          	cmpl   $0x0,0x10(%ebp)
  41340b:	74 0c                	je     0x413419
  41340d:	c7 85 18 ff ff ff 11 	movl   $0x11,-0xe8(%ebp)
  413414:	00 00 00 
  413417:	eb 0a                	jmp    0x413423
  413419:	c7 85 18 ff ff ff 01 	movl   $0x1,-0xe8(%ebp)
  413420:	00 00 00 
  413423:	8b 85 18 ff ff ff    	mov    -0xe8(%ebp),%eax
  413429:	89 45 e0             	mov    %eax,-0x20(%ebp)
  41342c:	eb 65                	jmp    0x413493
  41342e:	83 7d 0c 00          	cmpl   $0x0,0xc(%ebp)
  413432:	74 05                	je     0x413439
  413434:	e9 b1 fd ff ff       	jmp    0x4131ea
  413439:	8b 45 e0             	mov    -0x20(%ebp),%eax
  41343c:	83 c0 01             	add    $0x1,%eax
  41343f:	89 45 e0             	mov    %eax,-0x20(%ebp)
  413442:	83 7d e0 11          	cmpl   $0x11,-0x20(%ebp)
  413446:	7e 25                	jle    0x41346d
  413448:	83 7d 10 00          	cmpl   $0x0,0x10(%ebp)
  41344c:	74 0c                	je     0x41345a
  41344e:	c7 85 18 ff ff ff 01 	movl   $0x1,-0xe8(%ebp)
  413455:	00 00 00 
  413458:	eb 0a                	jmp    0x413464
  41345a:	c7 85 18 ff ff ff 11 	movl   $0x11,-0xe8(%ebp)
  413461:	00 00 00 
  413464:	8b 85 18 ff ff ff    	mov    -0xe8(%ebp),%eax
  41346a:	89 45 e0             	mov    %eax,-0x20(%ebp)
  41346d:	eb 24                	jmp    0x413493
  41346f:	8b f4                	mov    %esp,%esi
  413471:	6a 20                	push   $0x20
  413473:	ff 15 0c e2 41 00    	call   *0x41e20c
  413479:	83 c4 04             	add    $0x4,%esp
  41347c:	3b f4                	cmp    %esp,%esi
  41347e:	e8 48 de ff ff       	call   0x4112cb
  413483:	eb 0e                	jmp    0x413493
  413485:	c7 45 f8 00 00 00 00 	movl   $0x0,-0x8(%ebp)
  41348c:	eb 05                	jmp    0x413493
  41348e:	e9 57 fd ff ff       	jmp    0x4131ea
  413493:	8b 45 e0             	mov    -0x20(%ebp),%eax
  413496:	50                   	push   %eax
  413497:	8b 4d ec             	mov    -0x14(%ebp),%ecx
  41349a:	51                   	push   %ecx
  41349b:	8b 55 08             	mov    0x8(%ebp),%edx
  41349e:	52                   	push   %edx
  41349f:	e8 a6 dc ff ff       	call   0x41114a
  4134a4:	83 c4 0c             	add    $0xc,%esp
  4134a7:	e9 3e fd ff ff       	jmp    0x4131ea
  4134ac:	33 c0                	xor    %eax,%eax
  4134ae:	5f                   	pop    %edi
  4134af:	5e                   	pop    %esi
  4134b0:	5b                   	pop    %ebx
  4134b1:	81 c4 e8 00 00 00    	add    $0xe8,%esp
  4134b7:	3b ec                	cmp    %esp,%ebp
  4134b9:	e8 0d de ff ff       	call   0x4112cb
  4134be:	8b e5                	mov    %ebp,%esp
  4134c0:	5d                   	pop    %ebp
  4134c1:	c3                   	ret
  4134c2:	66 90                	xchg   %ax,%ax
  4134c4:	6f                   	outsl  %ds:(%esi),(%dx)
  4134c5:	34 41                	xor    $0x41,%al
  4134c7:	00 ed                	add    %ch,%ch
  4134c9:	33 41 00             	xor    0x0(%ecx),%eax
  4134cc:	60                   	pusha
  4134cd:	33 41 00             	xor    0x0(%ecx),%eax
  4134d0:	2e 34 41             	cs xor $0x41,%al
  4134d3:	00 a4 33 41 00 85 34 	add    %ah,0x34850041(%ebx,%esi,1)
  4134da:	41                   	inc    %ecx
  4134db:	00 3c 32             	add    %bh,(%edx,%esi,1)
  4134de:	41                   	inc    %ecx
  4134df:	00 8e 34 41 00 00    	add    %cl,0x4134(%esi)
  4134e5:	07                   	pop    %es
  4134e6:	07                   	pop    %es
  4134e7:	07                   	pop    %es
  4134e8:	07                   	pop    %es
  4134e9:	07                   	pop    %es
  4134ea:	07                   	pop    %es
  4134eb:	07                   	pop    %es
  4134ec:	07                   	pop    %es
  4134ed:	07                   	pop    %es
  4134ee:	07                   	pop    %es
  4134ef:	07                   	pop    %es
  4134f0:	07                   	pop    %es
  4134f1:	07                   	pop    %es
  4134f2:	07                   	pop    %es
  4134f3:	07                   	pop    %es
  4134f4:	07                   	pop    %es
  4134f5:	07                   	pop    %es
  4134f6:	07                   	pop    %es
  4134f7:	07                   	pop    %es
  4134f8:	07                   	pop    %es
  4134f9:	07                   	pop    %es
  4134fa:	07                   	pop    %es
  4134fb:	07                   	pop    %es
  4134fc:	07                   	pop    %es
  4134fd:	07                   	pop    %es
  4134fe:	07                   	pop    %es
  4134ff:	07                   	pop    %es
  413500:	07                   	pop    %es
  413501:	07                   	pop    %es
  413502:	07                   	pop    %es
  413503:	07                   	pop    %es
  413504:	07                   	pop    %es
  413505:	07                   	pop    %es
  413506:	07                   	pop    %es
  413507:	07                   	pop    %es
  413508:	07                   	pop    %es
  413509:	07                   	pop    %es
  41350a:	07                   	pop    %es
  41350b:	07                   	pop    %es
  41350c:	07                   	pop    %es
  41350d:	01 02                	add    %eax,(%edx)
  41350f:	03 04 07             	add    (%edi,%eax,1),%eax
  413512:	07                   	pop    %es
  413513:	07                   	pop    %es
  413514:	07                   	pop    %es
  413515:	05 07 07 07 07       	add    $0x7070707,%eax
  41351a:	07                   	pop    %es
  41351b:	07                   	pop    %es
  41351c:	07                   	pop    %es
  41351d:	07                   	pop    %es
  41351e:	07                   	pop    %es
  41351f:	07                   	pop    %es
  413520:	07                   	pop    %es
  413521:	07                   	pop    %es
  413522:	07                   	pop    %es
  413523:	07                   	pop    %es
  413524:	07                   	pop    %es
  413525:	07                   	pop    %es
  413526:	07                   	pop    %es
  413527:	07                   	pop    %es
  413528:	07                   	pop    %es
  413529:	07                   	pop    %es
  41352a:	07                   	pop    %es
  41352b:	07                   	pop    %es
  41352c:	07                   	pop    %es
  41352d:	01 02                	add    %eax,(%edx)
  41352f:	03 04 07             	add    (%edi,%eax,1),%eax
  413532:	07                   	pop    %es
  413533:	07                   	pop    %es
  413534:	07                   	pop    %es
  413535:	05 07 07 07 07       	add    $0x7070707,%eax
  41353a:	07                   	pop    %es
  41353b:	07                   	pop    %es
  41353c:	07                   	pop    %es
  41353d:	07                   	pop    %es
  41353e:	07                   	pop    %es
  41353f:	07                   	pop    %es
  413540:	07                   	pop    %es
  413541:	07                   	pop    %es
  413542:	07                   	pop    %es
  413543:	07                   	pop    %es
  413544:	07                   	pop    %es
  413545:	07                   	pop    %es
  413546:	07                   	pop    %es
  413547:	07                   	pop    %es
  413548:	07                   	pop    %es
  413549:	07                   	pop    %es
  41354a:	07                   	pop    %es
  41354b:	07                   	pop    %es
  41354c:	07                   	pop    %es
  41354d:	07                   	pop    %es
  41354e:	07                   	pop    %es
  41354f:	07                   	pop    %es
  413550:	07                   	pop    %es
  413551:	07                   	pop    %es
  413552:	07                   	pop    %es
  413553:	07                   	pop    %es
  413554:	07                   	pop    %es
  413555:	07                   	pop    %es
  413556:	07                   	pop    %es
  413557:	07                   	pop    %es
  413558:	07                   	pop    %es
  413559:	07                   	pop    %es
  41355a:	07                   	pop    %es
  41355b:	07                   	pop    %es
  41355c:	07                   	pop    %es
  41355d:	07                   	pop    %es
  41355e:	07                   	pop    %es
  41355f:	07                   	pop    %es
  413560:	07                   	pop    %es
  413561:	07                   	pop    %es
  413562:	07                   	pop    %es
  413563:	07                   	pop    %es
  413564:	07                   	pop    %es
  413565:	07                   	pop    %es
  413566:	07                   	pop    %es
  413567:	07                   	pop    %es
  413568:	07                   	pop    %es
  413569:	07                   	pop    %es
  41356a:	07                   	pop    %es
  41356b:	07                   	pop    %es
  41356c:	07                   	pop    %es
  41356d:	07                   	pop    %es
  41356e:	07                   	pop    %es
  41356f:	07                   	pop    %es
  413570:	07                   	pop    %es
  413571:	07                   	pop    %es
  413572:	07                   	pop    %es
  413573:	07                   	pop    %es
  413574:	07                   	pop    %es
  413575:	07                   	pop    %es
  413576:	07                   	pop    %es
  413577:	07                   	pop    %es
  413578:	07                   	pop    %es
  413579:	07                   	pop    %es
  41357a:	07                   	pop    %es
  41357b:	07                   	pop    %es
  41357c:	07                   	pop    %es
  41357d:	07                   	pop    %es
  41357e:	07                   	pop    %es
  41357f:	07                   	pop    %es
  413580:	07                   	pop    %es
  413581:	07                   	pop    %es
  413582:	07                   	pop    %es
  413583:	07                   	pop    %es
  413584:	07                   	pop    %es
  413585:	07                   	pop    %es
  413586:	07                   	pop    %es
  413587:	07                   	pop    %es
  413588:	07                   	pop    %es
  413589:	07                   	pop    %es
  41358a:	07                   	pop    %es
  41358b:	07                   	pop    %es
  41358c:	07                   	pop    %es
  41358d:	07                   	pop    %es
  41358e:	07                   	pop    %es
  41358f:	07                   	pop    %es
  413590:	07                   	pop    %es
  413591:	07                   	pop    %es
  413592:	07                   	pop    %es
  413593:	07                   	pop    %es
  413594:	07                   	pop    %es
  413595:	07                   	pop    %es
  413596:	07                   	pop    %es
  413597:	07                   	pop    %es
  413598:	07                   	pop    %es
  413599:	07                   	pop    %es
  41359a:	07                   	pop    %es
  41359b:	07                   	pop    %es
  41359c:	07                   	pop    %es
  41359d:	07                   	pop    %es
  41359e:	07                   	pop    %es
  41359f:	07                   	pop    %es
  4135a0:	07                   	pop    %es
  4135a1:	07                   	pop    %es
  4135a2:	07                   	pop    %es
  4135a3:	07                   	pop    %es
  4135a4:	06                   	push   %es
  4135a5:	0f 1f 00             	nopl   (%eax)
  4135a8:	f1                   	int1
  4135a9:	32 41 00             	xor    0x0(%ecx),%al
  4135ac:	5b                   	pop    %ebx
  4135ad:	33 41 00             	xor    0x0(%ecx),%eax
  4135b0:	5b                   	pop    %ebx
  4135b1:	33 41 00             	xor    0x0(%ecx),%eax
  4135b4:	82 32 41             	xorb   $0x41,(%edx)
  4135b7:	00 5b 33             	add    %bl,0x33(%ebx)
  4135ba:	41                   	inc    %ecx
  4135bb:	00 bb 32 41 00 5b    	add    %bh,0x5b004132(%ebx)
  4135c1:	33 41 00             	xor    0x0(%ecx),%eax
  4135c4:	5b                   	pop    %ebx
  4135c5:	33 41 00             	xor    0x0(%ecx),%eax
  4135c8:	27                   	daa
  4135c9:	33 41 00             	xor    0x0(%ecx),%eax
  4135cc:	cc                   	int3
  4135cd:	cc                   	int3
  4135ce:	cc                   	int3
  4135cf:	cc                   	int3
  4135d0:	cc                   	int3
  4135d1:	cc                   	int3
  4135d2:	cc                   	int3
  4135d3:	cc                   	int3
  4135d4:	cc                   	int3
  4135d5:	cc                   	int3
  4135d6:	cc                   	int3
  4135d7:	cc                   	int3
  4135d8:	cc                   	int3
  4135d9:	cc                   	int3
  4135da:	cc                   	int3
  4135db:	cc                   	int3
  4135dc:	cc                   	int3
  4135dd:	cc                   	int3
  4135de:	cc                   	int3
  4135df:	cc                   	int3
  4135e0:	cc                   	int3
  4135e1:	cc                   	int3
  4135e2:	cc                   	int3
  4135e3:	cc                   	int3
  4135e4:	cc                   	int3
  4135e5:	cc                   	int3
  4135e6:	cc                   	int3
  4135e7:	cc                   	int3
  4135e8:	cc                   	int3
  4135e9:	cc                   	int3
  4135ea:	cc                   	int3
  4135eb:	cc                   	int3
  4135ec:	cc                   	int3
  4135ed:	cc                   	int3
  4135ee:	cc                   	int3
  4135ef:	cc                   	int3
  4135f0:	cc                   	int3
  4135f1:	cc                   	int3
  4135f2:	cc                   	int3
  4135f3:	cc                   	int3
  4135f4:	cc                   	int3
  4135f5:	cc                   	int3
  4135f6:	cc                   	int3
  4135f7:	cc                   	int3
  4135f8:	cc                   	int3
  4135f9:	cc                   	int3
  4135fa:	cc                   	int3
  4135fb:	cc                   	int3
  4135fc:	cc                   	int3
  4135fd:	cc                   	int3
  4135fe:	cc                   	int3
  4135ff:	cc                   	int3
  413600:	cc                   	int3
  413601:	cc                   	int3
  413602:	cc                   	int3
  413603:	cc                   	int3
  413604:	cc                   	int3
  413605:	cc                   	int3
  413606:	cc                   	int3
  413607:	cc                   	int3
  413608:	cc                   	int3
  413609:	cc                   	int3
  41360a:	cc                   	int3
  41360b:	cc                   	int3
  41360c:	cc                   	int3
  41360d:	cc                   	int3
  41360e:	cc                   	int3
  41360f:	cc                   	int3
  413610:	cc                   	int3
  413611:	cc                   	int3
  413612:	cc                   	int3
  413613:	cc                   	int3
  413614:	cc                   	int3
  413615:	cc                   	int3
  413616:	cc                   	int3
  413617:	cc                   	int3
  413618:	cc                   	int3
  413619:	cc                   	int3
  41361a:	cc                   	int3
  41361b:	cc                   	int3
  41361c:	cc                   	int3
  41361d:	cc                   	int3
  41361e:	cc                   	int3
  41361f:	cc                   	int3
  413620:	cc                   	int3
  413621:	cc                   	int3
  413622:	cc                   	int3
  413623:	cc                   	int3
  413624:	cc                   	int3
  413625:	cc                   	int3
  413626:	cc                   	int3
  413627:	cc                   	int3
  413628:	cc                   	int3
  413629:	cc                   	int3
  41362a:	cc                   	int3
  41362b:	cc                   	int3
  41362c:	cc                   	int3
  41362d:	cc                   	int3
  41362e:	cc                   	int3
  41362f:	cc                   	int3
  413630:	cc                   	int3
  413631:	cc                   	int3
  413632:	cc                   	int3
  413633:	cc                   	int3
  413634:	cc                   	int3
  413635:	cc                   	int3
  413636:	cc                   	int3
  413637:	cc                   	int3
  413638:	cc                   	int3
  413639:	cc                   	int3
  41363a:	cc                   	int3
  41363b:	cc                   	int3
  41363c:	cc                   	int3
  41363d:	cc                   	int3
  41363e:	cc                   	int3
  41363f:	cc                   	int3
  413640:	cc                   	int3
  413641:	cc                   	int3
  413642:	cc                   	int3
  413643:	cc                   	int3
  413644:	cc                   	int3
  413645:	cc                   	int3
  413646:	cc                   	int3
  413647:	cc                   	int3
  413648:	cc                   	int3
  413649:	cc                   	int3
  41364a:	cc                   	int3
  41364b:	cc                   	int3
  41364c:	cc                   	int3
  41364d:	cc                   	int3
  41364e:	cc                   	int3
  41364f:	cc                   	int3
  413650:	cc                   	int3
  413651:	cc                   	int3
  413652:	cc                   	int3
  413653:	cc                   	int3
  413654:	cc                   	int3
  413655:	cc                   	int3
  413656:	cc                   	int3
  413657:	cc                   	int3
  413658:	cc                   	int3
  413659:	cc                   	int3
  41365a:	cc                   	int3
  41365b:	cc                   	int3
  41365c:	cc                   	int3
  41365d:	cc                   	int3
  41365e:	cc                   	int3
  41365f:	cc                   	int3
  413660:	cc                   	int3
  413661:	cc                   	int3
  413662:	cc                   	int3
  413663:	cc                   	int3
  413664:	cc                   	int3
  413665:	cc                   	int3
  413666:	cc                   	int3
  413667:	cc                   	int3
  413668:	cc                   	int3
  413669:	cc                   	int3
  41366a:	cc                   	int3
  41366b:	cc                   	int3
  41366c:	cc                   	int3
  41366d:	cc                   	int3
  41366e:	cc                   	int3
  41366f:	cc                   	int3
  413670:	cc                   	int3
  413671:	cc                   	int3
  413672:	cc                   	int3
  413673:	cc                   	int3
  413674:	cc                   	int3
  413675:	cc                   	int3
  413676:	cc                   	int3
  413677:	cc                   	int3
  413678:	cc                   	int3
  413679:	cc                   	int3
  41367a:	cc                   	int3
  41367b:	cc                   	int3
  41367c:	cc                   	int3
  41367d:	cc                   	int3
  41367e:	cc                   	int3
  41367f:	cc                   	int3
  413680:	cc                   	int3
  413681:	cc                   	int3
  413682:	cc                   	int3
  413683:	cc                   	int3
  413684:	cc                   	int3
  413685:	cc                   	int3
  413686:	cc                   	int3
  413687:	cc                   	int3
  413688:	cc                   	int3
  413689:	cc                   	int3
  41368a:	cc                   	int3
  41368b:	cc                   	int3
  41368c:	cc                   	int3
  41368d:	cc                   	int3
  41368e:	cc                   	int3
  41368f:	cc                   	int3
  413690:	cc                   	int3
  413691:	cc                   	int3
  413692:	cc                   	int3
  413693:	cc                   	int3
  413694:	cc                   	int3
  413695:	cc                   	int3
  413696:	cc                   	int3
  413697:	cc                   	int3
  413698:	cc                   	int3
  413699:	cc                   	int3
  41369a:	cc                   	int3
  41369b:	cc                   	int3
  41369c:	cc                   	int3
  41369d:	cc                   	int3
  41369e:	cc                   	int3
  41369f:	cc                   	int3
  4136a0:	cc                   	int3
  4136a1:	cc                   	int3
  4136a2:	cc                   	int3
  4136a3:	cc                   	int3
  4136a4:	cc                   	int3
  4136a5:	cc                   	int3
  4136a6:	cc                   	int3
  4136a7:	cc                   	int3
  4136a8:	cc                   	int3
  4136a9:	cc                   	int3
  4136aa:	cc                   	int3
  4136ab:	cc                   	int3
  4136ac:	cc                   	int3
  4136ad:	cc                   	int3
  4136ae:	cc                   	int3
  4136af:	cc                   	int3
  4136b0:	cc                   	int3
  4136b1:	cc                   	int3
  4136b2:	cc                   	int3
  4136b3:	cc                   	int3
  4136b4:	cc                   	int3
  4136b5:	cc                   	int3
  4136b6:	cc                   	int3
  4136b7:	cc                   	int3
  4136b8:	cc                   	int3
  4136b9:	cc                   	int3
  4136ba:	cc                   	int3
  4136bb:	cc                   	int3
  4136bc:	cc                   	int3
  4136bd:	cc                   	int3
  4136be:	cc                   	int3
  4136bf:	cc                   	int3
  4136c0:	cc                   	int3
  4136c1:	cc                   	int3
  4136c2:	cc                   	int3
  4136c3:	cc                   	int3
  4136c4:	cc                   	int3
  4136c5:	cc                   	int3
  4136c6:	cc                   	int3
  4136c7:	cc                   	int3
  4136c8:	cc                   	int3
  4136c9:	cc                   	int3
  4136ca:	cc                   	int3
  4136cb:	cc                   	int3
  4136cc:	cc                   	int3
  4136cd:	cc                   	int3
  4136ce:	cc                   	int3
  4136cf:	cc                   	int3
  4136d0:	cc                   	int3
  4136d1:	cc                   	int3
  4136d2:	cc                   	int3
  4136d3:	cc                   	int3
  4136d4:	cc                   	int3
  4136d5:	cc                   	int3
  4136d6:	cc                   	int3
  4136d7:	cc                   	int3
  4136d8:	cc                   	int3
  4136d9:	cc                   	int3
  4136da:	cc                   	int3
  4136db:	cc                   	int3
  4136dc:	cc                   	int3
  4136dd:	cc                   	int3
  4136de:	cc                   	int3
  4136df:	cc                   	int3
  4136e0:	55                   	push   %ebp
  4136e1:	8b ec                	mov    %esp,%ebp
  4136e3:	81 ec e8 00 00 00    	sub    $0xe8,%esp
  4136e9:	53                   	push   %ebx
  4136ea:	56                   	push   %esi
  4136eb:	57                   	push   %edi
  4136ec:	8d 7d d8             	lea    -0x28(%ebp),%edi
  4136ef:	b9 0a 00 00 00       	mov    $0xa,%ecx
  4136f4:	b8 cc cc cc cc       	mov    $0xcccccccc,%eax
  4136f9:	f3 ab                	rep stos %eax,%es:(%edi)
  4136fb:	b9 f4 00 42 00       	mov    $0x4200f4,%ecx
  413700:	e8 c5 dc ff ff       	call   0x4113ca
  413705:	c7 45 f8 01 00 00 00 	movl   $0x1,-0x8(%ebp)
  41370c:	8b 45 08             	mov    0x8(%ebp),%eax
  41370f:	50                   	push   %eax
  413710:	e8 6d d9 ff ff       	call   0x411082
  413715:	83 c4 04             	add    $0x4,%esp
  413718:	c7 45 ec 23 00 00 00 	movl   $0x23,-0x14(%ebp)
  41371f:	c7 45 e0 09 00 00 00 	movl   $0x9,-0x20(%ebp)
  413726:	8b 45 e0             	mov    -0x20(%ebp),%eax
  413729:	50                   	push   %eax
  41372a:	8b 4d ec             	mov    -0x14(%ebp),%ecx
  41372d:	51                   	push   %ecx
  41372e:	8b 55 08             	mov    0x8(%ebp),%edx
  413731:	52                   	push   %edx
  413732:	e8 13 da ff ff       	call   0x41114a
  413737:	83 c4 0c             	add    $0xc,%esp
  41373a:	83 7d f8 00          	cmpl   $0x0,-0x8(%ebp)
  41373e:	0f 84 65 01 00 00    	je     0x4138a9
  413744:	8b f4                	mov    %esp,%esi
  413746:	ff 15 04 e2 41 00    	call   *0x41e204
  41374c:	3b f4                	cmp    %esp,%esi
  41374e:	e8 78 db ff ff       	call   0x4112cb
  413753:	89 85 18 ff ff ff    	mov    %eax,-0xe8(%ebp)
  413759:	8b 85 18 ff ff ff    	mov    -0xe8(%ebp),%eax
  41375f:	83 e8 20             	sub    $0x20,%eax
  413762:	89 85 18 ff ff ff    	mov    %eax,-0xe8(%ebp)
  413768:	83 bd 18 ff ff ff 51 	cmpl   $0x51,-0xe8(%ebp)
  41376f:	0f 87 16 01 00 00    	ja     0x41388b
  413775:	8b 8d 18 ff ff ff    	mov    -0xe8(%ebp),%ecx
  41377b:	0f b6 91 dc 38 41 00 	movzbl 0x4138dc(%ecx),%edx
  413782:	ff 24 95 c0 38 41 00 	jmp    *0x4138c0(,%edx,4)
  413789:	8b 45 ec             	mov    -0x14(%ebp),%eax
  41378c:	83 e8 01             	sub    $0x1,%eax
  41378f:	89 45 ec             	mov    %eax,-0x14(%ebp)
  413792:	83 7d ec 01          	cmpl   $0x1,-0x14(%ebp)
  413796:	7d 25                	jge    0x4137bd
  413798:	83 7d 0c 00          	cmpl   $0x0,0xc(%ebp)
  41379c:	74 0c                	je     0x4137aa
  41379e:	c7 85 18 ff ff ff 45 	movl   $0x45,-0xe8(%ebp)
  4137a5:	00 00 00 
  4137a8:	eb 0a                	jmp    0x4137b4
  4137aa:	c7 85 18 ff ff ff 01 	movl   $0x1,-0xe8(%ebp)
  4137b1:	00 00 00 
  4137b4:	8b 85 18 ff ff ff    	mov    -0xe8(%ebp),%eax
  4137ba:	89 45 ec             	mov    %eax,-0x14(%ebp)
  4137bd:	e9 ce 00 00 00       	jmp    0x413890
  4137c2:	8b 45 ec             	mov    -0x14(%ebp),%eax
  4137c5:	83 c0 01             	add    $0x1,%eax
  4137c8:	89 45 ec             	mov    %eax,-0x14(%ebp)
  4137cb:	83 7d ec 45          	cmpl   $0x45,-0x14(%ebp)
  4137cf:	7e 25                	jle    0x4137f6
  4137d1:	83 7d 0c 00          	cmpl   $0x0,0xc(%ebp)
  4137d5:	74 0c                	je     0x4137e3
  4137d7:	c7 85 18 ff ff ff 01 	movl   $0x1,-0xe8(%ebp)
  4137de:	00 00 00 
  4137e1:	eb 0a                	jmp    0x4137ed
  4137e3:	c7 85 18 ff ff ff 45 	movl   $0x45,-0xe8(%ebp)
  4137ea:	00 00 00 
  4137ed:	8b 85 18 ff ff ff    	mov    -0xe8(%ebp),%eax
  4137f3:	89 45 ec             	mov    %eax,-0x14(%ebp)
  4137f6:	e9 95 00 00 00       	jmp    0x413890
  4137fb:	e9 90 00 00 00       	jmp    0x413890
  413800:	8b 45 e0             	mov    -0x20(%ebp),%eax
  413803:	83 e8 01             	sub    $0x1,%eax
  413806:	89 45 e0             	mov    %eax,-0x20(%ebp)
  413809:	83 7d e0 01          	cmpl   $0x1,-0x20(%ebp)
  41380d:	7d 25                	jge    0x413834
  41380f:	83 7d 0c 00          	cmpl   $0x0,0xc(%ebp)
  413813:	74 0c                	je     0x413821
  413815:	c7 85 18 ff ff ff 11 	movl   $0x11,-0xe8(%ebp)
  41381c:	00 00 00 
  41381f:	eb 0a                	jmp    0x41382b
  413821:	c7 85 18 ff ff ff 01 	movl   $0x1,-0xe8(%ebp)
  413828:	00 00 00 
  41382b:	8b 85 18 ff ff ff    	mov    -0xe8(%ebp),%eax
  413831:	89 45 e0             	mov    %eax,-0x20(%ebp)
  413834:	eb 5a                	jmp    0x413890
  413836:	8b 45 e0             	mov    -0x20(%ebp),%eax
  413839:	83 c0 01             	add    $0x1,%eax
  41383c:	89 45 e0             	mov    %eax,-0x20(%ebp)
  41383f:	83 7d e0 11          	cmpl   $0x11,-0x20(%ebp)
  413843:	7e 25                	jle    0x41386a
  413845:	83 7d 0c 00          	cmpl   $0x0,0xc(%ebp)
  413849:	74 0c                	je     0x413857
  41384b:	c7 85 18 ff ff ff 01 	movl   $0x1,-0xe8(%ebp)
  413852:	00 00 00 
  413855:	eb 0a                	jmp    0x413861
  413857:	c7 85 18 ff ff ff 11 	movl   $0x11,-0xe8(%ebp)
  41385e:	00 00 00 
  413861:	8b 85 18 ff ff ff    	mov    -0xe8(%ebp),%eax
  413867:	89 45 e0             	mov    %eax,-0x20(%ebp)
  41386a:	eb 24                	jmp    0x413890
  41386c:	8b f4                	mov    %esp,%esi
  41386e:	6a 20                	push   $0x20
  413870:	ff 15 0c e2 41 00    	call   *0x41e20c
  413876:	83 c4 04             	add    $0x4,%esp
  413879:	3b f4                	cmp    %esp,%esi
  41387b:	e8 4b da ff ff       	call   0x4112cb
  413880:	eb 0e                	jmp    0x413890
  413882:	c7 45 f8 00 00 00 00 	movl   $0x0,-0x8(%ebp)
  413889:	eb 05                	jmp    0x413890
  41388b:	e9 aa fe ff ff       	jmp    0x41373a
  413890:	8b 45 e0             	mov    -0x20(%ebp),%eax
  413893:	50                   	push   %eax
  413894:	8b 4d ec             	mov    -0x14(%ebp),%ecx
  413897:	51                   	push   %ecx
  413898:	8b 55 08             	mov    0x8(%ebp),%edx
  41389b:	52                   	push   %edx
  41389c:	e8 a9 d8 ff ff       	call   0x41114a
  4138a1:	83 c4 0c             	add    $0xc,%esp
  4138a4:	e9 91 fe ff ff       	jmp    0x41373a
  4138a9:	33 c0                	xor    %eax,%eax
  4138ab:	5f                   	pop    %edi
  4138ac:	5e                   	pop    %esi
  4138ad:	5b                   	pop    %ebx
  4138ae:	81 c4 e8 00 00 00    	add    $0xe8,%esp
  4138b4:	3b ec                	cmp    %esp,%ebp
  4138b6:	e8 10 da ff ff       	call   0x4112cb
  4138bb:	8b e5                	mov    %ebp,%esp
  4138bd:	5d                   	pop    %ebp
  4138be:	c3                   	ret
  4138bf:	90                   	nop
  4138c0:	6c                   	insb   (%dx),%es:(%edi)
  4138c1:	38 41 00             	cmp    %al,0x0(%ecx)
  4138c4:	00 38                	add    %bh,(%eax)
  4138c6:	41                   	inc    %ecx
  4138c7:	00 89 37 41 00 c2    	add    %cl,-0x3dffbec9(%ecx)
  4138cd:	37                   	aaa
  4138ce:	41                   	inc    %ecx
  4138cf:	00 36                	add    %dh,(%esi)
  4138d1:	38 41 00             	cmp    %al,0x0(%ecx)
  4138d4:	82 38 41             	cmpb   $0x41,(%eax)
  4138d7:	00 8b 38 41 00 00    	add    %cl,0x4138(%ebx)
  4138dd:	06                   	push   %es
  4138de:	06                   	push   %es
  4138df:	06                   	push   %es
  4138e0:	06                   	push   %es
  4138e1:	06                   	push   %es
  4138e2:	06                   	push   %es
  4138e3:	06                   	push   %es
  4138e4:	06                   	push   %es
  4138e5:	06                   	push   %es
  4138e6:	06                   	push   %es
  4138e7:	06                   	push   %es
  4138e8:	06                   	push   %es
  4138e9:	06                   	push   %es
  4138ea:	06                   	push   %es
  4138eb:	06                   	push   %es
  4138ec:	06                   	push   %es
  4138ed:	06                   	push   %es
  4138ee:	06                   	push   %es
  4138ef:	06                   	push   %es
  4138f0:	06                   	push   %es
  4138f1:	06                   	push   %es
  4138f2:	06                   	push   %es
  4138f3:	06                   	push   %es
  4138f4:	06                   	push   %es
  4138f5:	06                   	push   %es
  4138f6:	06                   	push   %es
  4138f7:	06                   	push   %es
  4138f8:	06                   	push   %es
  4138f9:	06                   	push   %es
  4138fa:	06                   	push   %es
  4138fb:	06                   	push   %es
  4138fc:	06                   	push   %es
  4138fd:	06                   	push   %es
  4138fe:	06                   	push   %es
  4138ff:	06                   	push   %es
  413900:	06                   	push   %es
  413901:	06                   	push   %es
  413902:	06                   	push   %es
  413903:	06                   	push   %es
  413904:	01 06                	add    %eax,(%esi)
  413906:	06                   	push   %es
  413907:	02 06                	add    (%esi),%al
  413909:	03 06                	add    (%esi),%eax
  41390b:	06                   	push   %es
  41390c:	04 05                	add    $0x5,%al
  41390e:	06                   	push   %es
  41390f:	06                   	push   %es
  413910:	06                   	push   %es
  413911:	06                   	push   %es
  413912:	06                   	push   %es
  413913:	06                   	push   %es
  413914:	06                   	push   %es
  413915:	06                   	push   %es
  413916:	06                   	push   %es
  413917:	06                   	push   %es
  413918:	06                   	push   %es
  413919:	06                   	push   %es
  41391a:	06                   	push   %es
  41391b:	06                   	push   %es
  41391c:	06                   	push   %es
  41391d:	06                   	push   %es
  41391e:	06                   	push   %es
  41391f:	06                   	push   %es
  413920:	06                   	push   %es
  413921:	06                   	push   %es
  413922:	06                   	push   %es
  413923:	06                   	push   %es
  413924:	06                   	push   %es
  413925:	06                   	push   %es
  413926:	06                   	push   %es
  413927:	06                   	push   %es
  413928:	06                   	push   %es
  413929:	06                   	push   %es
  41392a:	06                   	push   %es
  41392b:	06                   	push   %es
  41392c:	06                   	push   %es
  41392d:	05 cc cc cc cc       	add    $0xcccccccc,%eax
  413932:	cc                   	int3
  413933:	cc                   	int3
  413934:	cc                   	int3
  413935:	cc                   	int3
  413936:	cc                   	int3
  413937:	cc                   	int3
  413938:	cc                   	int3
  413939:	cc                   	int3
  41393a:	cc                   	int3
  41393b:	cc                   	int3
  41393c:	cc                   	int3
  41393d:	cc                   	int3
  41393e:	cc                   	int3
  41393f:	cc                   	int3
  413940:	cc                   	int3
  413941:	cc                   	int3
  413942:	cc                   	int3
  413943:	cc                   	int3
  413944:	cc                   	int3
  413945:	cc                   	int3
  413946:	cc                   	int3
  413947:	cc                   	int3
  413948:	cc                   	int3
  413949:	cc                   	int3
  41394a:	cc                   	int3
  41394b:	cc                   	int3
  41394c:	cc                   	int3
  41394d:	cc                   	int3
  41394e:	cc                   	int3
  41394f:	cc                   	int3
  413950:	cc                   	int3
  413951:	cc                   	int3
  413952:	cc                   	int3
  413953:	cc                   	int3
  413954:	cc                   	int3
  413955:	cc                   	int3
  413956:	cc                   	int3
  413957:	cc                   	int3
  413958:	cc                   	int3
  413959:	cc                   	int3
  41395a:	cc                   	int3
  41395b:	cc                   	int3
  41395c:	cc                   	int3
  41395d:	cc                   	int3
  41395e:	cc                   	int3
  41395f:	cc                   	int3
  413960:	cc                   	int3
  413961:	cc                   	int3
  413962:	cc                   	int3
  413963:	cc                   	int3
  413964:	cc                   	int3
  413965:	cc                   	int3
  413966:	cc                   	int3
  413967:	cc                   	int3
  413968:	cc                   	int3
  413969:	cc                   	int3
  41396a:	cc                   	int3
  41396b:	cc                   	int3
  41396c:	cc                   	int3
  41396d:	cc                   	int3
  41396e:	cc                   	int3
  41396f:	cc                   	int3
  413970:	cc                   	int3
  413971:	cc                   	int3
  413972:	cc                   	int3
  413973:	cc                   	int3
  413974:	cc                   	int3
  413975:	cc                   	int3
  413976:	cc                   	int3
  413977:	cc                   	int3
  413978:	cc                   	int3
  413979:	cc                   	int3
  41397a:	cc                   	int3
  41397b:	cc                   	int3
  41397c:	cc                   	int3
  41397d:	cc                   	int3
  41397e:	cc                   	int3
  41397f:	cc                   	int3
  413980:	cc                   	int3
  413981:	cc                   	int3
  413982:	cc                   	int3
  413983:	cc                   	int3
  413984:	cc                   	int3
  413985:	cc                   	int3
  413986:	cc                   	int3
  413987:	cc                   	int3
  413988:	cc                   	int3
  413989:	cc                   	int3
  41398a:	cc                   	int3
  41398b:	cc                   	int3
  41398c:	cc                   	int3
  41398d:	cc                   	int3
  41398e:	cc                   	int3
  41398f:	cc                   	int3
  413990:	cc                   	int3
  413991:	cc                   	int3
  413992:	cc                   	int3
  413993:	cc                   	int3
  413994:	cc                   	int3
  413995:	cc                   	int3
  413996:	cc                   	int3
  413997:	cc                   	int3
  413998:	cc                   	int3
  413999:	cc                   	int3
  41399a:	cc                   	int3
  41399b:	cc                   	int3
  41399c:	cc                   	int3
  41399d:	cc                   	int3
  41399e:	cc                   	int3
  41399f:	cc                   	int3
  4139a0:	cc                   	int3
  4139a1:	cc                   	int3
  4139a2:	cc                   	int3
  4139a3:	cc                   	int3
  4139a4:	cc                   	int3
  4139a5:	cc                   	int3
  4139a6:	cc                   	int3
  4139a7:	cc                   	int3
  4139a8:	cc                   	int3
  4139a9:	cc                   	int3
  4139aa:	cc                   	int3
  4139ab:	cc                   	int3
  4139ac:	cc                   	int3
  4139ad:	cc                   	int3
  4139ae:	cc                   	int3
  4139af:	cc                   	int3
  4139b0:	cc                   	int3
  4139b1:	cc                   	int3
  4139b2:	cc                   	int3
  4139b3:	cc                   	int3
  4139b4:	cc                   	int3
  4139b5:	cc                   	int3
  4139b6:	cc                   	int3
  4139b7:	cc                   	int3
  4139b8:	cc                   	int3
  4139b9:	cc                   	int3
  4139ba:	cc                   	int3
  4139bb:	cc                   	int3
  4139bc:	cc                   	int3
  4139bd:	cc                   	int3
  4139be:	cc                   	int3
  4139bf:	cc                   	int3
  4139c0:	cc                   	int3
  4139c1:	cc                   	int3
  4139c2:	cc                   	int3
  4139c3:	cc                   	int3
  4139c4:	cc                   	int3
  4139c5:	cc                   	int3
  4139c6:	cc                   	int3
  4139c7:	cc                   	int3
  4139c8:	cc                   	int3
  4139c9:	cc                   	int3
  4139ca:	cc                   	int3
  4139cb:	cc                   	int3
  4139cc:	cc                   	int3
  4139cd:	cc                   	int3
  4139ce:	cc                   	int3
  4139cf:	cc                   	int3
  4139d0:	55                   	push   %ebp
  4139d1:	8b ec                	mov    %esp,%ebp
  4139d3:	81 ec c0 00 00 00    	sub    $0xc0,%esp
  4139d9:	53                   	push   %ebx
  4139da:	56                   	push   %esi
  4139db:	57                   	push   %edi
  4139dc:	8b fd                	mov    %ebp,%edi
  4139de:	33 c9                	xor    %ecx,%ecx
  4139e0:	b8 cc cc cc cc       	mov    $0xcccccccc,%eax
  4139e5:	f3 ab                	rep stos %eax,%es:(%edi)
  4139e7:	b9 f4 00 42 00       	mov    $0x4200f4,%ecx
  4139ec:	e8 d9 d9 ff ff       	call   0x4113ca
  4139f1:	8b 45 10             	mov    0x10(%ebp),%eax
  4139f4:	50                   	push   %eax
  4139f5:	8b 4d 0c             	mov    0xc(%ebp),%ecx
  4139f8:	51                   	push   %ecx
  4139f9:	8b 55 08             	mov    0x8(%ebp),%edx
  4139fc:	52                   	push   %edx
  4139fd:	e8 48 d7 ff ff       	call   0x41114a
  413a02:	83 c4 0c             	add    $0xc,%esp
  413a05:	0f be 45 14          	movsbl 0x14(%ebp),%eax
  413a09:	8b f4                	mov    %esp,%esi
  413a0b:	50                   	push   %eax
  413a0c:	ff 15 0c e2 41 00    	call   *0x41e20c
  413a12:	83 c4 04             	add    $0x4,%esp
  413a15:	3b f4                	cmp    %esp,%esi
  413a17:	e8 af d8 ff ff       	call   0x4112cb
  413a1c:	5f                   	pop    %edi
  413a1d:	5e                   	pop    %esi
  413a1e:	5b                   	pop    %ebx
  413a1f:	81 c4 c0 00 00 00    	add    $0xc0,%esp
  413a25:	3b ec                	cmp    %esp,%ebp
  413a27:	e8 9f d8 ff ff       	call   0x4112cb
  413a2c:	8b e5                	mov    %ebp,%esp
  413a2e:	5d                   	pop    %ebp
  413a2f:	c3                   	ret
  413a30:	cc                   	int3
  413a31:	cc                   	int3
  413a32:	cc                   	int3
  413a33:	cc                   	int3
  413a34:	cc                   	int3
  413a35:	cc                   	int3
  413a36:	cc                   	int3
  413a37:	cc                   	int3
  413a38:	cc                   	int3
  413a39:	cc                   	int3
  413a3a:	cc                   	int3
  413a3b:	cc                   	int3
  413a3c:	cc                   	int3
  413a3d:	cc                   	int3
  413a3e:	cc                   	int3
  413a3f:	cc                   	int3
  413a40:	cc                   	int3
  413a41:	cc                   	int3
  413a42:	cc                   	int3
  413a43:	cc                   	int3
  413a44:	cc                   	int3
  413a45:	cc                   	int3
  413a46:	cc                   	int3
  413a47:	cc                   	int3
  413a48:	cc                   	int3
  413a49:	cc                   	int3
  413a4a:	cc                   	int3
  413a4b:	cc                   	int3
  413a4c:	cc                   	int3
  413a4d:	cc                   	int3
  413a4e:	cc                   	int3
  413a4f:	cc                   	int3
  413a50:	55                   	push   %ebp
  413a51:	8b ec                	mov    %esp,%ebp
  413a53:	5d                   	pop    %ebp
  413a54:	c3                   	ret
  413a55:	cc                   	int3
  413a56:	cc                   	int3
  413a57:	cc                   	int3
  413a58:	cc                   	int3
  413a59:	cc                   	int3
  413a5a:	cc                   	int3
  413a5b:	cc                   	int3
  413a5c:	cc                   	int3
  413a5d:	cc                   	int3
  413a5e:	cc                   	int3
  413a5f:	cc                   	int3
  413a60:	55                   	push   %ebp
  413a61:	8b ec                	mov    %esp,%ebp
  413a63:	81 ec e8 00 00 00    	sub    $0xe8,%esp
  413a69:	53                   	push   %ebx
  413a6a:	56                   	push   %esi
  413a6b:	57                   	push   %edi
  413a6c:	8d 7d d8             	lea    -0x28(%ebp),%edi
  413a6f:	b9 0a 00 00 00       	mov    $0xa,%ecx
  413a74:	b8 cc cc cc cc       	mov    $0xcccccccc,%eax
  413a79:	f3 ab                	rep stos %eax,%es:(%edi)
  413a7b:	b9 f4 00 42 00       	mov    $0x4200f4,%ecx
  413a80:	e8 45 d9 ff ff       	call   0x4113ca
  413a85:	8b f4                	mov    %esp,%esi
  413a87:	6a f5                	push   $0xfffffff5
  413a89:	ff 15 00 e0 41 00    	call   *0x41e000
  413a8f:	3b f4                	cmp    %esp,%esi
  413a91:	e8 35 d8 ff ff       	call   0x4112cb
  413a96:	89 45 f8             	mov    %eax,-0x8(%ebp)
  413a99:	c7 45 e0 01 00 00 00 	movl   $0x1,-0x20(%ebp)
  413aa0:	83 7d e0 00          	cmpl   $0x0,-0x20(%ebp)
  413aa4:	0f 84 d3 00 00 00    	je     0x413b7d
  413aaa:	8b 45 f8             	mov    -0x8(%ebp),%eax
  413aad:	50                   	push   %eax
  413aae:	e8 60 d6 ff ff       	call   0x411113
  413ab3:	83 c4 04             	add    $0x4,%esp
  413ab6:	88 45 ef             	mov    %al,-0x11(%ebp)
  413ab9:	0f be 45 ef          	movsbl -0x11(%ebp),%eax
  413abd:	89 85 18 ff ff ff    	mov    %eax,-0xe8(%ebp)
  413ac3:	8b 8d 18 ff ff ff    	mov    -0xe8(%ebp),%ecx
  413ac9:	83 e9 30             	sub    $0x30,%ecx
  413acc:	89 8d 18 ff ff ff    	mov    %ecx,-0xe8(%ebp)
  413ad2:	83 bd 18 ff ff ff 06 	cmpl   $0x6,-0xe8(%ebp)
  413ad9:	77 5f                	ja     0x413b3a
  413adb:	8b 95 18 ff ff ff    	mov    -0xe8(%ebp),%edx
  413ae1:	ff 24 95 94 3b 41 00 	jmp    *0x413b94(,%edx,4)
  413ae8:	0f be 45 ef          	movsbl -0x11(%ebp),%eax
  413aec:	83 e8 31             	sub    $0x31,%eax
  413aef:	50                   	push   %eax
  413af0:	6a 00                	push   $0x0
  413af2:	8b 4d f8             	mov    -0x8(%ebp),%ecx
  413af5:	51                   	push   %ecx
  413af6:	e8 36 d6 ff ff       	call   0x411131
  413afb:	83 c4 0c             	add    $0xc,%esp
  413afe:	eb 3f                	jmp    0x413b3f
  413b00:	0f be 45 ef          	movsbl -0x11(%ebp),%eax
  413b04:	83 e8 33             	sub    $0x33,%eax
  413b07:	50                   	push   %eax
  413b08:	6a 01                	push   $0x1
  413b0a:	8b 4d f8             	mov    -0x8(%ebp),%ecx
  413b0d:	51                   	push   %ecx
  413b0e:	e8 1e d6 ff ff       	call   0x411131
  413b13:	83 c4 0c             	add    $0xc,%esp
  413b16:	eb 27                	jmp    0x413b3f
  413b18:	0f be 45 ef          	movsbl -0x11(%ebp),%eax
  413b1c:	83 e8 35             	sub    $0x35,%eax
  413b1f:	50                   	push   %eax
  413b20:	8b 4d f8             	mov    -0x8(%ebp),%ecx
  413b23:	51                   	push   %ecx
  413b24:	e8 25 d7 ff ff       	call   0x41124e
  413b29:	83 c4 08             	add    $0x8,%esp
  413b2c:	eb 11                	jmp    0x413b3f
  413b2e:	c7 45 e0 00 00 00 00 	movl   $0x0,-0x20(%ebp)
  413b35:	e9 66 ff ff ff       	jmp    0x413aa0
  413b3a:	e9 61 ff ff ff       	jmp    0x413aa0
  413b3f:	6a 17                	push   $0x17
  413b41:	6a 00                	push   $0x0
  413b43:	8b 45 f8             	mov    -0x8(%ebp),%eax
  413b46:	50                   	push   %eax
  413b47:	e8 fe d5 ff ff       	call   0x41114a
  413b4c:	83 c4 0c             	add    $0xc,%esp
  413b4f:	68 d4 ac 41 00       	push   $0x41acd4
  413b54:	a1 b0 e0 41 00       	mov    0x41e0b0,%eax
  413b59:	50                   	push   %eax
  413b5a:	e8 72 d6 ff ff       	call   0x4111d1
  413b5f:	83 c4 08             	add    $0x8,%esp
  413b62:	8b f4                	mov    %esp,%esi
  413b64:	ff 15 04 e2 41 00    	call   *0x41e204
  413b6a:	3b f4                	cmp    %esp,%esi
  413b6c:	e8 5a d7 ff ff       	call   0x4112cb
  413b71:	83 f8 0d             	cmp    $0xd,%eax
  413b74:	74 02                	je     0x413b78
  413b76:	eb ea                	jmp    0x413b62
  413b78:	e9 23 ff ff ff       	jmp    0x413aa0
  413b7d:	33 c0                	xor    %eax,%eax
  413b7f:	5f                   	pop    %edi
  413b80:	5e                   	pop    %esi
  413b81:	5b                   	pop    %ebx
  413b82:	81 c4 e8 00 00 00    	add    $0xe8,%esp
  413b88:	3b ec                	cmp    %esp,%ebp
  413b8a:	e8 3c d7 ff ff       	call   0x4112cb
  413b8f:	8b e5                	mov    %ebp,%esp
  413b91:	5d                   	pop    %ebp
  413b92:	c3                   	ret
  413b93:	90                   	nop
  413b94:	2e 3b 41 00          	cmp    %cs:0x0(%ecx),%eax
  413b98:	e8 3a 41 00 e8       	call   0xe8417cd7
  413b9d:	3a 41 00             	cmp    0x0(%ecx),%al
  413ba0:	00 3b                	add    %bh,(%ebx)
  413ba2:	41                   	inc    %ecx
  413ba3:	00 00                	add    %al,(%eax)
  413ba5:	3b 41 00             	cmp    0x0(%ecx),%eax
  413ba8:	18 3b                	sbb    %bh,(%ebx)
  413baa:	41                   	inc    %ecx
  413bab:	00 18                	add    %bl,(%eax)
  413bad:	3b 41 00             	cmp    0x0(%ecx),%eax
  413bb0:	cc                   	int3
  413bb1:	cc                   	int3
  413bb2:	cc                   	int3
  413bb3:	cc                   	int3
  413bb4:	cc                   	int3
  413bb5:	cc                   	int3
  413bb6:	cc                   	int3
  413bb7:	cc                   	int3
  413bb8:	cc                   	int3
  413bb9:	cc                   	int3
  413bba:	cc                   	int3
  413bbb:	cc                   	int3
  413bbc:	cc                   	int3
  413bbd:	cc                   	int3
  413bbe:	cc                   	int3
  413bbf:	cc                   	int3
  413bc0:	cc                   	int3
  413bc1:	cc                   	int3
  413bc2:	cc                   	int3
  413bc3:	cc                   	int3
  413bc4:	cc                   	int3
  413bc5:	cc                   	int3
  413bc6:	cc                   	int3
  413bc7:	cc                   	int3
  413bc8:	cc                   	int3
  413bc9:	cc                   	int3
  413bca:	cc                   	int3
  413bcb:	cc                   	int3
  413bcc:	cc                   	int3
  413bcd:	cc                   	int3
  413bce:	cc                   	int3
  413bcf:	cc                   	int3
  413bd0:	cc                   	int3
  413bd1:	cc                   	int3
  413bd2:	cc                   	int3
  413bd3:	cc                   	int3
  413bd4:	cc                   	int3
  413bd5:	cc                   	int3
  413bd6:	cc                   	int3
  413bd7:	cc                   	int3
  413bd8:	cc                   	int3
  413bd9:	cc                   	int3
  413bda:	cc                   	int3
  413bdb:	cc                   	int3
  413bdc:	cc                   	int3
  413bdd:	cc                   	int3
  413bde:	cc                   	int3
  413bdf:	cc                   	int3
  413be0:	cc                   	int3
  413be1:	cc                   	int3
  413be2:	cc                   	int3
  413be3:	cc                   	int3
  413be4:	cc                   	int3
  413be5:	cc                   	int3
  413be6:	cc                   	int3
  413be7:	cc                   	int3
  413be8:	cc                   	int3
  413be9:	cc                   	int3
  413bea:	cc                   	int3
  413beb:	cc                   	int3
  413bec:	cc                   	int3
  413bed:	cc                   	int3
  413bee:	cc                   	int3
  413bef:	cc                   	int3
  413bf0:	cc                   	int3
  413bf1:	cc                   	int3
  413bf2:	cc                   	int3
  413bf3:	cc                   	int3
  413bf4:	cc                   	int3
  413bf5:	cc                   	int3
  413bf6:	cc                   	int3
  413bf7:	cc                   	int3
  413bf8:	cc                   	int3
  413bf9:	cc                   	int3
  413bfa:	cc                   	int3
  413bfb:	cc                   	int3
  413bfc:	cc                   	int3
  413bfd:	cc                   	int3
  413bfe:	cc                   	int3
  413bff:	cc                   	int3
  413c00:	cc                   	int3
  413c01:	cc                   	int3
  413c02:	cc                   	int3
  413c03:	cc                   	int3
  413c04:	ff 25 00 e0 41 00    	jmp    *0x41e000
  413c0a:	ff 25 04 e0 41 00    	jmp    *0x41e004
  413c10:	ff 25 08 e0 41 00    	jmp    *0x41e008
  413c16:	ff 25 0c e0 41 00    	jmp    *0x41e00c
  413c1c:	ff 25 10 e0 41 00    	jmp    *0x41e010
  413c22:	ff 25 f0 e0 41 00    	jmp    *0x41e0f0
  413c28:	ff 25 c0 e0 41 00    	jmp    *0x41e0c0
  413c2e:	ff 25 c4 e0 41 00    	jmp    *0x41e0c4
  413c34:	ff 25 c8 e0 41 00    	jmp    *0x41e0c8
  413c3a:	ff 25 cc e0 41 00    	jmp    *0x41e0cc
  413c40:	ff 25 d0 e0 41 00    	jmp    *0x41e0d0
  413c46:	ff 25 d4 e0 41 00    	jmp    *0x41e0d4
  413c4c:	ff 25 d8 e0 41 00    	jmp    *0x41e0d8
  413c52:	ff 25 dc e0 41 00    	jmp    *0x41e0dc
  413c58:	ff 25 e0 e0 41 00    	jmp    *0x41e0e0
  413c5e:	ff 25 e4 e0 41 00    	jmp    *0x41e0e4
  413c64:	ff 25 e8 e0 41 00    	jmp    *0x41e0e8
  413c6a:	ff 25 ec e0 41 00    	jmp    *0x41e0ec
  413c70:	ff 25 bc e0 41 00    	jmp    *0x41e0bc
  413c76:	ff 25 b8 e0 41 00    	jmp    *0x41e0b8
  413c7c:	ff 25 b4 e0 41 00    	jmp    *0x41e0b4
  413c82:	cc                   	int3
  413c83:	cc                   	int3
  413c84:	cc                   	int3
  413c85:	cc                   	int3
  413c86:	cc                   	int3
  413c87:	cc                   	int3
  413c88:	cc                   	int3
  413c89:	cc                   	int3
  413c8a:	cc                   	int3
  413c8b:	cc                   	int3
  413c8c:	cc                   	int3
  413c8d:	cc                   	int3
  413c8e:	cc                   	int3
  413c8f:	cc                   	int3
  413c90:	55                   	push   %ebp
  413c91:	8b ec                	mov    %esp,%ebp
  413c93:	53                   	push   %ebx
  413c94:	56                   	push   %esi
  413c95:	8b f1                	mov    %ecx,%esi
  413c97:	8b da                	mov    %edx,%ebx
  413c99:	85 f6                	test   %esi,%esi
  413c9b:	74 1f                	je     0x413cbc
  413c9d:	85 db                	test   %ebx,%ebx
  413c9f:	74 1b                	je     0x413cbc
  413ca1:	8b 55 08             	mov    0x8(%ebp),%edx
  413ca4:	85 d2                	test   %edx,%edx
  413ca6:	74 14                	je     0x413cbc
  413ca8:	57                   	push   %edi
  413ca9:	b0 cc                	mov    $0xcc,%al
  413cab:	8b fe                	mov    %esi,%edi
  413cad:	8b cb                	mov    %ebx,%ecx
  413caf:	f3 aa                	rep stos %al,%es:(%edi)
  413cb1:	8b 02                	mov    (%edx),%eax
  413cb3:	89 46 04             	mov    %eax,0x4(%esi)
  413cb6:	89 5e 0c             	mov    %ebx,0xc(%esi)
  413cb9:	89 32                	mov    %esi,(%edx)
  413cbb:	5f                   	pop    %edi
  413cbc:	5e                   	pop    %esi
  413cbd:	5b                   	pop    %ebx
  413cbe:	5d                   	pop    %ebp
  413cbf:	c2 04 00             	ret    $0x4
  413cc2:	cc                   	int3
  413cc3:	cc                   	int3
  413cc4:	cc                   	int3
  413cc5:	cc                   	int3
  413cc6:	cc                   	int3
  413cc7:	cc                   	int3
  413cc8:	cc                   	int3
  413cc9:	cc                   	int3
  413cca:	cc                   	int3
  413ccb:	cc                   	int3
  413ccc:	cc                   	int3
  413ccd:	cc                   	int3
  413cce:	cc                   	int3
  413ccf:	cc                   	int3
  413cd0:	55                   	push   %ebp
  413cd1:	8b ec                	mov    %esp,%ebp
  413cd3:	83 ec 08             	sub    $0x8,%esp
  413cd6:	89 4d fc             	mov    %ecx,-0x4(%ebp)
  413cd9:	56                   	push   %esi
  413cda:	8b 75 08             	mov    0x8(%ebp),%esi
  413cdd:	57                   	push   %edi
  413cde:	85 d2                	test   %edx,%edx
  413ce0:	74 4f                	je     0x413d31
  413ce2:	33 ff                	xor    %edi,%edi
  413ce4:	39 3a                	cmp    %edi,(%edx)
  413ce6:	7e 49                	jle    0x413d31
  413ce8:	53                   	push   %ebx
  413ce9:	33 db                	xor    %ebx,%ebx
  413ceb:	8b f2                	mov    %edx,%esi
  413ced:	8d 49 00             	lea    0x0(%ecx),%ecx
  413cf0:	8b 4e 04             	mov    0x4(%esi),%ecx
  413cf3:	8b 45 fc             	mov    -0x4(%ebp),%eax
  413cf6:	8b 14 19             	mov    (%ecx,%ebx,1),%edx
  413cf9:	81 7c 02 fc cc cc cc 	cmpl   $0xcccccccc,-0x4(%edx,%eax,1)
  413d00:	cc 
  413d01:	75 12                	jne    0x413d15
  413d03:	8b 44 19 04          	mov    0x4(%ecx,%ebx,1),%eax
  413d07:	03 c2                	add    %edx,%eax
  413d09:	8b 55 fc             	mov    -0x4(%ebp),%edx
  413d0c:	81 3c 10 cc cc cc cc 	cmpl   $0xcccccccc,(%eax,%edx,1)
  413d13:	74 10                	je     0x413d25
  413d15:	ff 74 19 08          	push   0x8(%ecx,%ebx,1)
  413d19:	8b 45 04             	mov    0x4(%ebp),%eax
  413d1c:	50                   	push   %eax
  413d1d:	e8 cb d6 ff ff       	call   0x4113ed
  413d22:	83 c4 08             	add    $0x8,%esp
  413d25:	47                   	inc    %edi
  413d26:	83 c3 0c             	add    $0xc,%ebx
  413d29:	3b 3e                	cmp    (%esi),%edi
  413d2b:	7c c3                	jl     0x413cf0
  413d2d:	8b 75 08             	mov    0x8(%ebp),%esi
  413d30:	5b                   	pop    %ebx
  413d31:	33 ff                	xor    %edi,%edi
  413d33:	8b c6                	mov    %esi,%eax
  413d35:	85 f6                	test   %esi,%esi
  413d37:	74 63                	je     0x413d9c
  413d39:	8d a4 24 00 00 00 00 	lea    0x0(%esp),%esp
  413d40:	8b 40 04             	mov    0x4(%eax),%eax
  413d43:	47                   	inc    %edi
  413d44:	85 c0                	test   %eax,%eax
  413d46:	75 f8                	jne    0x413d40
  413d48:	81 3e cc cc cc cc    	cmpl   $0xcccccccc,(%esi)
  413d4e:	75 1b                	jne    0x413d6b
  413d50:	81 7e 14 cc cc cc cc 	cmpl   $0xcccccccc,0x14(%esi)
  413d57:	75 12                	jne    0x413d6b
  413d59:	81 7e 18 cc cc cc cc 	cmpl   $0xcccccccc,0x18(%esi)
  413d60:	75 09                	jne    0x413d6b
  413d62:	81 7e 1c cc cc cc cc 	cmpl   $0xcccccccc,0x1c(%esi)
  413d69:	74 0e                	je     0x413d79
  413d6b:	8b 45 04             	mov    0x4(%ebp),%eax
  413d6e:	57                   	push   %edi
  413d6f:	56                   	push   %esi
  413d70:	50                   	push   %eax
  413d71:	e8 79 d4 ff ff       	call   0x4111ef
  413d76:	83 c4 0c             	add    $0xc,%esp
  413d79:	8b 46 0c             	mov    0xc(%esi),%eax
  413d7c:	81 7c 30 fc cc cc cc 	cmpl   $0xcccccccc,-0x4(%eax,%esi,1)
  413d83:	cc 
  413d84:	74 0e                	je     0x413d94
  413d86:	8b 45 04             	mov    0x4(%ebp),%eax
  413d89:	57                   	push   %edi
  413d8a:	56                   	push   %esi
  413d8b:	50                   	push   %eax
  413d8c:	e8 5e d4 ff ff       	call   0x4111ef
  413d91:	83 c4 0c             	add    $0xc,%esp
  413d94:	8b 76 04             	mov    0x4(%esi),%esi
  413d97:	4f                   	dec    %edi
  413d98:	85 f6                	test   %esi,%esi
  413d9a:	75 ac                	jne    0x413d48
  413d9c:	5f                   	pop    %edi
  413d9d:	5e                   	pop    %esi
  413d9e:	8b e5                	mov    %ebp,%esp
  413da0:	5d                   	pop    %ebp
  413da1:	c2 04 00             	ret    $0x4
  413da4:	cc                   	int3
  413da5:	cc                   	int3
  413da6:	cc                   	int3
  413da7:	cc                   	int3
  413da8:	cc                   	int3
  413da9:	cc                   	int3
  413daa:	cc                   	int3
  413dab:	cc                   	int3
  413dac:	cc                   	int3
  413dad:	cc                   	int3
  413dae:	cc                   	int3
  413daf:	cc                   	int3
  413db0:	cc                   	int3
  413db1:	cc                   	int3
  413db2:	cc                   	int3
  413db3:	cc                   	int3
  413db4:	cc                   	int3
  413db5:	cc                   	int3
  413db6:	cc                   	int3
  413db7:	cc                   	int3
  413db8:	cc                   	int3
  413db9:	cc                   	int3
  413dba:	cc                   	int3
  413dbb:	cc                   	int3
  413dbc:	cc                   	int3
  413dbd:	cc                   	int3
  413dbe:	cc                   	int3
  413dbf:	cc                   	int3
  413dc0:	cc                   	int3
  413dc1:	cc                   	int3
  413dc2:	cc                   	int3
  413dc3:	cc                   	int3
  413dc4:	cc                   	int3
  413dc5:	cc                   	int3
  413dc6:	cc                   	int3
  413dc7:	cc                   	int3
  413dc8:	cc                   	int3
  413dc9:	cc                   	int3
  413dca:	cc                   	int3
  413dcb:	cc                   	int3
  413dcc:	cc                   	int3
  413dcd:	cc                   	int3
  413dce:	cc                   	int3
  413dcf:	cc                   	int3
  413dd0:	cc                   	int3
  413dd1:	cc                   	int3
  413dd2:	cc                   	int3
  413dd3:	cc                   	int3
  413dd4:	cc                   	int3
  413dd5:	cc                   	int3
  413dd6:	cc                   	int3
  413dd7:	cc                   	int3
  413dd8:	cc                   	int3
  413dd9:	cc                   	int3
  413dda:	cc                   	int3
  413ddb:	cc                   	int3
  413ddc:	cc                   	int3
  413ddd:	cc                   	int3
  413dde:	cc                   	int3
  413ddf:	cc                   	int3
  413de0:	55                   	push   %ebp
  413de1:	8b ec                	mov    %esp,%ebp
  413de3:	51                   	push   %ecx
  413de4:	53                   	push   %ebx
  413de5:	8b da                	mov    %edx,%ebx
  413de7:	89 4d fc             	mov    %ecx,-0x4(%ebp)
  413dea:	56                   	push   %esi
  413deb:	33 f6                	xor    %esi,%esi
  413ded:	39 33                	cmp    %esi,(%ebx)
  413def:	7e 41                	jle    0x413e32
  413df1:	57                   	push   %edi
  413df2:	33 ff                	xor    %edi,%edi
  413df4:	8b 4b 04             	mov    0x4(%ebx),%ecx
  413df7:	8b 45 fc             	mov    -0x4(%ebp),%eax
  413dfa:	8b 14 39             	mov    (%ecx,%edi,1),%edx
  413dfd:	81 7c 02 fc cc cc cc 	cmpl   $0xcccccccc,-0x4(%edx,%eax,1)
  413e04:	cc 
  413e05:	75 12                	jne    0x413e19
  413e07:	8b 44 39 04          	mov    0x4(%ecx,%edi,1),%eax
  413e0b:	03 c2                	add    %edx,%eax
  413e0d:	8b 55 fc             	mov    -0x4(%ebp),%edx
  413e10:	81 3c 10 cc cc cc cc 	cmpl   $0xcccccccc,(%eax,%edx,1)
  413e17:	74 10                	je     0x413e29
  413e19:	ff 74 39 08          	push   0x8(%ecx,%edi,1)
  413e1d:	8b 45 04             	mov    0x4(%ebp),%eax
  413e20:	50                   	push   %eax
  413e21:	e8 c7 d5 ff ff       	call   0x4113ed
  413e26:	83 c4 08             	add    $0x8,%esp
  413e29:	46                   	inc    %esi
  413e2a:	83 c7 0c             	add    $0xc,%edi
  413e2d:	3b 33                	cmp    (%ebx),%esi
  413e2f:	7c c3                	jl     0x413df4
  413e31:	5f                   	pop    %edi
  413e32:	5e                   	pop    %esi
  413e33:	5b                   	pop    %ebx
  413e34:	8b e5                	mov    %ebp,%esp
  413e36:	5d                   	pop    %ebp
  413e37:	c3                   	ret
  413e38:	cc                   	int3
  413e39:	cc                   	int3
  413e3a:	cc                   	int3
  413e3b:	cc                   	int3
  413e3c:	cc                   	int3
  413e3d:	cc                   	int3
  413e3e:	cc                   	int3
  413e3f:	cc                   	int3
  413e40:	cc                   	int3
  413e41:	cc                   	int3
  413e42:	cc                   	int3
  413e43:	cc                   	int3
  413e44:	cc                   	int3
  413e45:	cc                   	int3
  413e46:	cc                   	int3
  413e47:	cc                   	int3
  413e48:	cc                   	int3
  413e49:	cc                   	int3
  413e4a:	cc                   	int3
  413e4b:	cc                   	int3
  413e4c:	cc                   	int3
  413e4d:	cc                   	int3
  413e4e:	cc                   	int3
  413e4f:	cc                   	int3
  413e50:	75 01                	jne    0x413e53
  413e52:	c3                   	ret
  413e53:	55                   	push   %ebp
  413e54:	8b ec                	mov    %esp,%ebp
  413e56:	83 ec 00             	sub    $0x0,%esp
  413e59:	50                   	push   %eax
  413e5a:	52                   	push   %edx
  413e5b:	53                   	push   %ebx
  413e5c:	56                   	push   %esi
  413e5d:	57                   	push   %edi
  413e5e:	8b 45 04             	mov    0x4(%ebp),%eax
  413e61:	6a 00                	push   $0x0
  413e63:	50                   	push   %eax
  413e64:	e8 af d2 ff ff       	call   0x411118
  413e69:	83 c4 08             	add    $0x8,%esp
  413e6c:	5f                   	pop    %edi
  413e6d:	5e                   	pop    %esi
  413e6e:	5b                   	pop    %ebx
  413e6f:	5a                   	pop    %edx
  413e70:	58                   	pop    %eax
  413e71:	8b e5                	mov    %ebp,%esp
  413e73:	5d                   	pop    %ebp
  413e74:	c3                   	ret
  413e75:	cc                   	int3
  413e76:	cc                   	int3
  413e77:	cc                   	int3
  413e78:	cc                   	int3
  413e79:	cc                   	int3
  413e7a:	cc                   	int3
  413e7b:	cc                   	int3
  413e7c:	cc                   	int3
  413e7d:	cc                   	int3
  413e7e:	cc                   	int3
  413e7f:	cc                   	int3
  413e80:	55                   	push   %ebp
  413e81:	8b ec                	mov    %esp,%ebp
  413e83:	83 ec 08             	sub    $0x8,%esp
  413e86:	89 4d fc             	mov    %ecx,-0x4(%ebp)
  413e89:	8b 45 fc             	mov    -0x4(%ebp),%eax
  413e8c:	89 45 f8             	mov    %eax,-0x8(%ebp)
  413e8f:	8b 4d fc             	mov    -0x4(%ebp),%ecx
  413e92:	0f b6 11             	movzbl (%ecx),%edx
  413e95:	85 d2                	test   %edx,%edx
  413e97:	74 18                	je     0x413eb1
  413e99:	83 3d 94 d5 41 00 00 	cmpl   $0x0,0x41d594
  413ea0:	74 0f                	je     0x413eb1
  413ea2:	ff 15 68 e0 41 00    	call   *0x41e068
  413ea8:	39 05 94 d5 41 00    	cmp    %eax,0x41d594
  413eae:	75 01                	jne    0x413eb1
  413eb0:	90                   	nop
  413eb1:	8b e5                	mov    %ebp,%esp
  413eb3:	5d                   	pop    %ebp
  413eb4:	c3                   	ret
  413eb5:	cc                   	int3
  413eb6:	cc                   	int3
  413eb7:	cc                   	int3
  413eb8:	cc                   	int3
  413eb9:	cc                   	int3
  413eba:	cc                   	int3
  413ebb:	cc                   	int3
  413ebc:	cc                   	int3
  413ebd:	cc                   	int3
  413ebe:	cc                   	int3
  413ebf:	cc                   	int3
  413ec0:	cc                   	int3
  413ec1:	cc                   	int3
  413ec2:	cc                   	int3
  413ec3:	cc                   	int3
  413ec4:	cc                   	int3
  413ec5:	cc                   	int3
  413ec6:	cc                   	int3
  413ec7:	cc                   	int3
  413ec8:	cc                   	int3
  413ec9:	cc                   	int3
  413eca:	cc                   	int3
  413ecb:	cc                   	int3
  413ecc:	cc                   	int3
  413ecd:	cc                   	int3
  413ece:	cc                   	int3
  413ecf:	cc                   	int3
  413ed0:	3b 0d 00 d0 41 00    	cmp    0x41d000,%ecx
  413ed6:	75 01                	jne    0x413ed9
  413ed8:	c3                   	ret
  413ed9:	e9 4f d1 ff ff       	jmp    0x41102d
  413ede:	cc                   	int3
  413edf:	cc                   	int3
  413ee0:	cc                   	int3
  413ee1:	cc                   	int3
  413ee2:	cc                   	int3
  413ee3:	cc                   	int3
  413ee4:	cc                   	int3
  413ee5:	cc                   	int3
  413ee6:	cc                   	int3
  413ee7:	cc                   	int3
  413ee8:	cc                   	int3
  413ee9:	cc                   	int3
  413eea:	cc                   	int3
  413eeb:	cc                   	int3
  413eec:	cc                   	int3
  413eed:	cc                   	int3
  413eee:	cc                   	int3
  413eef:	cc                   	int3
  413ef0:	b8 f2 13 41 00       	mov    $0x4113f2,%eax
  413ef5:	c3                   	ret
  413ef6:	cc                   	int3
  413ef7:	cc                   	int3
  413ef8:	cc                   	int3
  413ef9:	cc                   	int3
  413efa:	cc                   	int3
  413efb:	cc                   	int3
  413efc:	cc                   	int3
  413efd:	cc                   	int3
  413efe:	cc                   	int3
  413eff:	cc                   	int3
  413f00:	b8 0e 11 41 00       	mov    $0x41110e,%eax
  413f05:	c3                   	ret
  413f06:	cc                   	int3
  413f07:	cc                   	int3
  413f08:	cc                   	int3
  413f09:	cc                   	int3
  413f0a:	cc                   	int3
  413f0b:	cc                   	int3
  413f0c:	cc                   	int3
  413f0d:	cc                   	int3
  413f0e:	cc                   	int3
  413f0f:	cc                   	int3
  413f10:	80 3d 38 d1 41 00 00 	cmpb   $0x0,0x41d138
  413f17:	75 1f                	jne    0x413f38
  413f19:	6a 00                	push   $0x0
  413f1b:	6a 01                	push   $0x1
  413f1d:	6a 00                	push   $0x0
  413f1f:	6a 00                	push   $0x0
  413f21:	6a 00                	push   $0x0
  413f23:	c6 05 38 d1 41 00 01 	movb   $0x1,0x41d138
  413f2a:	e8 cb d1 ff ff       	call   0x4110fa
  413f2f:	50                   	push   %eax
  413f30:	e8 a4 d4 ff ff       	call   0x4113d9
  413f35:	83 c4 18             	add    $0x18,%esp
  413f38:	c3                   	ret
  413f39:	cc                   	int3
  413f3a:	cc                   	int3
  413f3b:	cc                   	int3
  413f3c:	cc                   	int3
  413f3d:	cc                   	int3
  413f3e:	cc                   	int3
  413f3f:	cc                   	int3
  413f40:	cc                   	int3
  413f41:	cc                   	int3
  413f42:	cc                   	int3
  413f43:	cc                   	int3
  413f44:	cc                   	int3
  413f45:	cc                   	int3
  413f46:	cc                   	int3
  413f47:	cc                   	int3
  413f48:	cc                   	int3
  413f49:	cc                   	int3
  413f4a:	cc                   	int3
  413f4b:	cc                   	int3
  413f4c:	cc                   	int3
  413f4d:	cc                   	int3
  413f4e:	cc                   	int3
  413f4f:	cc                   	int3
  413f50:	6a 01                	push   $0x1
  413f52:	6a 01                	push   $0x1
  413f54:	6a 00                	push   $0x0
  413f56:	6a 00                	push   $0x0
  413f58:	6a 00                	push   $0x0
  413f5a:	e8 9b d1 ff ff       	call   0x4110fa
  413f5f:	83 c4 14             	add    $0x14,%esp
  413f62:	c3                   	ret
  413f63:	cc                   	int3
  413f64:	cc                   	int3
  413f65:	cc                   	int3
  413f66:	cc                   	int3
  413f67:	cc                   	int3
  413f68:	cc                   	int3
  413f69:	cc                   	int3
  413f6a:	cc                   	int3
  413f6b:	cc                   	int3
  413f6c:	cc                   	int3
  413f6d:	cc                   	int3
  413f6e:	cc                   	int3
  413f6f:	cc                   	int3
  413f70:	55                   	push   %ebp
  413f71:	8b ec                	mov    %esp,%ebp
  413f73:	e8 5f d1 ff ff       	call   0x4110d7
  413f78:	e8 07 d4 ff ff       	call   0x411384
  413f7d:	e8 8d d0 ff ff       	call   0x41100f
  413f82:	6a 01                	push   $0x1
  413f84:	e8 02 d2 ff ff       	call   0x41118b
  413f89:	83 c4 04             	add    $0x4,%esp
  413f8c:	0f b6 c0             	movzbl %al,%eax
  413f8f:	85 c0                	test   %eax,%eax
  413f91:	75 07                	jne    0x413f9a
  413f93:	6a 07                	push   $0x7
  413f95:	e8 af d2 ff ff       	call   0x411249
  413f9a:	db e2                	fnclex
  413f9c:	e8 69 d0 ff ff       	call   0x41100a
  413fa1:	68 08 12 41 00       	push   $0x411208
  413fa6:	e8 c6 d2 ff ff       	call   0x411271
  413fab:	83 c4 04             	add    $0x4,%esp
  413fae:	e8 d7 d2 ff ff       	call   0x41128a
  413fb3:	85 c0                	test   %eax,%eax
  413fb5:	74 07                	je     0x413fbe
  413fb7:	6a 07                	push   $0x7
  413fb9:	e8 8b d2 ff ff       	call   0x411249
  413fbe:	e8 f6 d0 ff ff       	call   0x4110b9
  413fc3:	e8 c7 d2 ff ff       	call   0x41128f
  413fc8:	85 c0                	test   %eax,%eax
  413fca:	74 0d                	je     0x413fd9
  413fcc:	68 3b 11 41 00       	push   $0x41113b
  413fd1:	e8 9a d3 ff ff       	call   0x411370
  413fd6:	83 c4 04             	add    $0x4,%esp
  413fd9:	e8 64 d4 ff ff       	call   0x411442
  413fde:	e8 5e d0 ff ff       	call   0x411041
  413fe3:	e8 e7 d3 ff ff       	call   0x4113cf
  413fe8:	e8 24 d3 ff ff       	call   0x411311
  413fed:	50                   	push   %eax
  413fee:	e8 e2 d2 ff ff       	call   0x4112d5
  413ff3:	83 c4 04             	add    $0x4,%esp
  413ff6:	e8 98 d3 ff ff       	call   0x411393
  413ffb:	0f b6 c8             	movzbl %al,%ecx
  413ffe:	85 c9                	test   %ecx,%ecx
  414000:	74 05                	je     0x414007
  414002:	e8 7f d1 ff ff       	call   0x411186
  414007:	e8 0a d3 ff ff       	call   0x411316
  41400c:	e8 88 d2 ff ff       	call   0x411299
  414011:	85 c0                	test   %eax,%eax
  414013:	74 07                	je     0x41401c
  414015:	6a 07                	push   $0x7
  414017:	e8 2d d2 ff ff       	call   0x411249
  41401c:	33 c0                	xor    %eax,%eax
  41401e:	5d                   	pop    %ebp
  41401f:	c3                   	ret
  414020:	cc                   	int3
  414021:	cc                   	int3
  414022:	cc                   	int3
  414023:	cc                   	int3
  414024:	cc                   	int3
  414025:	cc                   	int3
  414026:	cc                   	int3
  414027:	cc                   	int3
  414028:	cc                   	int3
  414029:	cc                   	int3
  41402a:	cc                   	int3
  41402b:	cc                   	int3
  41402c:	cc                   	int3
  41402d:	cc                   	int3
  41402e:	cc                   	int3
  41402f:	cc                   	int3
  414030:	cc                   	int3
  414031:	cc                   	int3
  414032:	cc                   	int3
  414033:	cc                   	int3
  414034:	cc                   	int3
  414035:	cc                   	int3
  414036:	cc                   	int3
  414037:	cc                   	int3
  414038:	cc                   	int3
  414039:	cc                   	int3
  41403a:	cc                   	int3
  41403b:	cc                   	int3
  41403c:	cc                   	int3
  41403d:	cc                   	int3
  41403e:	cc                   	int3
  41403f:	cc                   	int3
  414040:	cc                   	int3
  414041:	cc                   	int3
  414042:	cc                   	int3
  414043:	cc                   	int3
  414044:	cc                   	int3
  414045:	cc                   	int3
  414046:	cc                   	int3
  414047:	cc                   	int3
  414048:	cc                   	int3
  414049:	cc                   	int3
  41404a:	cc                   	int3
  41404b:	cc                   	int3
  41404c:	cc                   	int3
  41404d:	cc                   	int3
  41404e:	cc                   	int3
  41404f:	cc                   	int3
  414050:	55                   	push   %ebp
  414051:	8b ec                	mov    %esp,%ebp
  414053:	e8 6f d1 ff ff       	call   0x4111c7
  414058:	33 c0                	xor    %eax,%eax
  41405a:	5d                   	pop    %ebp
  41405b:	c3                   	ret
  41405c:	cc                   	int3
  41405d:	cc                   	int3
  41405e:	cc                   	int3
  41405f:	cc                   	int3
  414060:	55                   	push   %ebp
  414061:	8b ec                	mov    %esp,%ebp
  414063:	e8 6c d3 ff ff       	call   0x4113d4
  414068:	e8 32 d1 ff ff       	call   0x41119f
  41406d:	50                   	push   %eax
  41406e:	e8 d1 d1 ff ff       	call   0x411244
  414073:	83 c4 04             	add    $0x4,%esp
  414076:	5d                   	pop    %ebp
  414077:	c3                   	ret
  414078:	cc                   	int3
  414079:	cc                   	int3
  41407a:	cc                   	int3
  41407b:	cc                   	int3
  41407c:	cc                   	int3
  41407d:	cc                   	int3
  41407e:	cc                   	int3
  41407f:	cc                   	int3
  414080:	55                   	push   %ebp
  414081:	8b ec                	mov    %esp,%ebp
  414083:	e8 d3 d3 ff ff       	call   0x41145b
  414088:	e8 13 00 00 00       	call   0x4140a0
  41408d:	5d                   	pop    %ebp
  41408e:	c3                   	ret
  41408f:	cc                   	int3
  414090:	cc                   	int3
  414091:	cc                   	int3
  414092:	cc                   	int3
  414093:	cc                   	int3
  414094:	cc                   	int3
  414095:	cc                   	int3
  414096:	cc                   	int3
  414097:	cc                   	int3
  414098:	cc                   	int3
  414099:	cc                   	int3
  41409a:	cc                   	int3
  41409b:	cc                   	int3
  41409c:	cc                   	int3
  41409d:	cc                   	int3
  41409e:	cc                   	int3
  41409f:	cc                   	int3
  4140a0:	55                   	push   %ebp
  4140a1:	8b ec                	mov    %esp,%ebp
  4140a3:	6a fe                	push   $0xfffffffe
  4140a5:	68 78 c5 41 00       	push   $0x41c578
  4140aa:	68 40 60 41 00       	push   $0x416040
  4140af:	64 a1 00 00 00 00    	mov    %fs:0x0,%eax
  4140b5:	50                   	push   %eax
  4140b6:	83 c4 cc             	add    $0xffffffcc,%esp
  4140b9:	53                   	push   %ebx
  4140ba:	56                   	push   %esi
  4140bb:	57                   	push   %edi
  4140bc:	a1 00 d0 41 00       	mov    0x41d000,%eax
  4140c1:	31 45 f8             	xor    %eax,-0x8(%ebp)
  4140c4:	33 c5                	xor    %ebp,%eax
  4140c6:	50                   	push   %eax
  4140c7:	8d 45 f0             	lea    -0x10(%ebp),%eax
  4140ca:	64 a3 00 00 00 00    	mov    %eax,%fs:0x0
  4140d0:	89 65 e8             	mov    %esp,-0x18(%ebp)
  4140d3:	6a 01                	push   $0x1
  4140d5:	e8 73 d2 ff ff       	call   0x41134d
  4140da:	83 c4 04             	add    $0x4,%esp
  4140dd:	0f b6 c0             	movzbl %al,%eax
  4140e0:	85 c0                	test   %eax,%eax
  4140e2:	75 07                	jne    0x4140eb
  4140e4:	6a 07                	push   $0x7
  4140e6:	e8 5e d1 ff ff       	call   0x411249
  4140eb:	c6 45 e7 00          	movb   $0x0,-0x19(%ebp)
  4140ef:	c7 45 fc 00 00 00 00 	movl   $0x0,-0x4(%ebp)
  4140f6:	e8 8e d2 ff ff       	call   0x411389
  4140fb:	88 45 e6             	mov    %al,-0x1a(%ebp)
  4140fe:	83 3d 18 d5 41 00 01 	cmpl   $0x1,0x41d518
  414105:	75 09                	jne    0x414110
  414107:	6a 07                	push   $0x7
  414109:	e8 3b d1 ff ff       	call   0x411249
  41410e:	eb 61                	jmp    0x414171
  414110:	83 3d 18 d5 41 00 00 	cmpl   $0x0,0x41d518
  414117:	75 54                	jne    0x41416d
  414119:	c7 05 18 d5 41 00 01 	movl   $0x1,0x41d518
  414120:	00 00 00 
  414123:	68 18 a6 41 00       	push   $0x41a618
  414128:	68 0c a3 41 00       	push   $0x41a30c
  41412d:	e8 6e cf ff ff       	call   0x4110a0
  414132:	83 c4 08             	add    $0x8,%esp
  414135:	85 c0                	test   %eax,%eax
  414137:	74 16                	je     0x41414f
  414139:	c7 45 c8 ff 00 00 00 	movl   $0xff,-0x38(%ebp)
  414140:	c7 45 fc fe ff ff ff 	movl   $0xfffffffe,-0x4(%ebp)
  414147:	8b 45 c8             	mov    -0x38(%ebp),%eax
  41414a:	e9 53 01 00 00       	jmp    0x4142a2
  41414f:	68 08 a2 41 00       	push   $0x41a208
  414154:	68 00 a0 41 00       	push   $0x41a000
  414159:	e8 b2 d2 ff ff       	call   0x411410
  41415e:	83 c4 08             	add    $0x8,%esp
  414161:	c7 05 18 d5 41 00 02 	movl   $0x2,0x41d518
  414168:	00 00 00 
  41416b:	eb 04                	jmp    0x414171
  41416d:	c6 45 e7 01          	movb   $0x1,-0x19(%ebp)
  414171:	0f b6 4d e6          	movzbl -0x1a(%ebp),%ecx
  414175:	51                   	push   %ecx
  414176:	e8 5b d0 ff ff       	call   0x4111d6
  41417b:	83 c4 04             	add    $0x4,%esp
  41417e:	e8 e1 ce ff ff       	call   0x411064
  414183:	89 45 e0             	mov    %eax,-0x20(%ebp)
  414186:	8b 55 e0             	mov    -0x20(%ebp),%edx
  414189:	83 3a 00             	cmpl   $0x0,(%edx)
  41418c:	74 33                	je     0x4141c1
  41418e:	8b 45 e0             	mov    -0x20(%ebp),%eax
  414191:	50                   	push   %eax
  414192:	e8 e0 cf ff ff       	call   0x411177
  414197:	83 c4 04             	add    $0x4,%esp
  41419a:	0f b6 c8             	movzbl %al,%ecx
  41419d:	85 c9                	test   %ecx,%ecx
  41419f:	74 20                	je     0x4141c1
  4141a1:	8b 55 e0             	mov    -0x20(%ebp),%edx
  4141a4:	8b 02                	mov    (%edx),%eax
  4141a6:	89 45 c4             	mov    %eax,-0x3c(%ebp)
  4141a9:	6a 00                	push   $0x0
  4141ab:	6a 02                	push   $0x2
  4141ad:	6a 00                	push   $0x0
  4141af:	8b 4d c4             	mov    -0x3c(%ebp),%ecx
  4141b2:	89 4d d8             	mov    %ecx,-0x28(%ebp)
  4141b5:	8b 4d d8             	mov    -0x28(%ebp),%ecx
  4141b8:	ff 15 00 10 42 00    	call   *0x421000
  4141be:	ff 55 d8             	call   *-0x28(%ebp)
  4141c1:	e8 71 ce ff ff       	call   0x411037
  4141c6:	89 45 dc             	mov    %eax,-0x24(%ebp)
  4141c9:	8b 55 dc             	mov    -0x24(%ebp),%edx
  4141cc:	83 3a 00             	cmpl   $0x0,(%edx)
  4141cf:	74 21                	je     0x4141f2
  4141d1:	8b 45 dc             	mov    -0x24(%ebp),%eax
  4141d4:	50                   	push   %eax
  4141d5:	e8 9d cf ff ff       	call   0x411177
  4141da:	83 c4 04             	add    $0x4,%esp
  4141dd:	0f b6 c8             	movzbl %al,%ecx
  4141e0:	85 c9                	test   %ecx,%ecx
  4141e2:	74 0e                	je     0x4141f2
  4141e4:	8b 55 dc             	mov    -0x24(%ebp),%edx
  4141e7:	8b 02                	mov    (%edx),%eax
  4141e9:	50                   	push   %eax
  4141ea:	e8 51 cf ff ff       	call   0x411140
  4141ef:	83 c4 04             	add    $0x4,%esp
  4141f2:	e8 79 01 00 00       	call   0x414370
  4141f7:	89 45 d4             	mov    %eax,-0x2c(%ebp)
  4141fa:	e8 9e d1 ff ff       	call   0x41139d
  4141ff:	0f b6 c8             	movzbl %al,%ecx
  414202:	85 c9                	test   %ecx,%ecx
  414204:	75 09                	jne    0x41420f
  414206:	8b 55 d4             	mov    -0x2c(%ebp),%edx
  414209:	52                   	push   %edx
  41420a:	e8 71 d0 ff ff       	call   0x411280
  41420f:	0f b6 45 e7          	movzbl -0x19(%ebp),%eax
  414213:	85 c0                	test   %eax,%eax
  414215:	75 05                	jne    0x41421c
  414217:	e8 53 d2 ff ff       	call   0x41146f
  41421c:	6a 00                	push   $0x0
  41421e:	6a 01                	push   $0x1
  414220:	e8 c5 cf ff ff       	call   0x4111ea
  414225:	83 c4 08             	add    $0x8,%esp
  414228:	8b 4d d4             	mov    -0x2c(%ebp),%ecx
  41422b:	89 4d c0             	mov    %ecx,-0x40(%ebp)
  41422e:	c7 45 fc fe ff ff ff 	movl   $0xfffffffe,-0x4(%ebp)
  414235:	8b 45 c0             	mov    -0x40(%ebp),%eax
  414238:	eb 68                	jmp    0x4142a2
  41423a:	c7 45 fc fe ff ff ff 	movl   $0xfffffffe,-0x4(%ebp)
  414241:	eb 5f                	jmp    0x4142a2
  414243:	8b 55 ec             	mov    -0x14(%ebp),%edx
  414246:	8b 02                	mov    (%edx),%eax
  414248:	8b 08                	mov    (%eax),%ecx
  41424a:	89 4d d0             	mov    %ecx,-0x30(%ebp)
  41424d:	8b 55 ec             	mov    -0x14(%ebp),%edx
  414250:	52                   	push   %edx
  414251:	8b 45 d0             	mov    -0x30(%ebp),%eax
  414254:	50                   	push   %eax
  414255:	e8 04 cf ff ff       	call   0x41115e
  41425a:	83 c4 08             	add    $0x8,%esp
  41425d:	c3                   	ret
  41425e:	8b 65 e8             	mov    -0x18(%ebp),%esp
  414261:	8b 4d d0             	mov    -0x30(%ebp),%ecx
  414264:	89 4d cc             	mov    %ecx,-0x34(%ebp)
  414267:	e8 31 d1 ff ff       	call   0x41139d
  41426c:	0f b6 d0             	movzbl %al,%edx
  41426f:	85 d2                	test   %edx,%edx
  414271:	75 09                	jne    0x41427c
  414273:	8b 45 cc             	mov    -0x34(%ebp),%eax
  414276:	50                   	push   %eax
  414277:	e8 8f d1 ff ff       	call   0x41140b
  41427c:	0f b6 4d e7          	movzbl -0x19(%ebp),%ecx
  414280:	85 c9                	test   %ecx,%ecx
  414282:	75 05                	jne    0x414289
  414284:	e8 1f d0 ff ff       	call   0x4112a8
  414289:	8b 55 cc             	mov    -0x34(%ebp),%edx
  41428c:	89 55 bc             	mov    %edx,-0x44(%ebp)
  41428f:	c7 45 fc fe ff ff ff 	movl   $0xfffffffe,-0x4(%ebp)
  414296:	8b 45 bc             	mov    -0x44(%ebp),%eax
  414299:	eb 07                	jmp    0x4142a2
  41429b:	c7 45 fc fe ff ff ff 	movl   $0xfffffffe,-0x4(%ebp)
  4142a2:	8b 4d f0             	mov    -0x10(%ebp),%ecx
  4142a5:	64 89 0d 00 00 00 00 	mov    %ecx,%fs:0x0
  4142ac:	59                   	pop    %ecx
  4142ad:	5f                   	pop    %edi
  4142ae:	5e                   	pop    %esi
  4142af:	5b                   	pop    %ebx
  4142b0:	8b e5                	mov    %ebp,%esp
  4142b2:	5d                   	pop    %ebp
  4142b3:	c3                   	ret
  4142b4:	cc                   	int3
  4142b5:	cc                   	int3
  4142b6:	cc                   	int3
  4142b7:	cc                   	int3
  4142b8:	cc                   	int3
  4142b9:	cc                   	int3
  4142ba:	cc                   	int3
  4142bb:	cc                   	int3
  4142bc:	cc                   	int3
  4142bd:	cc                   	int3
  4142be:	cc                   	int3
  4142bf:	cc                   	int3
  4142c0:	cc                   	int3
  4142c1:	cc                   	int3
  4142c2:	cc                   	int3
  4142c3:	cc                   	int3
  4142c4:	cc                   	int3
  4142c5:	cc                   	int3
  4142c6:	cc                   	int3
  4142c7:	cc                   	int3
  4142c8:	cc                   	int3
  4142c9:	cc                   	int3
  4142ca:	cc                   	int3
  4142cb:	cc                   	int3
  4142cc:	cc                   	int3
  4142cd:	cc                   	int3
  4142ce:	cc                   	int3
  4142cf:	cc                   	int3
  4142d0:	cc                   	int3
  4142d1:	cc                   	int3
  4142d2:	cc                   	int3
  4142d3:	cc                   	int3
  4142d4:	cc                   	int3
  4142d5:	cc                   	int3
  4142d6:	cc                   	int3
  4142d7:	cc                   	int3
  4142d8:	cc                   	int3
  4142d9:	cc                   	int3
  4142da:	cc                   	int3
  4142db:	cc                   	int3
  4142dc:	cc                   	int3
  4142dd:	cc                   	int3
  4142de:	cc                   	int3
  4142df:	cc                   	int3
  4142e0:	cc                   	int3
  4142e1:	cc                   	int3
  4142e2:	cc                   	int3
  4142e3:	cc                   	int3
  4142e4:	cc                   	int3
  4142e5:	cc                   	int3
  4142e6:	cc                   	int3
  4142e7:	cc                   	int3
  4142e8:	cc                   	int3
  4142e9:	cc                   	int3
  4142ea:	cc                   	int3
  4142eb:	cc                   	int3
  4142ec:	cc                   	int3
  4142ed:	cc                   	int3
  4142ee:	cc                   	int3
  4142ef:	cc                   	int3
  4142f0:	cc                   	int3
  4142f1:	cc                   	int3
  4142f2:	cc                   	int3
  4142f3:	cc                   	int3
  4142f4:	cc                   	int3
  4142f5:	cc                   	int3
  4142f6:	cc                   	int3
  4142f7:	cc                   	int3
  4142f8:	cc                   	int3
  4142f9:	cc                   	int3
  4142fa:	cc                   	int3
  4142fb:	cc                   	int3
  4142fc:	cc                   	int3
  4142fd:	cc                   	int3
  4142fe:	cc                   	int3
  4142ff:	cc                   	int3
  414300:	cc                   	int3
  414301:	cc                   	int3
  414302:	cc                   	int3
  414303:	cc                   	int3
  414304:	cc                   	int3
  414305:	cc                   	int3
  414306:	cc                   	int3
  414307:	cc                   	int3
  414308:	cc                   	int3
  414309:	cc                   	int3
  41430a:	cc                   	int3
  41430b:	cc                   	int3
  41430c:	cc                   	int3
  41430d:	cc                   	int3
  41430e:	cc                   	int3
  41430f:	cc                   	int3
  414310:	cc                   	int3
  414311:	cc                   	int3
  414312:	cc                   	int3
  414313:	cc                   	int3
  414314:	cc                   	int3
  414315:	cc                   	int3
  414316:	cc                   	int3
  414317:	cc                   	int3
  414318:	cc                   	int3
  414319:	cc                   	int3
  41431a:	cc                   	int3
  41431b:	cc                   	int3
  41431c:	cc                   	int3
  41431d:	cc                   	int3
  41431e:	cc                   	int3
  41431f:	cc                   	int3
  414320:	cc                   	int3
  414321:	cc                   	int3
  414322:	cc                   	int3
  414323:	cc                   	int3
  414324:	cc                   	int3
  414325:	cc                   	int3
  414326:	cc                   	int3
  414327:	cc                   	int3
  414328:	cc                   	int3
  414329:	cc                   	int3
  41432a:	cc                   	int3
  41432b:	cc                   	int3
  41432c:	cc                   	int3
  41432d:	cc                   	int3
  41432e:	cc                   	int3
  41432f:	cc                   	int3
  414330:	cc                   	int3
  414331:	cc                   	int3
  414332:	cc                   	int3
  414333:	cc                   	int3
  414334:	cc                   	int3
  414335:	cc                   	int3
  414336:	cc                   	int3
  414337:	cc                   	int3
  414338:	cc                   	int3
  414339:	cc                   	int3
  41433a:	cc                   	int3
  41433b:	cc                   	int3
  41433c:	cc                   	int3
  41433d:	cc                   	int3
  41433e:	cc                   	int3
  41433f:	cc                   	int3
  414340:	55                   	push   %ebp
  414341:	8b ec                	mov    %esp,%ebp
  414343:	e8 e7 cf ff ff       	call   0x41132f
  414348:	50                   	push   %eax
  414349:	e8 e5 d0 ff ff       	call   0x411433
  41434e:	83 c4 04             	add    $0x4,%esp
  414351:	5d                   	pop    %ebp
  414352:	c3                   	ret
  414353:	cc                   	int3
  414354:	cc                   	int3
  414355:	cc                   	int3
  414356:	cc                   	int3
  414357:	cc                   	int3
  414358:	cc                   	int3
  414359:	cc                   	int3
  41435a:	cc                   	int3
  41435b:	cc                   	int3
  41435c:	cc                   	int3
  41435d:	cc                   	int3
  41435e:	cc                   	int3
  41435f:	cc                   	int3
  414360:	55                   	push   %ebp
  414361:	8b ec                	mov    %esp,%ebp
  414363:	e8 42 cd ff ff       	call   0x4110aa
  414368:	5d                   	pop    %ebp
  414369:	c3                   	ret
  41436a:	cc                   	int3
  41436b:	cc                   	int3
  41436c:	cc                   	int3
  41436d:	cc                   	int3
  41436e:	cc                   	int3
  41436f:	cc                   	int3
  414370:	55                   	push   %ebp
  414371:	8b ec                	mov    %esp,%ebp
  414373:	83 ec 0c             	sub    $0xc,%esp
  414376:	e8 c3 cf ff ff       	call   0x41133e
  41437b:	89 45 fc             	mov    %eax,-0x4(%ebp)
  41437e:	e8 c5 cf ff ff       	call   0x411348
  414383:	8b 00                	mov    (%eax),%eax
  414385:	89 45 f8             	mov    %eax,-0x8(%ebp)
  414388:	e8 ff cc ff ff       	call   0x41108c
  41438d:	8b 08                	mov    (%eax),%ecx
  41438f:	89 4d f4             	mov    %ecx,-0xc(%ebp)
  414392:	8b 55 fc             	mov    -0x4(%ebp),%edx
  414395:	52                   	push   %edx
  414396:	8b 45 f8             	mov    -0x8(%ebp),%eax
  414399:	50                   	push   %eax
  41439a:	8b 4d f4             	mov    -0xc(%ebp),%ecx
  41439d:	51                   	push   %ecx
  41439e:	e8 dc cf ff ff       	call   0x41137f
  4143a3:	83 c4 0c             	add    $0xc,%esp
  4143a6:	8b e5                	mov    %ebp,%esp
  4143a8:	5d                   	pop    %ebp
  4143a9:	c3                   	ret
  4143aa:	cc                   	int3
  4143ab:	cc                   	int3
  4143ac:	cc                   	int3
  4143ad:	cc                   	int3
  4143ae:	cc                   	int3
  4143af:	cc                   	int3
  4143b0:	cc                   	int3
  4143b1:	cc                   	int3
  4143b2:	cc                   	int3
  4143b3:	cc                   	int3
  4143b4:	cc                   	int3
  4143b5:	cc                   	int3
  4143b6:	cc                   	int3
  4143b7:	cc                   	int3
  4143b8:	cc                   	int3
  4143b9:	cc                   	int3
  4143ba:	cc                   	int3
  4143bb:	cc                   	int3
  4143bc:	cc                   	int3
  4143bd:	cc                   	int3
  4143be:	cc                   	int3
  4143bf:	cc                   	int3
  4143c0:	55                   	push   %ebp
  4143c1:	8b ec                	mov    %esp,%ebp
  4143c3:	6a 01                	push   $0x1
  4143c5:	e8 62 cd ff ff       	call   0x41112c
  4143ca:	83 c4 04             	add    $0x4,%esp
  4143cd:	5d                   	pop    %ebp
  4143ce:	c3                   	ret
  4143cf:	cc                   	int3
  4143d0:	cc                   	int3
  4143d1:	cc                   	int3
  4143d2:	cc                   	int3
  4143d3:	cc                   	int3
  4143d4:	cc                   	int3
  4143d5:	cc                   	int3
  4143d6:	cc                   	int3
  4143d7:	cc                   	int3
  4143d8:	cc                   	int3
  4143d9:	cc                   	int3
  4143da:	cc                   	int3
  4143db:	cc                   	int3
  4143dc:	cc                   	int3
  4143dd:	cc                   	int3
  4143de:	cc                   	int3
  4143df:	cc                   	int3
  4143e0:	55                   	push   %ebp
  4143e1:	8b ec                	mov    %esp,%ebp
  4143e3:	51                   	push   %ecx
  4143e4:	e8 84 cd ff ff       	call   0x41116d
  4143e9:	89 45 fc             	mov    %eax,-0x4(%ebp)
  4143ec:	e8 9f cd ff ff       	call   0x411190
  4143f1:	8b 4d fc             	mov    -0x4(%ebp),%ecx
  4143f4:	89 08                	mov    %ecx,(%eax)
  4143f6:	8b e5                	mov    %ebp,%esp
  4143f8:	5d                   	pop    %ebp
  4143f9:	c3                   	ret
  4143fa:	cc                   	int3
  4143fb:	cc                   	int3
  4143fc:	cc                   	int3
  4143fd:	cc                   	int3
  4143fe:	cc                   	int3
  4143ff:	cc                   	int3
  414400:	55                   	push   %ebp
  414401:	8b ec                	mov    %esp,%ebp
  414403:	e8 01 cd ff ff       	call   0x411109
  414408:	50                   	push   %eax
  414409:	e8 48 d0 ff ff       	call   0x411456
  41440e:	83 c4 04             	add    $0x4,%esp
  414411:	5d                   	pop    %ebp
  414412:	c3                   	ret
  414413:	cc                   	int3
  414414:	cc                   	int3
  414415:	cc                   	int3
  414416:	cc                   	int3
  414417:	cc                   	int3
  414418:	cc                   	int3
  414419:	cc                   	int3
  41441a:	cc                   	int3
  41441b:	cc                   	int3
  41441c:	cc                   	int3
  41441d:	cc                   	int3
  41441e:	cc                   	int3
  41441f:	cc                   	int3
  414420:	55                   	push   %ebp
  414421:	8b ec                	mov    %esp,%ebp
  414423:	e8 58 fc ff ff       	call   0x414080
  414428:	5d                   	pop    %ebp
  414429:	c3                   	ret
  41442a:	cc                   	int3
  41442b:	cc                   	int3
  41442c:	cc                   	int3
  41442d:	cc                   	int3
  41442e:	cc                   	int3
  41442f:	cc                   	int3
  414430:	55                   	push   %ebp
  414431:	8b ec                	mov    %esp,%ebp
  414433:	83 ec 1c             	sub    $0x1c,%esp
  414436:	8b 45 08             	mov    0x8(%ebp),%eax
  414439:	89 45 e8             	mov    %eax,-0x18(%ebp)
  41443c:	8d 45 ff             	lea    -0x1(%ebp),%eax
  41443f:	89 45 ec             	mov    %eax,-0x14(%ebp)
  414442:	8d 45 e4             	lea    -0x1c(%ebp),%eax
  414445:	50                   	push   %eax
  414446:	c6 45 ff 00          	movb   $0x0,-0x1(%ebp)
  41444a:	c7 45 e4 01 10 00 00 	movl   $0x1001,-0x1c(%ebp)
  414451:	e8 2a 06 00 00       	call   0x414a80
  414456:	83 c4 04             	add    $0x4,%esp
  414459:	80 7d ff 00          	cmpb   $0x0,-0x1(%ebp)
  41445d:	0f 95 c0             	setne  %al
  414460:	8b e5                	mov    %ebp,%esp
  414462:	5d                   	pop    %ebp
  414463:	c3                   	ret
  414464:	cc                   	int3
  414465:	cc                   	int3
  414466:	cc                   	int3
  414467:	cc                   	int3
  414468:	cc                   	int3
  414469:	cc                   	int3
  41446a:	cc                   	int3
  41446b:	cc                   	int3
  41446c:	cc                   	int3
  41446d:	cc                   	int3
  41446e:	cc                   	int3
  41446f:	cc                   	int3
  414470:	cc                   	int3
  414471:	cc                   	int3
  414472:	cc                   	int3
  414473:	cc                   	int3
  414474:	cc                   	int3
  414475:	cc                   	int3
  414476:	cc                   	int3
  414477:	cc                   	int3
  414478:	cc                   	int3
  414479:	cc                   	int3
  41447a:	cc                   	int3
  41447b:	cc                   	int3
  41447c:	cc                   	int3
  41447d:	cc                   	int3
  41447e:	cc                   	int3
  41447f:	cc                   	int3
  414480:	55                   	push   %ebp
  414481:	8b ec                	mov    %esp,%ebp
  414483:	83 ec 1c             	sub    $0x1c,%esp
  414486:	8b 45 08             	mov    0x8(%ebp),%eax
  414489:	89 45 e8             	mov    %eax,-0x18(%ebp)
  41448c:	8b 45 0c             	mov    0xc(%ebp),%eax
  41448f:	89 45 ec             	mov    %eax,-0x14(%ebp)
  414492:	8b 45 10             	mov    0x10(%ebp),%eax
  414495:	89 45 f0             	mov    %eax,-0x10(%ebp)
  414498:	8d 45 ff             	lea    -0x1(%ebp),%eax
  41449b:	89 45 f4             	mov    %eax,-0xc(%ebp)
  41449e:	8b 45 14             	mov    0x14(%ebp),%eax
  4144a1:	89 45 f8             	mov    %eax,-0x8(%ebp)
  4144a4:	8d 45 e4             	lea    -0x1c(%ebp),%eax
  4144a7:	50                   	push   %eax
  4144a8:	c6 45 ff 00          	movb   $0x0,-0x1(%ebp)
  4144ac:	c7 45 e4 02 10 00 00 	movl   $0x1002,-0x1c(%ebp)
  4144b3:	e8 c8 05 00 00       	call   0x414a80
  4144b8:	83 c4 04             	add    $0x4,%esp
  4144bb:	80 7d ff 00          	cmpb   $0x0,-0x1(%ebp)
  4144bf:	0f 95 c0             	setne  %al
  4144c2:	8b e5                	mov    %ebp,%esp
  4144c4:	5d                   	pop    %ebp
  4144c5:	c3                   	ret
  4144c6:	cc                   	int3
  4144c7:	cc                   	int3
  4144c8:	cc                   	int3
  4144c9:	cc                   	int3
  4144ca:	cc                   	int3
  4144cb:	cc                   	int3
  4144cc:	cc                   	int3
  4144cd:	cc                   	int3
  4144ce:	cc                   	int3
  4144cf:	cc                   	int3
  4144d0:	cc                   	int3
  4144d1:	cc                   	int3
  4144d2:	cc                   	int3
  4144d3:	cc                   	int3
  4144d4:	cc                   	int3
  4144d5:	cc                   	int3
  4144d6:	cc                   	int3
  4144d7:	cc                   	int3
  4144d8:	cc                   	int3
  4144d9:	cc                   	int3
  4144da:	cc                   	int3
  4144db:	cc                   	int3
  4144dc:	cc                   	int3
  4144dd:	cc                   	int3
  4144de:	cc                   	int3
  4144df:	cc                   	int3
  4144e0:	55                   	push   %ebp
  4144e1:	8b ec                	mov    %esp,%ebp
  4144e3:	81 ec 44 01 00 00    	sub    $0x144,%esp
  4144e9:	a1 00 d0 41 00       	mov    0x41d000,%eax
  4144ee:	33 c5                	xor    %ebp,%eax
  4144f0:	89 45 fc             	mov    %eax,-0x4(%ebp)
  4144f3:	8b 45 08             	mov    0x8(%ebp),%eax
  4144f6:	53                   	push   %ebx
  4144f7:	8b 5d 0c             	mov    0xc(%ebp),%ebx
  4144fa:	57                   	push   %edi
  4144fb:	8b 3d 1c d0 41 00    	mov    0x41d01c,%edi
  414501:	89 85 bc fe ff ff    	mov    %eax,-0x144(%ebp)
  414507:	83 ff ff             	cmp    $0xffffffff,%edi
  41450a:	0f 84 a6 00 00 00    	je     0x4145b6
  414510:	85 db                	test   %ebx,%ebx
  414512:	75 21                	jne    0x414535
  414514:	68 40 b2 41 00       	push   $0x41b240
  414519:	6a 04                	push   $0x4
  41451b:	57                   	push   %edi
  41451c:	50                   	push   %eax
  41451d:	e8 de 02 00 00       	call   0x414800
  414522:	83 c4 10             	add    $0x10,%esp
  414525:	5f                   	pop    %edi
  414526:	5b                   	pop    %ebx
  414527:	8b 4d fc             	mov    -0x4(%ebp),%ecx
  41452a:	33 cd                	xor    %ebp,%ecx
  41452c:	e8 73 cc ff ff       	call   0x4111a4
  414531:	8b e5                	mov    %ebp,%esp
  414533:	5d                   	pop    %ebp
  414534:	c3                   	ret
  414535:	8b 43 0c             	mov    0xc(%ebx),%eax
  414538:	56                   	push   %esi
  414539:	83 e8 24             	sub    $0x24,%eax
  41453c:	8d 73 20             	lea    0x20(%ebx),%esi
  41453f:	50                   	push   %eax
  414540:	56                   	push   %esi
  414541:	8d 45 b4             	lea    -0x4c(%ebp),%eax
  414544:	50                   	push   %eax
  414545:	8d 45 e8             	lea    -0x18(%ebp),%eax
  414548:	50                   	push   %eax
  414549:	e8 02 02 00 00       	call   0x414750
  41454e:	68 98 b2 41 00       	push   $0x41b298
  414553:	8d 45 b4             	lea    -0x4c(%ebp),%eax
  414556:	50                   	push   %eax
  414557:	68 9c b2 41 00       	push   $0x41b29c
  41455c:	8d 45 e8             	lea    -0x18(%ebp),%eax
  41455f:	50                   	push   %eax
  414560:	8b 43 0c             	mov    0xc(%ebx),%eax
  414563:	68 a0 b2 41 00       	push   $0x41b2a0
  414568:	ff 75 10             	push   0x10(%ebp)
  41456b:	83 e8 24             	sub    $0x24,%eax
  41456e:	68 ac b2 41 00       	push   $0x41b2ac
  414573:	50                   	push   %eax
  414574:	68 e0 b2 41 00       	push   $0x41b2e0
  414579:	56                   	push   %esi
  41457a:	68 ec b2 41 00       	push   $0x41b2ec
  41457f:	68 00 b3 41 00       	push   $0x41b300
  414584:	68 58 b3 41 00       	push   $0x41b358
  414589:	8d 85 c0 fe ff ff    	lea    -0x140(%ebp),%eax
  41458f:	68 f4 00 00 00       	push   $0xf4
  414594:	50                   	push   %eax
  414595:	e8 e0 cd ff ff       	call   0x41137a
  41459a:	83 c4 4c             	add    $0x4c,%esp
  41459d:	8d 85 c0 fe ff ff    	lea    -0x140(%ebp),%eax
  4145a3:	50                   	push   %eax
  4145a4:	6a 04                	push   $0x4
  4145a6:	57                   	push   %edi
  4145a7:	ff b5 bc fe ff ff    	push   -0x144(%ebp)
  4145ad:	e8 4e 02 00 00       	call   0x414800
  4145b2:	83 c4 10             	add    $0x10,%esp
  4145b5:	5e                   	pop    %esi
  4145b6:	8b 4d fc             	mov    -0x4(%ebp),%ecx
  4145b9:	5f                   	pop    %edi
  4145ba:	33 cd                	xor    %ebp,%ecx
  4145bc:	5b                   	pop    %ebx
  4145bd:	e8 e2 cb ff ff       	call   0x4111a4
  4145c2:	8b e5                	mov    %ebp,%esp
  4145c4:	5d                   	pop    %ebp
  4145c5:	c3                   	ret
  4145c6:	cc                   	int3
  4145c7:	cc                   	int3
  4145c8:	cc                   	int3
  4145c9:	cc                   	int3
  4145ca:	cc                   	int3
  4145cb:	cc                   	int3
  4145cc:	cc                   	int3
  4145cd:	cc                   	int3
  4145ce:	cc                   	int3
  4145cf:	cc                   	int3
  4145d0:	cc                   	int3
  4145d1:	cc                   	int3
  4145d2:	cc                   	int3
  4145d3:	cc                   	int3
  4145d4:	cc                   	int3
  4145d5:	cc                   	int3
  4145d6:	cc                   	int3
  4145d7:	cc                   	int3
  4145d8:	cc                   	int3
  4145d9:	cc                   	int3
  4145da:	cc                   	int3
  4145db:	cc                   	int3
  4145dc:	cc                   	int3
  4145dd:	cc                   	int3
  4145de:	cc                   	int3
  4145df:	cc                   	int3
  4145e0:	cc                   	int3
  4145e1:	cc                   	int3
  4145e2:	cc                   	int3
  4145e3:	cc                   	int3
  4145e4:	cc                   	int3
  4145e5:	cc                   	int3
  4145e6:	cc                   	int3
  4145e7:	cc                   	int3
  4145e8:	cc                   	int3
  4145e9:	cc                   	int3
  4145ea:	cc                   	int3
  4145eb:	cc                   	int3
  4145ec:	cc                   	int3
  4145ed:	cc                   	int3
  4145ee:	cc                   	int3
  4145ef:	cc                   	int3
  4145f0:	cc                   	int3
  4145f1:	cc                   	int3
  4145f2:	cc                   	int3
  4145f3:	cc                   	int3
  4145f4:	cc                   	int3
  4145f5:	cc                   	int3
  4145f6:	cc                   	int3
  4145f7:	cc                   	int3
  4145f8:	cc                   	int3
  4145f9:	cc                   	int3
  4145fa:	cc                   	int3
  4145fb:	cc                   	int3
  4145fc:	cc                   	int3
  4145fd:	cc                   	int3
  4145fe:	cc                   	int3
  4145ff:	cc                   	int3
  414600:	55                   	push   %ebp
  414601:	8b ec                	mov    %esp,%ebp
  414603:	8b 45 0c             	mov    0xc(%ebp),%eax
  414606:	83 f8 04             	cmp    $0x4,%eax
  414609:	77 23                	ja     0x41462e
  41460b:	8b 0c 85 0c d0 41 00 	mov    0x41d00c(,%eax,4),%ecx
  414612:	8b 14 85 f8 ac 41 00 	mov    0x41acf8(,%eax,4),%edx
  414619:	83 f9 ff             	cmp    $0xffffffff,%ecx
  41461c:	74 2e                	je     0x41464c
  41461e:	52                   	push   %edx
  41461f:	50                   	push   %eax
  414620:	51                   	push   %ecx
  414621:	ff 75 08             	push   0x8(%ebp)
  414624:	e8 d7 01 00 00       	call   0x414800
  414629:	83 c4 10             	add    $0x10,%esp
  41462c:	5d                   	pop    %ebp
  41462d:	c3                   	ret
  41462e:	8b 15 0c ad 41 00    	mov    0x41ad0c,%edx
  414634:	b8 05 00 00 00       	mov    $0x5,%eax
  414639:	52                   	push   %edx
  41463a:	50                   	push   %eax
  41463b:	b9 01 00 00 00       	mov    $0x1,%ecx
  414640:	51                   	push   %ecx
  414641:	ff 75 08             	push   0x8(%ebp)
  414644:	e8 b7 01 00 00       	call   0x414800
  414649:	83 c4 10             	add    $0x10,%esp
  41464c:	5d                   	pop    %ebp
  41464d:	c3                   	ret
  41464e:	cc                   	int3
  41464f:	cc                   	int3
  414650:	cc                   	int3
  414651:	cc                   	int3
  414652:	cc                   	int3
  414653:	cc                   	int3
  414654:	cc                   	int3
  414655:	cc                   	int3
  414656:	cc                   	int3
  414657:	cc                   	int3
  414658:	cc                   	int3
  414659:	cc                   	int3
  41465a:	cc                   	int3
  41465b:	cc                   	int3
  41465c:	cc                   	int3
  41465d:	cc                   	int3
  41465e:	cc                   	int3
  41465f:	cc                   	int3
  414660:	cc                   	int3
  414661:	cc                   	int3
  414662:	cc                   	int3
  414663:	cc                   	int3
  414664:	cc                   	int3
  414665:	cc                   	int3
  414666:	cc                   	int3
  414667:	cc                   	int3
  414668:	cc                   	int3
  414669:	cc                   	int3
  41466a:	cc                   	int3
  41466b:	cc                   	int3
  41466c:	cc                   	int3
  41466d:	cc                   	int3
  41466e:	cc                   	int3
  41466f:	cc                   	int3
  414670:	55                   	push   %ebp
  414671:	8b ec                	mov    %esp,%ebp
  414673:	81 ec 04 04 00 00    	sub    $0x404,%esp
  414679:	a1 00 d0 41 00       	mov    0x41d000,%eax
  41467e:	33 c5                	xor    %ebp,%eax
  414680:	89 45 fc             	mov    %eax,-0x4(%ebp)
  414683:	53                   	push   %ebx
  414684:	8b 5d 08             	mov    0x8(%ebp),%ebx
  414687:	56                   	push   %esi
  414688:	8b 75 0c             	mov    0xc(%ebp),%esi
  41468b:	57                   	push   %edi
  41468c:	8b 3d 14 d0 41 00    	mov    0x41d014,%edi
  414692:	83 ff ff             	cmp    $0xffffffff,%edi
  414695:	74 73                	je     0x41470a
  414697:	80 3e 00             	cmpb   $0x0,(%esi)
  41469a:	74 5c                	je     0x4146f8
  41469c:	56                   	push   %esi
  41469d:	e8 3e 01 00 00       	call   0x4147e0
  4146a2:	83 c0 2d             	add    $0x2d,%eax
  4146a5:	83 c4 04             	add    $0x4,%esp
  4146a8:	3d 00 04 00 00       	cmp    $0x400,%eax
  4146ad:	77 49                	ja     0x4146f8
  4146af:	68 28 ad 41 00       	push   $0x41ad28
  4146b4:	8d 85 fc fb ff ff    	lea    -0x404(%ebp),%eax
  4146ba:	68 00 04 00 00       	push   $0x400
  4146bf:	50                   	push   %eax
  4146c0:	e8 41 cd ff ff       	call   0x411406
  4146c5:	56                   	push   %esi
  4146c6:	8d 85 fc fb ff ff    	lea    -0x404(%ebp),%eax
  4146cc:	68 00 04 00 00       	push   $0x400
  4146d1:	50                   	push   %eax
  4146d2:	e8 11 cd ff ff       	call   0x4113e8
  4146d7:	68 44 ad 41 00       	push   $0x41ad44
  4146dc:	8d 85 fc fb ff ff    	lea    -0x404(%ebp),%eax
  4146e2:	68 00 04 00 00       	push   $0x400
  4146e7:	50                   	push   %eax
  4146e8:	e8 fb cc ff ff       	call   0x4113e8
  4146ed:	83 c4 24             	add    $0x24,%esp
  4146f0:	8d 85 fc fb ff ff    	lea    -0x404(%ebp),%eax
  4146f6:	eb 05                	jmp    0x4146fd
  4146f8:	b8 08 b2 41 00       	mov    $0x41b208,%eax
  4146fd:	50                   	push   %eax
  4146fe:	6a 02                	push   $0x2
  414700:	57                   	push   %edi
  414701:	53                   	push   %ebx
  414702:	e8 f9 00 00 00       	call   0x414800
  414707:	83 c4 10             	add    $0x10,%esp
  41470a:	8b 4d fc             	mov    -0x4(%ebp),%ecx
  41470d:	5f                   	pop    %edi
  41470e:	5e                   	pop    %esi
  41470f:	33 cd                	xor    %ebp,%ecx
  414711:	5b                   	pop    %ebx
  414712:	e8 8d ca ff ff       	call   0x4111a4
  414717:	8b e5                	mov    %ebp,%esp
  414719:	5d                   	pop    %ebp
  41471a:	c3                   	ret
  41471b:	cc                   	int3
  41471c:	cc                   	int3
  41471d:	cc                   	int3
  41471e:	cc                   	int3
  41471f:	cc                   	int3
  414720:	cc                   	int3
  414721:	cc                   	int3
  414722:	cc                   	int3
  414723:	cc                   	int3
  414724:	cc                   	int3
  414725:	cc                   	int3
  414726:	cc                   	int3
  414727:	cc                   	int3
  414728:	cc                   	int3
  414729:	cc                   	int3
  41472a:	cc                   	int3
  41472b:	cc                   	int3
  41472c:	cc                   	int3
  41472d:	cc                   	int3
  41472e:	cc                   	int3
  41472f:	cc                   	int3
  414730:	cc                   	int3
  414731:	cc                   	int3
  414732:	cc                   	int3
  414733:	cc                   	int3
  414734:	cc                   	int3
  414735:	cc                   	int3
  414736:	cc                   	int3
  414737:	cc                   	int3
  414738:	cc                   	int3
  414739:	cc                   	int3
  41473a:	cc                   	int3
  41473b:	cc                   	int3
  41473c:	cc                   	int3
  41473d:	cc                   	int3
  41473e:	cc                   	int3
  41473f:	cc                   	int3
  414740:	cc                   	int3
  414741:	cc                   	int3
  414742:	cc                   	int3
  414743:	cc                   	int3
  414744:	cc                   	int3
  414745:	cc                   	int3
  414746:	cc                   	int3
  414747:	cc                   	int3
  414748:	cc                   	int3
  414749:	cc                   	int3
  41474a:	cc                   	int3
  41474b:	cc                   	int3
  41474c:	cc                   	int3
  41474d:	cc                   	int3
  41474e:	cc                   	int3
  41474f:	cc                   	int3
  414750:	55                   	push   %ebp
  414751:	8b ec                	mov    %esp,%ebp
  414753:	51                   	push   %ecx
  414754:	53                   	push   %ebx
  414755:	8b 5d 10             	mov    0x10(%ebp),%ebx
  414758:	33 d2                	xor    %edx,%edx
  41475a:	56                   	push   %esi
  41475b:	8b 75 08             	mov    0x8(%ebp),%esi
  41475e:	57                   	push   %edi
  41475f:	33 ff                	xor    %edi,%edi
  414761:	2b de                	sub    %esi,%ebx
  414763:	89 5d 10             	mov    %ebx,0x10(%ebp)
  414766:	8b 45 14             	mov    0x14(%ebp),%eax
  414769:	89 55 fc             	mov    %edx,-0x4(%ebp)
  41476c:	83 f8 10             	cmp    $0x10,%eax
  41476f:	72 05                	jb     0x414776
  414771:	b8 10 00 00 00       	mov    $0x10,%eax
  414776:	8b 4d 0c             	mov    0xc(%ebp),%ecx
  414779:	03 cf                	add    %edi,%ecx
  41477b:	3b d0                	cmp    %eax,%edx
  41477d:	73 2c                	jae    0x4147ab
  41477f:	8a 1c 33             	mov    (%ebx,%esi,1),%bl
  414782:	0f b6 c3             	movzbl %bl,%eax
  414785:	50                   	push   %eax
  414786:	b8 31 00 00 00       	mov    $0x31,%eax
  41478b:	68 38 b2 41 00       	push   $0x41b238
  414790:	2b c7                	sub    %edi,%eax
  414792:	50                   	push   %eax
  414793:	51                   	push   %ecx
  414794:	e8 e1 cb ff ff       	call   0x41137a
  414799:	8b 55 fc             	mov    -0x4(%ebp),%edx
  41479c:	83 c4 10             	add    $0x10,%esp
  41479f:	88 1e                	mov    %bl,(%esi)
  4147a1:	42                   	inc    %edx
  4147a2:	8b 5d 10             	mov    0x10(%ebp),%ebx
  4147a5:	46                   	inc    %esi
  4147a6:	83 c7 03             	add    $0x3,%edi
  4147a9:	eb bb                	jmp    0x414766
  4147ab:	5f                   	pop    %edi
  4147ac:	c6 06 00             	movb   $0x0,(%esi)
  4147af:	5e                   	pop    %esi
  4147b0:	c6 01 00             	movb   $0x0,(%ecx)
  4147b3:	5b                   	pop    %ebx
  4147b4:	8b e5                	mov    %ebp,%esp
  4147b6:	5d                   	pop    %ebp
  4147b7:	c3                   	ret
  4147b8:	cc                   	int3
  4147b9:	cc                   	int3
  4147ba:	cc                   	int3
  4147bb:	cc                   	int3
  4147bc:	cc                   	int3
  4147bd:	cc                   	int3
  4147be:	cc                   	int3
  4147bf:	cc                   	int3
  4147c0:	cc                   	int3
  4147c1:	cc                   	int3
  4147c2:	cc                   	int3
  4147c3:	cc                   	int3
  4147c4:	cc                   	int3
  4147c5:	cc                   	int3
  4147c6:	cc                   	int3
  4147c7:	cc                   	int3
  4147c8:	cc                   	int3
  4147c9:	cc                   	int3
  4147ca:	cc                   	int3
  4147cb:	cc                   	int3
  4147cc:	cc                   	int3
  4147cd:	cc                   	int3
  4147ce:	cc                   	int3
  4147cf:	cc                   	int3
  4147d0:	cc                   	int3
  4147d1:	cc                   	int3
  4147d2:	cc                   	int3
  4147d3:	cc                   	int3
  4147d4:	cc                   	int3
  4147d5:	cc                   	int3
  4147d6:	cc                   	int3
  4147d7:	cc                   	int3
  4147d8:	cc                   	int3
  4147d9:	cc                   	int3
  4147da:	cc                   	int3
  4147db:	cc                   	int3
  4147dc:	cc                   	int3
  4147dd:	cc                   	int3
  4147de:	cc                   	int3
  4147df:	cc                   	int3
  4147e0:	55                   	push   %ebp
  4147e1:	8b ec                	mov    %esp,%ebp
  4147e3:	8b 55 08             	mov    0x8(%ebp),%edx
  4147e6:	8b c2                	mov    %edx,%eax
  4147e8:	8a 08                	mov    (%eax),%cl
  4147ea:	40                   	inc    %eax
  4147eb:	84 c9                	test   %cl,%cl
  4147ed:	75 f9                	jne    0x4147e8
  4147ef:	2b c2                	sub    %edx,%eax
  4147f1:	48                   	dec    %eax
  4147f2:	5d                   	pop    %ebp
  4147f3:	c3                   	ret
  4147f4:	cc                   	int3
  4147f5:	cc                   	int3
  4147f6:	cc                   	int3
  4147f7:	cc                   	int3
  4147f8:	cc                   	int3
  4147f9:	cc                   	int3
  4147fa:	cc                   	int3
  4147fb:	cc                   	int3
  4147fc:	cc                   	int3
  4147fd:	cc                   	int3
  4147fe:	cc                   	int3
  4147ff:	cc                   	int3
  414800:	55                   	push   %ebp
  414801:	8b ec                	mov    %esp,%ebp
  414803:	81 ec 3c 0e 00 00    	sub    $0xe3c,%esp
  414809:	a1 00 d0 41 00       	mov    0x41d000,%eax
  41480e:	33 c5                	xor    %ebp,%eax
  414810:	89 45 fc             	mov    %eax,-0x4(%ebp)
  414813:	8b 45 10             	mov    0x10(%ebp),%eax
  414816:	53                   	push   %ebx
  414817:	8b 5d 14             	mov    0x14(%ebp),%ebx
  41481a:	56                   	push   %esi
  41481b:	8b 75 08             	mov    0x8(%ebp),%esi
  41481e:	57                   	push   %edi
  41481f:	56                   	push   %esi
  414820:	89 85 d0 f1 ff ff    	mov    %eax,-0xe30(%ebp)
  414826:	89 9d c4 f1 ff ff    	mov    %ebx,-0xe3c(%ebp)
  41482c:	c7 85 cc f1 ff ff 00 	movl   $0x0,-0xe34(%ebp)
  414833:	00 00 00 
  414836:	e8 fd cb ff ff       	call   0x411438
  41483b:	8b f8                	mov    %eax,%edi
  41483d:	83 c4 04             	add    $0x4,%esp
  414840:	85 ff                	test   %edi,%edi
  414842:	75 0f                	jne    0x414853
  414844:	56                   	push   %esi
  414845:	e8 65 c8 ff ff       	call   0x4110af
  41484a:	83 c4 04             	add    $0x4,%esp
  41484d:	89 85 cc f1 ff ff    	mov    %eax,-0xe34(%ebp)
  414853:	6a 00                	push   $0x0
  414855:	6a 00                	push   $0x0
  414857:	6a ff                	push   $0xffffffff
  414859:	53                   	push   %ebx
  41485a:	6a 00                	push   $0x0
  41485c:	68 e9 fd 00 00       	push   $0xfde9
  414861:	ff 15 5c e0 41 00    	call   *0x41e05c
  414867:	3d 00 02 00 00       	cmp    $0x200,%eax
  41486c:	73 22                	jae    0x414890
  41486e:	50                   	push   %eax
  41486f:	8d 85 d4 f1 ff ff    	lea    -0xe2c(%ebp),%eax
  414875:	50                   	push   %eax
  414876:	6a ff                	push   $0xffffffff
  414878:	53                   	push   %ebx
  414879:	6a 00                	push   $0x0
  41487b:	68 e9 fd 00 00       	push   $0xfde9
  414880:	ff 15 5c e0 41 00    	call   *0x41e05c
  414886:	8d 9d d4 f1 ff ff    	lea    -0xe2c(%ebp),%ebx
  41488c:	85 c0                	test   %eax,%eax
  41488e:	75 05                	jne    0x414895
  414890:	bb e0 b0 41 00       	mov    $0x41b0e0,%ebx
  414895:	68 02 10 00 00       	push   $0x1002
  41489a:	e8 91 fb ff ff       	call   0x414430
  41489f:	83 c4 04             	add    $0x4,%esp
  4148a2:	84 c0                	test   %al,%al
  4148a4:	74 22                	je     0x4148c8
  4148a6:	8b 85 d0 f1 ff ff    	mov    -0xe30(%ebp),%eax
  4148ac:	53                   	push   %ebx
  4148ad:	56                   	push   %esi
  4148ae:	ff 34 85 10 ad 41 00 	push   0x41ad10(,%eax,4)
  4148b5:	50                   	push   %eax
  4148b6:	e8 c5 fb ff ff       	call   0x414480
  4148bb:	83 c4 10             	add    $0x10,%esp
  4148be:	84 c0                	test   %al,%al
  4148c0:	0f 85 27 01 00 00    	jne    0x4149ed
  4148c6:	eb 02                	jmp    0x4148ca
  4148c8:	b0 01                	mov    $0x1,%al
  4148ca:	83 bd cc f1 ff ff 00 	cmpl   $0x0,-0xe34(%ebp)
  4148d1:	75 08                	jne    0x4148db
  4148d3:	85 ff                	test   %edi,%edi
  4148d5:	0f 84 11 01 00 00    	je     0x4149ec
  4148db:	84 c0                	test   %al,%al
  4148dd:	74 0e                	je     0x4148ed
  4148df:	ff 15 64 e0 41 00    	call   *0x41e064
  4148e5:	85 c0                	test   %eax,%eax
  4148e7:	0f 85 ff 00 00 00    	jne    0x4149ec
  4148ed:	68 04 01 00 00       	push   $0x104
  4148f2:	8d 85 ec fb ff ff    	lea    -0x414(%ebp),%eax
  4148f8:	50                   	push   %eax
  4148f9:	8d 85 c8 f1 ff ff    	lea    -0xe38(%ebp),%eax
  4148ff:	50                   	push   %eax
  414900:	68 04 01 00 00       	push   $0x104
  414905:	8d 85 f4 fd ff ff    	lea    -0x20c(%ebp),%eax
  41490b:	50                   	push   %eax
  41490c:	8d 46 fb             	lea    -0x5(%esi),%eax
  41490f:	50                   	push   %eax
  414910:	e8 90 c7 ff ff       	call   0x4110a5
  414915:	83 c4 18             	add    $0x18,%esp
  414918:	85 ff                	test   %edi,%edi
  41491a:	74 32                	je     0x41494e
  41491c:	53                   	push   %ebx
  41491d:	ff b5 d0 f1 ff ff    	push   -0xe30(%ebp)
  414923:	8d 85 ec fb ff ff    	lea    -0x414(%ebp),%eax
  414929:	8b cf                	mov    %edi,%ecx
  41492b:	68 68 b1 41 00       	push   $0x41b168
  414930:	50                   	push   %eax
  414931:	ff b5 c8 f1 ff ff    	push   -0xe38(%ebp)
  414937:	8d 85 f4 fd ff ff    	lea    -0x20c(%ebp),%eax
  41493d:	50                   	push   %eax
  41493e:	ff 75 0c             	push   0xc(%ebp)
  414941:	ff 15 00 10 42 00    	call   *0x421000
  414947:	ff d7                	call   *%edi
  414949:	e9 96 00 00 00       	jmp    0x4149e4
  41494e:	6a 00                	push   $0x0
  414950:	6a 00                	push   $0x0
  414952:	68 0a 03 00 00       	push   $0x30a
  414957:	8d 85 e0 f8 ff ff    	lea    -0x720(%ebp),%eax
  41495d:	be b4 b1 41 00       	mov    $0x41b1b4,%esi
  414962:	50                   	push   %eax
  414963:	6a ff                	push   $0xffffffff
  414965:	8d 85 f4 fd ff ff    	lea    -0x20c(%ebp),%eax
  41496b:	50                   	push   %eax
  41496c:	6a 00                	push   $0x0
  41496e:	68 e9 fd 00 00       	push   $0xfde9
  414973:	ff 15 58 e0 41 00    	call   *0x41e058
  414979:	85 c0                	test   %eax,%eax
  41497b:	74 06                	je     0x414983
  41497d:	8d b5 e0 f8 ff ff    	lea    -0x720(%ebp),%esi
  414983:	6a 00                	push   $0x0
  414985:	6a 00                	push   $0x0
  414987:	68 0a 03 00 00       	push   $0x30a
  41498c:	8d 85 d4 f5 ff ff    	lea    -0xa2c(%ebp),%eax
  414992:	bf c8 b1 41 00       	mov    $0x41b1c8,%edi
  414997:	50                   	push   %eax
  414998:	6a ff                	push   $0xffffffff
  41499a:	8d 85 ec fb ff ff    	lea    -0x414(%ebp),%eax
  4149a0:	50                   	push   %eax
  4149a1:	6a 00                	push   $0x0
  4149a3:	68 e9 fd 00 00       	push   $0xfde9
  4149a8:	ff 15 58 e0 41 00    	call   *0x41e058
  4149ae:	85 c0                	test   %eax,%eax
  4149b0:	74 06                	je     0x4149b8
  4149b2:	8d bd d4 f5 ff ff    	lea    -0xa2c(%ebp),%edi
  4149b8:	ff b5 c4 f1 ff ff    	push   -0xe3c(%ebp)
  4149be:	8b 9d cc f1 ff ff    	mov    -0xe34(%ebp),%ebx
  4149c4:	8b cb                	mov    %ebx,%ecx
  4149c6:	ff b5 d0 f1 ff ff    	push   -0xe30(%ebp)
  4149cc:	68 e0 b1 41 00       	push   $0x41b1e0
  4149d1:	57                   	push   %edi
  4149d2:	ff b5 c8 f1 ff ff    	push   -0xe38(%ebp)
  4149d8:	56                   	push   %esi
  4149d9:	ff 75 0c             	push   0xc(%ebp)
  4149dc:	ff 15 00 10 42 00    	call   *0x421000
  4149e2:	ff d3                	call   *%ebx
  4149e4:	83 c4 1c             	add    $0x1c,%esp
  4149e7:	83 f8 01             	cmp    $0x1,%eax
  4149ea:	75 01                	jne    0x4149ed
  4149ec:	cc                   	int3
  4149ed:	8b 4d fc             	mov    -0x4(%ebp),%ecx
  4149f0:	5f                   	pop    %edi
  4149f1:	5e                   	pop    %esi
  4149f2:	33 cd                	xor    %ebp,%ecx
  4149f4:	5b                   	pop    %ebx
  4149f5:	e8 aa c7 ff ff       	call   0x4111a4
  4149fa:	8b e5                	mov    %ebp,%esp
  4149fc:	5d                   	pop    %ebp
  4149fd:	c3                   	ret
  4149fe:	cc                   	int3
  4149ff:	cc                   	int3
  414a00:	cc                   	int3
  414a01:	cc                   	int3
  414a02:	cc                   	int3
  414a03:	cc                   	int3
  414a04:	cc                   	int3
  414a05:	cc                   	int3
  414a06:	cc                   	int3
  414a07:	cc                   	int3
  414a08:	cc                   	int3
  414a09:	cc                   	int3
  414a0a:	cc                   	int3
  414a0b:	cc                   	int3
  414a0c:	cc                   	int3
  414a0d:	cc                   	int3
  414a0e:	cc                   	int3
  414a0f:	cc                   	int3
  414a10:	cc                   	int3
  414a11:	cc                   	int3
  414a12:	cc                   	int3
  414a13:	cc                   	int3
  414a14:	cc                   	int3
  414a15:	cc                   	int3
  414a16:	cc                   	int3
  414a17:	cc                   	int3
  414a18:	cc                   	int3
  414a19:	cc                   	int3
  414a1a:	cc                   	int3
  414a1b:	cc                   	int3
  414a1c:	cc                   	int3
  414a1d:	cc                   	int3
  414a1e:	cc                   	int3
  414a1f:	cc                   	int3
  414a20:	cc                   	int3
  414a21:	cc                   	int3
  414a22:	cc                   	int3
  414a23:	cc                   	int3
  414a24:	cc                   	int3
  414a25:	cc                   	int3
  414a26:	cc                   	int3
  414a27:	cc                   	int3
  414a28:	cc                   	int3
  414a29:	cc                   	int3
  414a2a:	cc                   	int3
  414a2b:	cc                   	int3
  414a2c:	cc                   	int3
  414a2d:	cc                   	int3
  414a2e:	cc                   	int3
  414a2f:	cc                   	int3
  414a30:	cc                   	int3
  414a31:	cc                   	int3
  414a32:	cc                   	int3
  414a33:	cc                   	int3
  414a34:	cc                   	int3
  414a35:	cc                   	int3
  414a36:	cc                   	int3
  414a37:	cc                   	int3
  414a38:	cc                   	int3
  414a39:	cc                   	int3
  414a3a:	cc                   	int3
  414a3b:	cc                   	int3
  414a3c:	cc                   	int3
  414a3d:	cc                   	int3
  414a3e:	cc                   	int3
  414a3f:	cc                   	int3
  414a40:	cc                   	int3
  414a41:	cc                   	int3
  414a42:	cc                   	int3
  414a43:	cc                   	int3
  414a44:	cc                   	int3
  414a45:	cc                   	int3
  414a46:	cc                   	int3
  414a47:	cc                   	int3
  414a48:	cc                   	int3
  414a49:	cc                   	int3
  414a4a:	cc                   	int3
  414a4b:	cc                   	int3
  414a4c:	cc                   	int3
  414a4d:	cc                   	int3
  414a4e:	cc                   	int3
  414a4f:	cc                   	int3
  414a50:	cc                   	int3
  414a51:	cc                   	int3
  414a52:	cc                   	int3
  414a53:	cc                   	int3
  414a54:	cc                   	int3
  414a55:	cc                   	int3
  414a56:	cc                   	int3
  414a57:	cc                   	int3
  414a58:	cc                   	int3
  414a59:	cc                   	int3
  414a5a:	cc                   	int3
  414a5b:	cc                   	int3
  414a5c:	cc                   	int3
  414a5d:	cc                   	int3
  414a5e:	cc                   	int3
  414a5f:	cc                   	int3
  414a60:	cc                   	int3
  414a61:	cc                   	int3
  414a62:	cc                   	int3
  414a63:	cc                   	int3
  414a64:	cc                   	int3
  414a65:	cc                   	int3
  414a66:	cc                   	int3
  414a67:	cc                   	int3
  414a68:	cc                   	int3
  414a69:	cc                   	int3
  414a6a:	cc                   	int3
  414a6b:	cc                   	int3
  414a6c:	cc                   	int3
  414a6d:	cc                   	int3
  414a6e:	cc                   	int3
  414a6f:	cc                   	int3
  414a70:	cc                   	int3
  414a71:	cc                   	int3
  414a72:	cc                   	int3
  414a73:	cc                   	int3
  414a74:	cc                   	int3
  414a75:	cc                   	int3
  414a76:	cc                   	int3
  414a77:	cc                   	int3
  414a78:	cc                   	int3
  414a79:	cc                   	int3
  414a7a:	cc                   	int3
  414a7b:	cc                   	int3
  414a7c:	cc                   	int3
  414a7d:	cc                   	int3
  414a7e:	cc                   	int3
  414a7f:	cc                   	int3
  414a80:	55                   	push   %ebp
  414a81:	8b ec                	mov    %esp,%ebp
  414a83:	6a fe                	push   $0xfffffffe
  414a85:	68 98 c5 41 00       	push   $0x41c598
  414a8a:	68 70 6d 41 00       	push   $0x416d70
  414a8f:	64 a1 00 00 00 00    	mov    %fs:0x0,%eax
  414a95:	50                   	push   %eax
  414a96:	83 ec 08             	sub    $0x8,%esp
  414a99:	53                   	push   %ebx
  414a9a:	56                   	push   %esi
  414a9b:	57                   	push   %edi
  414a9c:	a1 00 d0 41 00       	mov    0x41d000,%eax
  414aa1:	31 45 f8             	xor    %eax,-0x8(%ebp)
  414aa4:	33 c5                	xor    %ebp,%eax
  414aa6:	50                   	push   %eax
  414aa7:	8d 45 f0             	lea    -0x10(%ebp),%eax
  414aaa:	64 a3 00 00 00 00    	mov    %eax,%fs:0x0
  414ab0:	89 65 e8             	mov    %esp,-0x18(%ebp)
  414ab3:	c7 45 fc 00 00 00 00 	movl   $0x0,-0x4(%ebp)
  414aba:	ff 75 08             	push   0x8(%ebp)
  414abd:	6a 06                	push   $0x6
  414abf:	6a 00                	push   $0x0
  414ac1:	68 88 13 6d 40       	push   $0x406d1388
  414ac6:	ff 15 60 e0 41 00    	call   *0x41e060
  414acc:	eb 16                	jmp    0x414ae4
  414ace:	8b 45 ec             	mov    -0x14(%ebp),%eax
  414ad1:	8b 00                	mov    (%eax),%eax
  414ad3:	33 c9                	xor    %ecx,%ecx
  414ad5:	81 38 88 13 6d 40    	cmpl   $0x406d1388,(%eax)
  414adb:	0f 94 c1             	sete   %cl
  414ade:	8b c1                	mov    %ecx,%eax
  414ae0:	c3                   	ret
  414ae1:	8b 65 e8             	mov    -0x18(%ebp),%esp
  414ae4:	c7 45 fc fe ff ff ff 	movl   $0xfffffffe,-0x4(%ebp)
  414aeb:	8b 4d f0             	mov    -0x10(%ebp),%ecx
  414aee:	64 89 0d 00 00 00 00 	mov    %ecx,%fs:0x0
  414af5:	59                   	pop    %ecx
  414af6:	5f                   	pop    %edi
  414af7:	5e                   	pop    %esi
  414af8:	5b                   	pop    %ebx
  414af9:	8b e5                	mov    %ebp,%esp
  414afb:	5d                   	pop    %ebp
  414afc:	c3                   	ret
  414afd:	cc                   	int3
  414afe:	cc                   	int3
  414aff:	cc                   	int3
  414b00:	cc                   	int3
  414b01:	cc                   	int3
  414b02:	cc                   	int3
  414b03:	cc                   	int3
  414b04:	cc                   	int3
  414b05:	cc                   	int3
  414b06:	cc                   	int3
  414b07:	cc                   	int3
  414b08:	cc                   	int3
  414b09:	cc                   	int3
  414b0a:	cc                   	int3
  414b0b:	cc                   	int3
  414b0c:	cc                   	int3
  414b0d:	cc                   	int3
  414b0e:	cc                   	int3
  414b0f:	cc                   	int3
  414b10:	cc                   	int3
  414b11:	cc                   	int3
  414b12:	cc                   	int3
  414b13:	cc                   	int3
  414b14:	cc                   	int3
  414b15:	cc                   	int3
  414b16:	cc                   	int3
  414b17:	cc                   	int3
  414b18:	cc                   	int3
  414b19:	cc                   	int3
  414b1a:	cc                   	int3
  414b1b:	cc                   	int3
  414b1c:	cc                   	int3
  414b1d:	cc                   	int3
  414b1e:	cc                   	int3
  414b1f:	cc                   	int3
  414b20:	55                   	push   %ebp
  414b21:	8b ec                	mov    %esp,%ebp
  414b23:	81 ec 04 04 00 00    	sub    $0x404,%esp
  414b29:	a1 00 d0 41 00       	mov    0x41d000,%eax
  414b2e:	33 c5                	xor    %ebp,%eax
  414b30:	89 45 fc             	mov    %eax,-0x4(%ebp)
  414b33:	56                   	push   %esi
  414b34:	8b 75 08             	mov    0x8(%ebp),%esi
  414b37:	57                   	push   %edi
  414b38:	8b 3d 18 d0 41 00    	mov    0x41d018,%edi
  414b3e:	83 ff ff             	cmp    $0xffffffff,%edi
  414b41:	74 75                	je     0x414bb8
  414b43:	85 f6                	test   %esi,%esi
  414b45:	74 5c                	je     0x414ba3
  414b47:	56                   	push   %esi
  414b48:	e8 93 fc ff ff       	call   0x4147e0
  414b4d:	83 c0 3a             	add    $0x3a,%eax
  414b50:	83 c4 04             	add    $0x4,%esp
  414b53:	3d 00 04 00 00       	cmp    $0x400,%eax
  414b58:	77 49                	ja     0x414ba3
  414b5a:	68 58 ad 41 00       	push   $0x41ad58
  414b5f:	8d 85 fc fb ff ff    	lea    -0x404(%ebp),%eax
  414b65:	68 00 04 00 00       	push   $0x400
  414b6a:	50                   	push   %eax
  414b6b:	e8 96 c8 ff ff       	call   0x411406
  414b70:	56                   	push   %esi
  414b71:	8d 85 fc fb ff ff    	lea    -0x404(%ebp),%eax
  414b77:	68 00 04 00 00       	push   $0x400
  414b7c:	50                   	push   %eax
  414b7d:	e8 66 c8 ff ff       	call   0x4113e8
  414b82:	68 68 ad 41 00       	push   $0x41ad68
  414b87:	8d 85 fc fb ff ff    	lea    -0x404(%ebp),%eax
  414b8d:	68 00 04 00 00       	push   $0x400
  414b92:	50                   	push   %eax
  414b93:	e8 50 c8 ff ff       	call   0x4113e8
  414b98:	83 c4 24             	add    $0x24,%esp
  414b9b:	8d 85 fc fb ff ff    	lea    -0x404(%ebp),%eax
  414ba1:	eb 05                	jmp    0x414ba8
  414ba3:	b8 78 b3 41 00       	mov    $0x41b378,%eax
  414ba8:	50                   	push   %eax
  414ba9:	8b 45 04             	mov    0x4(%ebp),%eax
  414bac:	6a 03                	push   $0x3
  414bae:	57                   	push   %edi
  414baf:	50                   	push   %eax
  414bb0:	e8 4b fc ff ff       	call   0x414800
  414bb5:	83 c4 10             	add    $0x10,%esp
  414bb8:	8b 4d fc             	mov    -0x4(%ebp),%ecx
  414bbb:	5f                   	pop    %edi
  414bbc:	33 cd                	xor    %ebp,%ecx
  414bbe:	5e                   	pop    %esi
  414bbf:	e8 e0 c5 ff ff       	call   0x4111a4
  414bc4:	8b e5                	mov    %ebp,%esp
  414bc6:	5d                   	pop    %ebp
  414bc7:	c3                   	ret
  414bc8:	cc                   	int3
  414bc9:	cc                   	int3
  414bca:	cc                   	int3
  414bcb:	cc                   	int3
  414bcc:	cc                   	int3
  414bcd:	cc                   	int3
  414bce:	cc                   	int3
  414bcf:	cc                   	int3
  414bd0:	cc                   	int3
  414bd1:	cc                   	int3
  414bd2:	cc                   	int3
  414bd3:	cc                   	int3
  414bd4:	cc                   	int3
  414bd5:	cc                   	int3
  414bd6:	cc                   	int3
  414bd7:	cc                   	int3
  414bd8:	cc                   	int3
  414bd9:	cc                   	int3
  414bda:	cc                   	int3
  414bdb:	cc                   	int3
  414bdc:	cc                   	int3
  414bdd:	cc                   	int3
  414bde:	cc                   	int3
  414bdf:	cc                   	int3
  414be0:	cc                   	int3
  414be1:	cc                   	int3
  414be2:	cc                   	int3
  414be3:	cc                   	int3
  414be4:	cc                   	int3
  414be5:	cc                   	int3
  414be6:	cc                   	int3
  414be7:	cc                   	int3
  414be8:	cc                   	int3
  414be9:	cc                   	int3
  414bea:	cc                   	int3
  414beb:	cc                   	int3
  414bec:	cc                   	int3
  414bed:	cc                   	int3
  414bee:	cc                   	int3
  414bef:	cc                   	int3
  414bf0:	cc                   	int3
  414bf1:	cc                   	int3
  414bf2:	cc                   	int3
  414bf3:	cc                   	int3
  414bf4:	cc                   	int3
  414bf5:	cc                   	int3
  414bf6:	cc                   	int3
  414bf7:	cc                   	int3
  414bf8:	cc                   	int3
  414bf9:	cc                   	int3
  414bfa:	cc                   	int3
  414bfb:	cc                   	int3
  414bfc:	cc                   	int3
  414bfd:	cc                   	int3
  414bfe:	cc                   	int3
  414bff:	cc                   	int3
  414c00:	b8 40 d1 41 00       	mov    $0x41d140,%eax
  414c05:	c3                   	ret
  414c06:	cc                   	int3
  414c07:	cc                   	int3
  414c08:	cc                   	int3
  414c09:	cc                   	int3
  414c0a:	cc                   	int3
  414c0b:	cc                   	int3
  414c0c:	cc                   	int3
  414c0d:	cc                   	int3
  414c0e:	cc                   	int3
  414c0f:	cc                   	int3
  414c10:	55                   	push   %ebp
  414c11:	8b ec                	mov    %esp,%ebp
  414c13:	e8 8a c7 ff ff       	call   0x4113a2
  414c18:	ff 75 18             	push   0x18(%ebp)
  414c1b:	ff 75 14             	push   0x14(%ebp)
  414c1e:	ff 75 10             	push   0x10(%ebp)
  414c21:	ff 75 0c             	push   0xc(%ebp)
  414c24:	ff 75 08             	push   0x8(%ebp)
  414c27:	ff 70 04             	push   0x4(%eax)
  414c2a:	ff 30                	push   (%eax)
  414c2c:	e8 8d c4 ff ff       	call   0x4110be
  414c31:	83 c4 1c             	add    $0x1c,%esp
  414c34:	85 c0                	test   %eax,%eax
  414c36:	79 03                	jns    0x414c3b
  414c38:	83 c8 ff             	or     $0xffffffff,%eax
  414c3b:	5d                   	pop    %ebp
  414c3c:	c3                   	ret
  414c3d:	cc                   	int3
  414c3e:	cc                   	int3
  414c3f:	cc                   	int3
  414c40:	cc                   	int3
  414c41:	cc                   	int3
  414c42:	cc                   	int3
  414c43:	cc                   	int3
  414c44:	cc                   	int3
  414c45:	cc                   	int3
  414c46:	cc                   	int3
  414c47:	cc                   	int3
  414c48:	cc                   	int3
  414c49:	cc                   	int3
  414c4a:	cc                   	int3
  414c4b:	cc                   	int3
  414c4c:	cc                   	int3
  414c4d:	cc                   	int3
  414c4e:	cc                   	int3
  414c4f:	cc                   	int3
  414c50:	55                   	push   %ebp
  414c51:	8b ec                	mov    %esp,%ebp
  414c53:	8d 45 14             	lea    0x14(%ebp),%eax
  414c56:	50                   	push   %eax
  414c57:	6a 00                	push   $0x0
  414c59:	ff 75 10             	push   0x10(%ebp)
  414c5c:	ff 75 0c             	push   0xc(%ebp)
  414c5f:	ff 75 08             	push   0x8(%ebp)
  414c62:	e8 d3 c5 ff ff       	call   0x41123a
  414c67:	83 c4 14             	add    $0x14,%esp
  414c6a:	5d                   	pop    %ebp
  414c6b:	c3                   	ret
  414c6c:	cc                   	int3
  414c6d:	cc                   	int3
  414c6e:	cc                   	int3
  414c6f:	cc                   	int3
  414c70:	cc                   	int3
  414c71:	cc                   	int3
  414c72:	cc                   	int3
  414c73:	cc                   	int3
  414c74:	cc                   	int3
  414c75:	cc                   	int3
  414c76:	cc                   	int3
  414c77:	cc                   	int3
  414c78:	cc                   	int3
  414c79:	cc                   	int3
  414c7a:	cc                   	int3
  414c7b:	cc                   	int3
  414c7c:	cc                   	int3
  414c7d:	cc                   	int3
  414c7e:	cc                   	int3
  414c7f:	cc                   	int3
  414c80:	55                   	push   %ebp
  414c81:	8b ec                	mov    %esp,%ebp
  414c83:	6a 00                	push   $0x0
  414c85:	ff 15 50 e0 41 00    	call   *0x41e050
  414c8b:	8b 45 08             	mov    0x8(%ebp),%eax
  414c8e:	50                   	push   %eax
  414c8f:	ff 15 54 e0 41 00    	call   *0x41e054
  414c95:	68 09 04 00 c0       	push   $0xc0000409
  414c9a:	ff 15 4c e0 41 00    	call   *0x41e04c
  414ca0:	50                   	push   %eax
  414ca1:	ff 15 48 e0 41 00    	call   *0x41e048
  414ca7:	5d                   	pop    %ebp
  414ca8:	c3                   	ret
  414ca9:	cc                   	int3
  414caa:	cc                   	int3
  414cab:	cc                   	int3
  414cac:	cc                   	int3
  414cad:	cc                   	int3
  414cae:	cc                   	int3
  414caf:	cc                   	int3
  414cb0:	cc                   	int3
  414cb1:	cc                   	int3
  414cb2:	cc                   	int3
  414cb3:	cc                   	int3
  414cb4:	cc                   	int3
  414cb5:	cc                   	int3
  414cb6:	cc                   	int3
  414cb7:	cc                   	int3
  414cb8:	cc                   	int3
  414cb9:	cc                   	int3
  414cba:	cc                   	int3
  414cbb:	cc                   	int3
  414cbc:	cc                   	int3
  414cbd:	cc                   	int3
  414cbe:	cc                   	int3
  414cbf:	cc                   	int3
  414cc0:	55                   	push   %ebp
  414cc1:	8b ec                	mov    %esp,%ebp
  414cc3:	81 ec 24 03 00 00    	sub    $0x324,%esp
  414cc9:	6a 17                	push   $0x17
  414ccb:	ff 15 44 e0 41 00    	call   *0x41e044
  414cd1:	85 c0                	test   %eax,%eax
  414cd3:	74 07                	je     0x414cdc
  414cd5:	b9 02 00 00 00       	mov    $0x2,%ecx
  414cda:	cd 29                	int    $0x29
  414cdc:	a3 50 d2 41 00       	mov    %eax,0x41d250
  414ce1:	89 0d 4c d2 41 00    	mov    %ecx,0x41d24c
  414ce7:	89 15 48 d2 41 00    	mov    %edx,0x41d248
  414ced:	89 1d 44 d2 41 00    	mov    %ebx,0x41d244
  414cf3:	89 35 40 d2 41 00    	mov    %esi,0x41d240
  414cf9:	89 3d 3c d2 41 00    	mov    %edi,0x41d23c
  414cff:	66 8c 15 68 d2 41 00 	data16 mov %ss,0x41d268
  414d06:	66 8c 0d 5c d2 41 00 	data16 mov %cs,0x41d25c
  414d0d:	66 8c 1d 38 d2 41 00 	data16 mov %ds,0x41d238
  414d14:	66 8c 05 34 d2 41 00 	data16 mov %es,0x41d234
  414d1b:	66 8c 25 30 d2 41 00 	data16 mov %fs,0x41d230
  414d22:	66 8c 2d 2c d2 41 00 	data16 mov %gs,0x41d22c
  414d29:	9c                   	pushf
  414d2a:	8f 05 60 d2 41 00    	pop    0x41d260
  414d30:	8b 45 00             	mov    0x0(%ebp),%eax
  414d33:	a3 54 d2 41 00       	mov    %eax,0x41d254
  414d38:	8b 45 04             	mov    0x4(%ebp),%eax
  414d3b:	a3 58 d2 41 00       	mov    %eax,0x41d258
  414d40:	8d 45 08             	lea    0x8(%ebp),%eax
  414d43:	a3 64 d2 41 00       	mov    %eax,0x41d264
  414d48:	8b 85 dc fc ff ff    	mov    -0x324(%ebp),%eax
  414d4e:	c7 05 a0 d1 41 00 01 	movl   $0x10001,0x41d1a0
  414d55:	00 01 00 
  414d58:	a1 58 d2 41 00       	mov    0x41d258,%eax
  414d5d:	a3 5c d1 41 00       	mov    %eax,0x41d15c
  414d62:	c7 05 50 d1 41 00 09 	movl   $0xc0000409,0x41d150
  414d69:	04 00 c0 
  414d6c:	c7 05 54 d1 41 00 01 	movl   $0x1,0x41d154
  414d73:	00 00 00 
  414d76:	c7 05 60 d1 41 00 01 	movl   $0x1,0x41d160
  414d7d:	00 00 00 
  414d80:	b9 04 00 00 00       	mov    $0x4,%ecx
  414d85:	6b d1 00             	imul   $0x0,%ecx,%edx
  414d88:	c7 82 64 d1 41 00 02 	movl   $0x2,0x41d164(%edx)
  414d8f:	00 00 00 
  414d92:	b8 04 00 00 00       	mov    $0x4,%eax
  414d97:	6b c8 00             	imul   $0x0,%eax,%ecx
  414d9a:	8b 15 00 d0 41 00    	mov    0x41d000,%edx
  414da0:	89 54 0d f8          	mov    %edx,-0x8(%ebp,%ecx,1)
  414da4:	b8 04 00 00 00       	mov    $0x4,%eax
  414da9:	c1 e0 00             	shl    $0x0,%eax
  414dac:	8b 0d 04 d0 41 00    	mov    0x41d004,%ecx
  414db2:	89 4c 05 f8          	mov    %ecx,-0x8(%ebp,%eax,1)
  414db6:	68 b8 b3 41 00       	push   $0x41b3b8
  414dbb:	e8 b4 c6 ff ff       	call   0x411474
  414dc0:	8b e5                	mov    %ebp,%esp
  414dc2:	5d                   	pop    %ebp
  414dc3:	c3                   	ret
  414dc4:	cc                   	int3
  414dc5:	cc                   	int3
  414dc6:	cc                   	int3
  414dc7:	cc                   	int3
  414dc8:	cc                   	int3
  414dc9:	cc                   	int3
  414dca:	cc                   	int3
  414dcb:	cc                   	int3
  414dcc:	cc                   	int3
  414dcd:	cc                   	int3
  414dce:	cc                   	int3
  414dcf:	cc                   	int3
  414dd0:	cc                   	int3
  414dd1:	cc                   	int3
  414dd2:	cc                   	int3
  414dd3:	cc                   	int3
  414dd4:	cc                   	int3
  414dd5:	cc                   	int3
  414dd6:	cc                   	int3
  414dd7:	cc                   	int3
  414dd8:	cc                   	int3
  414dd9:	cc                   	int3
  414dda:	cc                   	int3
  414ddb:	cc                   	int3
  414ddc:	cc                   	int3
  414ddd:	cc                   	int3
  414dde:	cc                   	int3
  414ddf:	cc                   	int3
  414de0:	cc                   	int3
  414de1:	cc                   	int3
  414de2:	cc                   	int3
  414de3:	cc                   	int3
  414de4:	cc                   	int3
  414de5:	cc                   	int3
  414de6:	cc                   	int3
  414de7:	cc                   	int3
  414de8:	cc                   	int3
  414de9:	cc                   	int3
  414dea:	cc                   	int3
  414deb:	cc                   	int3
  414dec:	cc                   	int3
  414ded:	cc                   	int3
  414dee:	cc                   	int3
  414def:	cc                   	int3
  414df0:	cc                   	int3
  414df1:	cc                   	int3
  414df2:	cc                   	int3
  414df3:	cc                   	int3
  414df4:	cc                   	int3
  414df5:	cc                   	int3
  414df6:	cc                   	int3
  414df7:	cc                   	int3
  414df8:	cc                   	int3
  414df9:	cc                   	int3
  414dfa:	cc                   	int3
  414dfb:	cc                   	int3
  414dfc:	cc                   	int3
  414dfd:	cc                   	int3
  414dfe:	cc                   	int3
  414dff:	cc                   	int3
  414e00:	cc                   	int3
  414e01:	cc                   	int3
  414e02:	cc                   	int3
  414e03:	cc                   	int3
  414e04:	cc                   	int3
  414e05:	cc                   	int3
  414e06:	cc                   	int3
  414e07:	cc                   	int3
  414e08:	cc                   	int3
  414e09:	cc                   	int3
  414e0a:	cc                   	int3
  414e0b:	cc                   	int3
  414e0c:	cc                   	int3
  414e0d:	cc                   	int3
  414e0e:	cc                   	int3
  414e0f:	cc                   	int3
  414e10:	55                   	push   %ebp
  414e11:	8b ec                	mov    %esp,%ebp
  414e13:	6a 08                	push   $0x8
  414e15:	e8 00 c6 ff ff       	call   0x41141a
  414e1a:	5d                   	pop    %ebp
  414e1b:	c3                   	ret
  414e1c:	cc                   	int3
  414e1d:	cc                   	int3
  414e1e:	cc                   	int3
  414e1f:	cc                   	int3
  414e20:	55                   	push   %ebp
  414e21:	8b ec                	mov    %esp,%ebp
  414e23:	81 ec 1c 03 00 00    	sub    $0x31c,%esp
  414e29:	6a 17                	push   $0x17
  414e2b:	ff 15 44 e0 41 00    	call   *0x41e044
  414e31:	85 c0                	test   %eax,%eax
  414e33:	74 05                	je     0x414e3a
  414e35:	8b 4d 08             	mov    0x8(%ebp),%ecx
  414e38:	cd 29                	int    $0x29
  414e3a:	a3 50 d2 41 00       	mov    %eax,0x41d250
  414e3f:	89 0d 4c d2 41 00    	mov    %ecx,0x41d24c
  414e45:	89 15 48 d2 41 00    	mov    %edx,0x41d248
  414e4b:	89 1d 44 d2 41 00    	mov    %ebx,0x41d244
  414e51:	89 35 40 d2 41 00    	mov    %esi,0x41d240
  414e57:	89 3d 3c d2 41 00    	mov    %edi,0x41d23c
  414e5d:	66 8c 15 68 d2 41 00 	data16 mov %ss,0x41d268
  414e64:	66 8c 0d 5c d2 41 00 	data16 mov %cs,0x41d25c
  414e6b:	66 8c 1d 38 d2 41 00 	data16 mov %ds,0x41d238
  414e72:	66 8c 05 34 d2 41 00 	data16 mov %es,0x41d234
  414e79:	66 8c 25 30 d2 41 00 	data16 mov %fs,0x41d230
  414e80:	66 8c 2d 2c d2 41 00 	data16 mov %gs,0x41d22c
  414e87:	9c                   	pushf
  414e88:	8f 05 60 d2 41 00    	pop    0x41d260
  414e8e:	8b 45 00             	mov    0x0(%ebp),%eax
  414e91:	a3 54 d2 41 00       	mov    %eax,0x41d254
  414e96:	8b 45 04             	mov    0x4(%ebp),%eax
  414e99:	a3 58 d2 41 00       	mov    %eax,0x41d258
  414e9e:	8d 45 08             	lea    0x8(%ebp),%eax
  414ea1:	a3 64 d2 41 00       	mov    %eax,0x41d264
  414ea6:	8b 85 e4 fc ff ff    	mov    -0x31c(%ebp),%eax
  414eac:	a1 58 d2 41 00       	mov    0x41d258,%eax
  414eb1:	a3 5c d1 41 00       	mov    %eax,0x41d15c
  414eb6:	c7 05 50 d1 41 00 09 	movl   $0xc0000409,0x41d150
  414ebd:	04 00 c0 
  414ec0:	c7 05 54 d1 41 00 01 	movl   $0x1,0x41d154
  414ec7:	00 00 00 
  414eca:	c7 05 60 d1 41 00 01 	movl   $0x1,0x41d160
  414ed1:	00 00 00 
  414ed4:	b9 04 00 00 00       	mov    $0x4,%ecx
  414ed9:	6b d1 00             	imul   $0x0,%ecx,%edx
  414edc:	8b 45 08             	mov    0x8(%ebp),%eax
  414edf:	89 82 64 d1 41 00    	mov    %eax,0x41d164(%edx)
  414ee5:	68 b8 b3 41 00       	push   $0x41b3b8
  414eea:	e8 85 c5 ff ff       	call   0x411474
  414eef:	8b e5                	mov    %ebp,%esp
  414ef1:	5d                   	pop    %ebp
  414ef2:	c3                   	ret
  414ef3:	cc                   	int3
  414ef4:	cc                   	int3
  414ef5:	cc                   	int3
  414ef6:	cc                   	int3
  414ef7:	cc                   	int3
  414ef8:	cc                   	int3
  414ef9:	cc                   	int3
  414efa:	cc                   	int3
  414efb:	cc                   	int3
  414efc:	cc                   	int3
  414efd:	cc                   	int3
  414efe:	cc                   	int3
  414eff:	cc                   	int3
  414f00:	cc                   	int3
  414f01:	cc                   	int3
  414f02:	cc                   	int3
  414f03:	cc                   	int3
  414f04:	cc                   	int3
  414f05:	cc                   	int3
  414f06:	cc                   	int3
  414f07:	cc                   	int3
  414f08:	cc                   	int3
  414f09:	cc                   	int3
  414f0a:	cc                   	int3
  414f0b:	cc                   	int3
  414f0c:	cc                   	int3
  414f0d:	cc                   	int3
  414f0e:	cc                   	int3
  414f0f:	cc                   	int3
  414f10:	cc                   	int3
  414f11:	cc                   	int3
  414f12:	cc                   	int3
  414f13:	cc                   	int3
  414f14:	cc                   	int3
  414f15:	cc                   	int3
  414f16:	cc                   	int3
  414f17:	cc                   	int3
  414f18:	cc                   	int3
  414f19:	cc                   	int3
  414f1a:	cc                   	int3
  414f1b:	cc                   	int3
  414f1c:	cc                   	int3
  414f1d:	cc                   	int3
  414f1e:	cc                   	int3
  414f1f:	cc                   	int3
  414f20:	cc                   	int3
  414f21:	cc                   	int3
  414f22:	cc                   	int3
  414f23:	cc                   	int3
  414f24:	cc                   	int3
  414f25:	cc                   	int3
  414f26:	cc                   	int3
  414f27:	cc                   	int3
  414f28:	cc                   	int3
  414f29:	cc                   	int3
  414f2a:	cc                   	int3
  414f2b:	cc                   	int3
  414f2c:	cc                   	int3
  414f2d:	cc                   	int3
  414f2e:	cc                   	int3
  414f2f:	cc                   	int3
  414f30:	55                   	push   %ebp
  414f31:	8b ec                	mov    %esp,%ebp
  414f33:	81 ec 20 03 00 00    	sub    $0x320,%esp
  414f39:	6a 17                	push   $0x17
  414f3b:	ff 15 44 e0 41 00    	call   *0x41e044
  414f41:	85 c0                	test   %eax,%eax
  414f43:	74 05                	je     0x414f4a
  414f45:	8b 4d 08             	mov    0x8(%ebp),%ecx
  414f48:	cd 29                	int    $0x29
  414f4a:	a3 50 d2 41 00       	mov    %eax,0x41d250
  414f4f:	89 0d 4c d2 41 00    	mov    %ecx,0x41d24c
  414f55:	89 15 48 d2 41 00    	mov    %edx,0x41d248
  414f5b:	89 1d 44 d2 41 00    	mov    %ebx,0x41d244
  414f61:	89 35 40 d2 41 00    	mov    %esi,0x41d240
  414f67:	89 3d 3c d2 41 00    	mov    %edi,0x41d23c
  414f6d:	66 8c 15 68 d2 41 00 	data16 mov %ss,0x41d268
  414f74:	66 8c 0d 5c d2 41 00 	data16 mov %cs,0x41d25c
  414f7b:	66 8c 1d 38 d2 41 00 	data16 mov %ds,0x41d238
  414f82:	66 8c 05 34 d2 41 00 	data16 mov %es,0x41d234
  414f89:	66 8c 25 30 d2 41 00 	data16 mov %fs,0x41d230
  414f90:	66 8c 2d 2c d2 41 00 	data16 mov %gs,0x41d22c
  414f97:	9c                   	pushf
  414f98:	8f 05 60 d2 41 00    	pop    0x41d260
  414f9e:	8b 45 00             	mov    0x0(%ebp),%eax
  414fa1:	a3 54 d2 41 00       	mov    %eax,0x41d254
  414fa6:	8b 45 04             	mov    0x4(%ebp),%eax
  414fa9:	a3 58 d2 41 00       	mov    %eax,0x41d258
  414fae:	8d 45 08             	lea    0x8(%ebp),%eax
  414fb1:	a3 64 d2 41 00       	mov    %eax,0x41d264
  414fb6:	8b 85 e0 fc ff ff    	mov    -0x320(%ebp),%eax
  414fbc:	a1 58 d2 41 00       	mov    0x41d258,%eax
  414fc1:	a3 5c d1 41 00       	mov    %eax,0x41d15c
  414fc6:	c7 05 50 d1 41 00 09 	movl   $0xc0000409,0x41d150
  414fcd:	04 00 c0 
  414fd0:	c7 05 54 d1 41 00 01 	movl   $0x1,0x41d154
  414fd7:	00 00 00 
  414fda:	83 7d 0c 00          	cmpl   $0x0,0xc(%ebp)
  414fde:	76 0d                	jbe    0x414fed
  414fe0:	83 7d 10 00          	cmpl   $0x0,0x10(%ebp)
  414fe4:	75 07                	jne    0x414fed
  414fe6:	c7 45 0c 00 00 00 00 	movl   $0x0,0xc(%ebp)
  414fed:	83 7d 0c 0e          	cmpl   $0xe,0xc(%ebp)
  414ff1:	76 09                	jbe    0x414ffc
  414ff3:	8b 4d 0c             	mov    0xc(%ebp),%ecx
  414ff6:	83 e9 01             	sub    $0x1,%ecx
  414ff9:	89 4d 0c             	mov    %ecx,0xc(%ebp)
  414ffc:	8b 55 0c             	mov    0xc(%ebp),%edx
  414fff:	83 c2 01             	add    $0x1,%edx
  415002:	89 15 60 d1 41 00    	mov    %edx,0x41d160
  415008:	b8 04 00 00 00       	mov    $0x4,%eax
  41500d:	6b c8 00             	imul   $0x0,%eax,%ecx
  415010:	8b 55 08             	mov    0x8(%ebp),%edx
  415013:	89 91 64 d1 41 00    	mov    %edx,0x41d164(%ecx)
  415019:	c7 45 fc 00 00 00 00 	movl   $0x0,-0x4(%ebp)
  415020:	eb 09                	jmp    0x41502b
  415022:	8b 45 fc             	mov    -0x4(%ebp),%eax
  415025:	83 c0 01             	add    $0x1,%eax
  415028:	89 45 fc             	mov    %eax,-0x4(%ebp)
  41502b:	8b 4d fc             	mov    -0x4(%ebp),%ecx
  41502e:	3b 4d 0c             	cmp    0xc(%ebp),%ecx
  415031:	73 15                	jae    0x415048
  415033:	8b 55 fc             	mov    -0x4(%ebp),%edx
  415036:	8b 45 fc             	mov    -0x4(%ebp),%eax
  415039:	8b 4d 10             	mov    0x10(%ebp),%ecx
  41503c:	8b 04 81             	mov    (%ecx,%eax,4),%eax
  41503f:	89 04 95 68 d1 41 00 	mov    %eax,0x41d168(,%edx,4)
  415046:	eb da                	jmp    0x415022
  415048:	68 b8 b3 41 00       	push   $0x41b3b8
  41504d:	e8 22 c4 ff ff       	call   0x411474
  415052:	8b e5                	mov    %ebp,%esp
  415054:	5d                   	pop    %ebp
  415055:	c3                   	ret
  415056:	cc                   	int3
  415057:	cc                   	int3
  415058:	cc                   	int3
  415059:	cc                   	int3
  41505a:	cc                   	int3
  41505b:	cc                   	int3
  41505c:	cc                   	int3
  41505d:	cc                   	int3
  41505e:	cc                   	int3
  41505f:	cc                   	int3
  415060:	cc                   	int3
  415061:	cc                   	int3
  415062:	cc                   	int3
  415063:	cc                   	int3
  415064:	cc                   	int3
  415065:	cc                   	int3
  415066:	cc                   	int3
  415067:	cc                   	int3
  415068:	cc                   	int3
  415069:	cc                   	int3
  41506a:	cc                   	int3
  41506b:	cc                   	int3
  41506c:	cc                   	int3
  41506d:	cc                   	int3
  41506e:	cc                   	int3
  41506f:	cc                   	int3
  415070:	cc                   	int3
  415071:	cc                   	int3
  415072:	cc                   	int3
  415073:	cc                   	int3
  415074:	cc                   	int3
  415075:	cc                   	int3
  415076:	cc                   	int3
  415077:	cc                   	int3
  415078:	cc                   	int3
  415079:	cc                   	int3
  41507a:	cc                   	int3
  41507b:	cc                   	int3
  41507c:	cc                   	int3
  41507d:	cc                   	int3
  41507e:	cc                   	int3
  41507f:	cc                   	int3
  415080:	cc                   	int3
  415081:	cc                   	int3
  415082:	cc                   	int3
  415083:	cc                   	int3
  415084:	cc                   	int3
  415085:	cc                   	int3
  415086:	cc                   	int3
  415087:	cc                   	int3
  415088:	cc                   	int3
  415089:	cc                   	int3
  41508a:	cc                   	int3
  41508b:	cc                   	int3
  41508c:	cc                   	int3
  41508d:	cc                   	int3
  41508e:	cc                   	int3
  41508f:	cc                   	int3
  415090:	cc                   	int3
  415091:	cc                   	int3
  415092:	cc                   	int3
  415093:	cc                   	int3
  415094:	cc                   	int3
  415095:	cc                   	int3
  415096:	cc                   	int3
  415097:	cc                   	int3
  415098:	cc                   	int3
  415099:	cc                   	int3
  41509a:	cc                   	int3
  41509b:	cc                   	int3
  41509c:	cc                   	int3
  41509d:	cc                   	int3
  41509e:	cc                   	int3
  41509f:	cc                   	int3
  4150a0:	a1 0c d5 41 00       	mov    0x41d50c,%eax
  4150a5:	c3                   	ret
  4150a6:	cc                   	int3
  4150a7:	cc                   	int3
  4150a8:	cc                   	int3
  4150a9:	cc                   	int3
  4150aa:	cc                   	int3
  4150ab:	cc                   	int3
  4150ac:	cc                   	int3
  4150ad:	cc                   	int3
  4150ae:	cc                   	int3
  4150af:	cc                   	int3
  4150b0:	a1 10 d5 41 00       	mov    0x41d510,%eax
  4150b5:	c3                   	ret
  4150b6:	cc                   	int3
  4150b7:	cc                   	int3
  4150b8:	cc                   	int3
  4150b9:	cc                   	int3
  4150ba:	cc                   	int3
  4150bb:	cc                   	int3
  4150bc:	cc                   	int3
  4150bd:	cc                   	int3
  4150be:	cc                   	int3
  4150bf:	cc                   	int3
  4150c0:	55                   	push   %ebp
  4150c1:	8b ec                	mov    %esp,%ebp
  4150c3:	8b 45 08             	mov    0x8(%ebp),%eax
  4150c6:	83 f8 04             	cmp    $0x4,%eax
  4150c9:	77 09                	ja     0x4150d4
  4150cb:	8b 04 85 c4 b3 41 00 	mov    0x41b3c4(,%eax,4),%eax
  4150d2:	5d                   	pop    %ebp
  4150d3:	c3                   	ret
  4150d4:	33 c0                	xor    %eax,%eax
  4150d6:	5d                   	pop    %ebp
  4150d7:	c3                   	ret
  4150d8:	cc                   	int3
  4150d9:	cc                   	int3
  4150da:	cc                   	int3
  4150db:	cc                   	int3
  4150dc:	cc                   	int3
  4150dd:	cc                   	int3
  4150de:	cc                   	int3
  4150df:	cc                   	int3
  4150e0:	b8 05 00 00 00       	mov    $0x5,%eax
  4150e5:	c3                   	ret
  4150e6:	cc                   	int3
  4150e7:	cc                   	int3
  4150e8:	cc                   	int3
  4150e9:	cc                   	int3
  4150ea:	cc                   	int3
  4150eb:	cc                   	int3
  4150ec:	cc                   	int3
  4150ed:	cc                   	int3
  4150ee:	cc                   	int3
  4150ef:	cc                   	int3
  4150f0:	55                   	push   %ebp
  4150f1:	8b ec                	mov    %esp,%ebp
  4150f3:	a1 0c d5 41 00       	mov    0x41d50c,%eax
  4150f8:	8b 4d 08             	mov    0x8(%ebp),%ecx
  4150fb:	89 0d 0c d5 41 00    	mov    %ecx,0x41d50c
  415101:	c7 05 10 d5 41 00 00 	movl   $0x0,0x41d510
  415108:	00 00 00 
  41510b:	5d                   	pop    %ebp
  41510c:	c3                   	ret
  41510d:	cc                   	int3
  41510e:	cc                   	int3
  41510f:	cc                   	int3
  415110:	cc                   	int3
  415111:	cc                   	int3
  415112:	cc                   	int3
  415113:	cc                   	int3
  415114:	cc                   	int3
  415115:	cc                   	int3
  415116:	cc                   	int3
  415117:	cc                   	int3
  415118:	cc                   	int3
  415119:	cc                   	int3
  41511a:	cc                   	int3
  41511b:	cc                   	int3
  41511c:	cc                   	int3
  41511d:	cc                   	int3
  41511e:	cc                   	int3
  41511f:	cc                   	int3
  415120:	55                   	push   %ebp
  415121:	8b ec                	mov    %esp,%ebp
  415123:	a1 10 d5 41 00       	mov    0x41d510,%eax
  415128:	8b 4d 08             	mov    0x8(%ebp),%ecx
  41512b:	89 0d 10 d5 41 00    	mov    %ecx,0x41d510
  415131:	c7 05 0c d5 41 00 00 	movl   $0x0,0x41d50c
  415138:	00 00 00 
  41513b:	5d                   	pop    %ebp
  41513c:	c3                   	ret
  41513d:	cc                   	int3
  41513e:	cc                   	int3
  41513f:	cc                   	int3
  415140:	cc                   	int3
  415141:	cc                   	int3
  415142:	cc                   	int3
  415143:	cc                   	int3
  415144:	cc                   	int3
  415145:	cc                   	int3
  415146:	cc                   	int3
  415147:	cc                   	int3
  415148:	cc                   	int3
  415149:	cc                   	int3
  41514a:	cc                   	int3
  41514b:	cc                   	int3
  41514c:	cc                   	int3
  41514d:	cc                   	int3
  41514e:	cc                   	int3
  41514f:	cc                   	int3
  415150:	55                   	push   %ebp
  415151:	8b ec                	mov    %esp,%ebp
  415153:	8b 55 08             	mov    0x8(%ebp),%edx
  415156:	83 fa 04             	cmp    $0x4,%edx
  415159:	77 13                	ja     0x41516e
  41515b:	8b 04 95 0c d0 41 00 	mov    0x41d00c(,%edx,4),%eax
  415162:	8b 4d 0c             	mov    0xc(%ebp),%ecx
  415165:	89 0c 95 0c d0 41 00 	mov    %ecx,0x41d00c(,%edx,4)
  41516c:	5d                   	pop    %ebp
  41516d:	c3                   	ret
  41516e:	83 c8 ff             	or     $0xffffffff,%eax
  415171:	5d                   	pop    %ebp
  415172:	c3                   	ret
  415173:	cc                   	int3
  415174:	cc                   	int3
  415175:	cc                   	int3
  415176:	cc                   	int3
  415177:	cc                   	int3
  415178:	cc                   	int3
  415179:	cc                   	int3
  41517a:	cc                   	int3
  41517b:	cc                   	int3
  41517c:	cc                   	int3
  41517d:	cc                   	int3
  41517e:	cc                   	int3
  41517f:	cc                   	int3
  415180:	55                   	push   %ebp
  415181:	8b ec                	mov    %esp,%ebp
  415183:	83 ec 18             	sub    $0x18,%esp
  415186:	8b 45 08             	mov    0x8(%ebp),%eax
  415189:	89 45 f4             	mov    %eax,-0xc(%ebp)
  41518c:	8b 4d f4             	mov    -0xc(%ebp),%ecx
  41518f:	8b 55 f4             	mov    -0xc(%ebp),%edx
  415192:	03 51 3c             	add    0x3c(%ecx),%edx
  415195:	89 55 ec             	mov    %edx,-0x14(%ebp)
  415198:	8b 45 ec             	mov    -0x14(%ebp),%eax
  41519b:	89 45 f8             	mov    %eax,-0x8(%ebp)
  41519e:	8b 4d f8             	mov    -0x8(%ebp),%ecx
  4151a1:	0f b7 51 14          	movzwl 0x14(%ecx),%edx
  4151a5:	8b 45 f8             	mov    -0x8(%ebp),%eax
  4151a8:	8d 4c 10 18          	lea    0x18(%eax,%edx,1),%ecx
  4151ac:	89 4d f0             	mov    %ecx,-0x10(%ebp)
  4151af:	8b 55 f8             	mov    -0x8(%ebp),%edx
  4151b2:	0f b7 42 06          	movzwl 0x6(%edx),%eax
  4151b6:	6b c8 28             	imul   $0x28,%eax,%ecx
  4151b9:	03 4d f0             	add    -0x10(%ebp),%ecx
  4151bc:	89 4d e8             	mov    %ecx,-0x18(%ebp)
  4151bf:	8b 55 f0             	mov    -0x10(%ebp),%edx
  4151c2:	89 55 fc             	mov    %edx,-0x4(%ebp)
  4151c5:	eb 09                	jmp    0x4151d0
  4151c7:	8b 45 fc             	mov    -0x4(%ebp),%eax
  4151ca:	83 c0 28             	add    $0x28,%eax
  4151cd:	89 45 fc             	mov    %eax,-0x4(%ebp)
  4151d0:	8b 4d fc             	mov    -0x4(%ebp),%ecx
  4151d3:	3b 4d e8             	cmp    -0x18(%ebp),%ecx
  4151d6:	74 23                	je     0x4151fb
  4151d8:	8b 55 fc             	mov    -0x4(%ebp),%edx
  4151db:	8b 45 0c             	mov    0xc(%ebp),%eax
  4151de:	3b 42 0c             	cmp    0xc(%edx),%eax
  4151e1:	72 16                	jb     0x4151f9
  4151e3:	8b 4d fc             	mov    -0x4(%ebp),%ecx
  4151e6:	8b 51 0c             	mov    0xc(%ecx),%edx
  4151e9:	8b 45 fc             	mov    -0x4(%ebp),%eax
  4151ec:	03 50 08             	add    0x8(%eax),%edx
  4151ef:	39 55 0c             	cmp    %edx,0xc(%ebp)
  4151f2:	73 05                	jae    0x4151f9
  4151f4:	8b 45 fc             	mov    -0x4(%ebp),%eax
  4151f7:	eb 04                	jmp    0x4151fd
  4151f9:	eb cc                	jmp    0x4151c7
  4151fb:	33 c0                	xor    %eax,%eax
  4151fd:	8b e5                	mov    %ebp,%esp
  4151ff:	5d                   	pop    %ebp
  415200:	c3                   	ret
  415201:	cc                   	int3
  415202:	cc                   	int3
  415203:	cc                   	int3
  415204:	cc                   	int3
  415205:	cc                   	int3
  415206:	cc                   	int3
  415207:	cc                   	int3
  415208:	cc                   	int3
  415209:	cc                   	int3
  41520a:	cc                   	int3
  41520b:	cc                   	int3
  41520c:	cc                   	int3
  41520d:	cc                   	int3
  41520e:	cc                   	int3
  41520f:	cc                   	int3
  415210:	cc                   	int3
  415211:	cc                   	int3
  415212:	cc                   	int3
  415213:	cc                   	int3
  415214:	cc                   	int3
  415215:	cc                   	int3
  415216:	cc                   	int3
  415217:	cc                   	int3
  415218:	cc                   	int3
  415219:	cc                   	int3
  41521a:	cc                   	int3
  41521b:	cc                   	int3
  41521c:	cc                   	int3
  41521d:	cc                   	int3
  41521e:	cc                   	int3
  41521f:	cc                   	int3
  415220:	cc                   	int3
  415221:	cc                   	int3
  415222:	cc                   	int3
  415223:	cc                   	int3
  415224:	cc                   	int3
  415225:	cc                   	int3
  415226:	cc                   	int3
  415227:	cc                   	int3
  415228:	cc                   	int3
  415229:	cc                   	int3
  41522a:	cc                   	int3
  41522b:	cc                   	int3
  41522c:	cc                   	int3
  41522d:	cc                   	int3
  41522e:	cc                   	int3
  41522f:	cc                   	int3
  415230:	55                   	push   %ebp
  415231:	8b ec                	mov    %esp,%ebp
  415233:	83 ec 10             	sub    $0x10,%esp
  415236:	83 7d 08 00          	cmpl   $0x0,0x8(%ebp)
  41523a:	75 04                	jne    0x415240
  41523c:	32 c0                	xor    %al,%al
  41523e:	eb 55                	jmp    0x415295
  415240:	8b 45 08             	mov    0x8(%ebp),%eax
  415243:	89 45 fc             	mov    %eax,-0x4(%ebp)
  415246:	8b 4d fc             	mov    -0x4(%ebp),%ecx
  415249:	0f b7 11             	movzwl (%ecx),%edx
  41524c:	81 fa 4d 5a 00 00    	cmp    $0x5a4d,%edx
  415252:	74 04                	je     0x415258
  415254:	32 c0                	xor    %al,%al
  415256:	eb 3d                	jmp    0x415295
  415258:	8b 45 fc             	mov    -0x4(%ebp),%eax
  41525b:	8b 4d fc             	mov    -0x4(%ebp),%ecx
  41525e:	03 48 3c             	add    0x3c(%eax),%ecx
  415261:	89 4d f4             	mov    %ecx,-0xc(%ebp)
  415264:	8b 55 f4             	mov    -0xc(%ebp),%edx
  415267:	89 55 f8             	mov    %edx,-0x8(%ebp)
  41526a:	8b 45 f8             	mov    -0x8(%ebp),%eax
  41526d:	81 38 50 45 00 00    	cmpl   $0x4550,(%eax)
  415273:	74 04                	je     0x415279
  415275:	32 c0                	xor    %al,%al
  415277:	eb 1c                	jmp    0x415295
  415279:	8b 4d f8             	mov    -0x8(%ebp),%ecx
  41527c:	83 c1 18             	add    $0x18,%ecx
  41527f:	89 4d f0             	mov    %ecx,-0x10(%ebp)
  415282:	8b 55 f0             	mov    -0x10(%ebp),%edx
  415285:	0f b7 02             	movzwl (%edx),%eax
  415288:	3d 0b 01 00 00       	cmp    $0x10b,%eax
  41528d:	74 04                	je     0x415293
  41528f:	32 c0                	xor    %al,%al
  415291:	eb 02                	jmp    0x415295
  415293:	b0 01                	mov    $0x1,%al
  415295:	8b e5                	mov    %ebp,%esp
  415297:	5d                   	pop    %ebp
  415298:	c3                   	ret
  415299:	cc                   	int3
  41529a:	cc                   	int3
  41529b:	cc                   	int3
  41529c:	cc                   	int3
  41529d:	cc                   	int3
  41529e:	cc                   	int3
  41529f:	cc                   	int3
  4152a0:	cc                   	int3
  4152a1:	cc                   	int3
  4152a2:	cc                   	int3
  4152a3:	cc                   	int3
  4152a4:	cc                   	int3
  4152a5:	cc                   	int3
  4152a6:	cc                   	int3
  4152a7:	cc                   	int3
  4152a8:	cc                   	int3
  4152a9:	cc                   	int3
  4152aa:	cc                   	int3
  4152ab:	cc                   	int3
  4152ac:	cc                   	int3
  4152ad:	cc                   	int3
  4152ae:	cc                   	int3
  4152af:	cc                   	int3
  4152b0:	cc                   	int3
  4152b1:	cc                   	int3
  4152b2:	cc                   	int3
  4152b3:	cc                   	int3
  4152b4:	cc                   	int3
  4152b5:	cc                   	int3
  4152b6:	cc                   	int3
  4152b7:	cc                   	int3
  4152b8:	cc                   	int3
  4152b9:	cc                   	int3
  4152ba:	cc                   	int3
  4152bb:	cc                   	int3
  4152bc:	cc                   	int3
  4152bd:	cc                   	int3
  4152be:	cc                   	int3
  4152bf:	cc                   	int3
  4152c0:	55                   	push   %ebp
  4152c1:	8b ec                	mov    %esp,%ebp
  4152c3:	64 a1 18 00 00 00    	mov    %fs:0x18,%eax
  4152c9:	5d                   	pop    %ebp
  4152ca:	c3                   	ret
  4152cb:	cc                   	int3
  4152cc:	cc                   	int3
  4152cd:	cc                   	int3
  4152ce:	cc                   	int3
  4152cf:	cc                   	int3
  4152d0:	55                   	push   %ebp
  4152d1:	8b ec                	mov    %esp,%ebp
  4152d3:	83 ec 08             	sub    $0x8,%esp
  4152d6:	e8 37 bf ff ff       	call   0x411212
  4152db:	85 c0                	test   %eax,%eax
  4152dd:	75 04                	jne    0x4152e3
  4152df:	32 c0                	xor    %al,%al
  4152e1:	eb 32                	jmp    0x415315
  4152e3:	e8 46 c1 ff ff       	call   0x41142e
  4152e8:	8b 40 04             	mov    0x4(%eax),%eax
  4152eb:	89 45 fc             	mov    %eax,-0x4(%ebp)
  4152ee:	8b 4d fc             	mov    -0x4(%ebp),%ecx
  4152f1:	ba 1c d5 41 00       	mov    $0x41d51c,%edx
  4152f6:	33 c0                	xor    %eax,%eax
  4152f8:	f0 0f b1 0a          	lock cmpxchg %ecx,(%edx)
  4152fc:	89 45 f8             	mov    %eax,-0x8(%ebp)
  4152ff:	83 7d f8 00          	cmpl   $0x0,-0x8(%ebp)
  415303:	74 0e                	je     0x415313
  415305:	8b 45 fc             	mov    -0x4(%ebp),%eax
  415308:	3b 45 f8             	cmp    -0x8(%ebp),%eax
  41530b:	75 04                	jne    0x415311
  41530d:	b0 01                	mov    $0x1,%al
  41530f:	eb 04                	jmp    0x415315
  415311:	eb db                	jmp    0x4152ee
  415313:	32 c0                	xor    %al,%al
  415315:	8b e5                	mov    %ebp,%esp
  415317:	5d                   	pop    %ebp
  415318:	c3                   	ret
  415319:	cc                   	int3
  41531a:	cc                   	int3
  41531b:	cc                   	int3
  41531c:	cc                   	int3
  41531d:	cc                   	int3
  41531e:	cc                   	int3
  41531f:	cc                   	int3
  415320:	cc                   	int3
  415321:	cc                   	int3
  415322:	cc                   	int3
  415323:	cc                   	int3
  415324:	cc                   	int3
  415325:	cc                   	int3
  415326:	cc                   	int3
  415327:	cc                   	int3
  415328:	cc                   	int3
  415329:	cc                   	int3
  41532a:	cc                   	int3
  41532b:	cc                   	int3
  41532c:	cc                   	int3
  41532d:	cc                   	int3
  41532e:	cc                   	int3
  41532f:	cc                   	int3
  415330:	55                   	push   %ebp
  415331:	8b ec                	mov    %esp,%ebp
  415333:	e8 da be ff ff       	call   0x411212
  415338:	85 c0                	test   %eax,%eax
  41533a:	74 07                	je     0x415343
  41533c:	e8 d6 be ff ff       	call   0x411217
  415341:	eb 12                	jmp    0x415355
  415343:	e8 42 bf ff ff       	call   0x41128a
  415348:	85 c0                	test   %eax,%eax
  41534a:	74 04                	je     0x415350
  41534c:	32 c0                	xor    %al,%al
  41534e:	eb 07                	jmp    0x415357
  415350:	e8 31 be ff ff       	call   0x411186
  415355:	b0 01                	mov    $0x1,%al
  415357:	5d                   	pop    %ebp
  415358:	c3                   	ret
  415359:	cc                   	int3
  41535a:	cc                   	int3
  41535b:	cc                   	int3
  41535c:	cc                   	int3
  41535d:	cc                   	int3
  41535e:	cc                   	int3
  41535f:	cc                   	int3
  415360:	cc                   	int3
  415361:	cc                   	int3
  415362:	cc                   	int3
  415363:	cc                   	int3
  415364:	cc                   	int3
  415365:	cc                   	int3
  415366:	cc                   	int3
  415367:	cc                   	int3
  415368:	cc                   	int3
  415369:	cc                   	int3
  41536a:	cc                   	int3
  41536b:	cc                   	int3
  41536c:	cc                   	int3
  41536d:	cc                   	int3
  41536e:	cc                   	int3
  41536f:	cc                   	int3
  415370:	55                   	push   %ebp
  415371:	8b ec                	mov    %esp,%ebp
  415373:	6a 00                	push   $0x0
  415375:	e8 11 be ff ff       	call   0x41118b
  41537a:	83 c4 04             	add    $0x4,%esp
  41537d:	0f b6 c0             	movzbl %al,%eax
  415380:	85 c0                	test   %eax,%eax
  415382:	75 04                	jne    0x415388
  415384:	32 c0                	xor    %al,%al
  415386:	eb 02                	jmp    0x41538a
  415388:	b0 01                	mov    $0x1,%al
  41538a:	5d                   	pop    %ebp
  41538b:	c3                   	ret
  41538c:	cc                   	int3
  41538d:	cc                   	int3
  41538e:	cc                   	int3
  41538f:	cc                   	int3
  415390:	cc                   	int3
  415391:	cc                   	int3
  415392:	cc                   	int3
  415393:	cc                   	int3
  415394:	cc                   	int3
  415395:	cc                   	int3
  415396:	cc                   	int3
  415397:	cc                   	int3
  415398:	cc                   	int3
  415399:	cc                   	int3
  41539a:	cc                   	int3
  41539b:	cc                   	int3
  41539c:	cc                   	int3
  41539d:	cc                   	int3
  41539e:	cc                   	int3
  41539f:	cc                   	int3
  4153a0:	55                   	push   %ebp
  4153a1:	8b ec                	mov    %esp,%ebp
  4153a3:	e8 28 bf ff ff       	call   0x4112d0
  4153a8:	0f b6 c0             	movzbl %al,%eax
  4153ab:	85 c0                	test   %eax,%eax
  4153ad:	75 04                	jne    0x4153b3
  4153af:	32 c0                	xor    %al,%al
  4153b1:	eb 17                	jmp    0x4153ca
  4153b3:	e8 4f bf ff ff       	call   0x411307
  4153b8:	0f b6 c8             	movzbl %al,%ecx
  4153bb:	85 c9                	test   %ecx,%ecx
  4153bd:	75 09                	jne    0x4153c8
  4153bf:	e8 95 bd ff ff       	call   0x411159
  4153c4:	32 c0                	xor    %al,%al
  4153c6:	eb 02                	jmp    0x4153ca
  4153c8:	b0 01                	mov    $0x1,%al
  4153ca:	5d                   	pop    %ebp
  4153cb:	c3                   	ret
  4153cc:	cc                   	int3
  4153cd:	cc                   	int3
  4153ce:	cc                   	int3
  4153cf:	cc                   	int3
  4153d0:	cc                   	int3
  4153d1:	cc                   	int3
  4153d2:	cc                   	int3
  4153d3:	cc                   	int3
  4153d4:	cc                   	int3
  4153d5:	cc                   	int3
  4153d6:	cc                   	int3
  4153d7:	cc                   	int3
  4153d8:	cc                   	int3
  4153d9:	cc                   	int3
  4153da:	cc                   	int3
  4153db:	cc                   	int3
  4153dc:	cc                   	int3
  4153dd:	cc                   	int3
  4153de:	cc                   	int3
  4153df:	cc                   	int3
  4153e0:	55                   	push   %ebp
  4153e1:	8b ec                	mov    %esp,%ebp
  4153e3:	e8 16 be ff ff       	call   0x4111fe
  4153e8:	e8 6c bd ff ff       	call   0x411159
  4153ed:	b0 01                	mov    $0x1,%al
  4153ef:	5d                   	pop    %ebp
  4153f0:	c3                   	ret
  4153f1:	cc                   	int3
  4153f2:	cc                   	int3
  4153f3:	cc                   	int3
  4153f4:	cc                   	int3
  4153f5:	cc                   	int3
  4153f6:	cc                   	int3
  4153f7:	cc                   	int3
  4153f8:	cc                   	int3
  4153f9:	cc                   	int3
  4153fa:	cc                   	int3
  4153fb:	cc                   	int3
  4153fc:	cc                   	int3
  4153fd:	cc                   	int3
  4153fe:	cc                   	int3
  4153ff:	cc                   	int3
  415400:	55                   	push   %ebp
  415401:	8b ec                	mov    %esp,%ebp
  415403:	83 ec 08             	sub    $0x8,%esp
  415406:	e8 07 be ff ff       	call   0x411212
  41540b:	85 c0                	test   %eax,%eax
  41540d:	75 28                	jne    0x415437
  41540f:	83 7d 0c 01          	cmpl   $0x1,0xc(%ebp)
  415413:	75 22                	jne    0x415437
  415415:	8b 45 14             	mov    0x14(%ebp),%eax
  415418:	89 45 f8             	mov    %eax,-0x8(%ebp)
  41541b:	8b 4d 10             	mov    0x10(%ebp),%ecx
  41541e:	51                   	push   %ecx
  41541f:	6a 00                	push   $0x0
  415421:	8b 55 08             	mov    0x8(%ebp),%edx
  415424:	52                   	push   %edx
  415425:	8b 45 f8             	mov    -0x8(%ebp),%eax
  415428:	89 45 fc             	mov    %eax,-0x4(%ebp)
  41542b:	8b 4d fc             	mov    -0x4(%ebp),%ecx
  41542e:	ff 15 00 10 42 00    	call   *0x421000
  415434:	ff 55 fc             	call   *-0x4(%ebp)
  415437:	8b 4d 1c             	mov    0x1c(%ebp),%ecx
  41543a:	51                   	push   %ecx
  41543b:	8b 55 18             	mov    0x18(%ebp),%edx
  41543e:	52                   	push   %edx
  41543f:	e8 7e bd ff ff       	call   0x4111c2
  415444:	83 c4 08             	add    $0x8,%esp
  415447:	8b e5                	mov    %ebp,%esp
  415449:	5d                   	pop    %ebp
  41544a:	c3                   	ret
  41544b:	cc                   	int3
  41544c:	cc                   	int3
  41544d:	cc                   	int3
  41544e:	cc                   	int3
  41544f:	cc                   	int3
  415450:	cc                   	int3
  415451:	cc                   	int3
  415452:	cc                   	int3
  415453:	cc                   	int3
  415454:	cc                   	int3
  415455:	cc                   	int3
  415456:	cc                   	int3
  415457:	cc                   	int3
  415458:	cc                   	int3
  415459:	cc                   	int3
  41545a:	cc                   	int3
  41545b:	cc                   	int3
  41545c:	cc                   	int3
  41545d:	cc                   	int3
  41545e:	cc                   	int3
  41545f:	cc                   	int3
  415460:	55                   	push   %ebp
  415461:	8b ec                	mov    %esp,%ebp
  415463:	e8 aa bd ff ff       	call   0x411212
  415468:	85 c0                	test   %eax,%eax
  41546a:	74 0f                	je     0x41547b
  41546c:	68 24 d5 41 00       	push   $0x41d524
  415471:	e8 52 bc ff ff       	call   0x4110c8
  415476:	83 c4 04             	add    $0x4,%esp
  415479:	eb 0e                	jmp    0x415489
  41547b:	e8 ec bd ff ff       	call   0x41126c
  415480:	85 c0                	test   %eax,%eax
  415482:	75 05                	jne    0x415489
  415484:	e8 e6 bf ff ff       	call   0x41146f
  415489:	5d                   	pop    %ebp
  41548a:	c3                   	ret
  41548b:	cc                   	int3
  41548c:	cc                   	int3
  41548d:	cc                   	int3
  41548e:	cc                   	int3
  41548f:	cc                   	int3
  415490:	cc                   	int3
  415491:	cc                   	int3
  415492:	cc                   	int3
  415493:	cc                   	int3
  415494:	cc                   	int3
  415495:	cc                   	int3
  415496:	cc                   	int3
  415497:	cc                   	int3
  415498:	cc                   	int3
  415499:	cc                   	int3
  41549a:	cc                   	int3
  41549b:	cc                   	int3
  41549c:	cc                   	int3
  41549d:	cc                   	int3
  41549e:	cc                   	int3
  41549f:	cc                   	int3
  4154a0:	55                   	push   %ebp
  4154a1:	8b ec                	mov    %esp,%ebp
  4154a3:	6a 00                	push   $0x0
  4154a5:	e8 b6 bf ff ff       	call   0x411460
  4154aa:	83 c4 04             	add    $0x4,%esp
  4154ad:	e8 32 be ff ff       	call   0x4112e4
  4154b2:	5d                   	pop    %ebp
  4154b3:	c3                   	ret
  4154b4:	cc                   	int3
  4154b5:	cc                   	int3
  4154b6:	cc                   	int3
  4154b7:	cc                   	int3
  4154b8:	cc                   	int3
  4154b9:	cc                   	int3
  4154ba:	cc                   	int3
  4154bb:	cc                   	int3
  4154bc:	cc                   	int3
  4154bd:	cc                   	int3
  4154be:	cc                   	int3
  4154bf:	cc                   	int3
  4154c0:	55                   	push   %ebp
  4154c1:	8b ec                	mov    %esp,%ebp
  4154c3:	83 7d 08 00          	cmpl   $0x0,0x8(%ebp)
  4154c7:	75 07                	jne    0x4154d0
  4154c9:	c6 05 20 d5 41 00 01 	movb   $0x1,0x41d520
  4154d0:	e8 42 bd ff ff       	call   0x411217
  4154d5:	e8 41 be ff ff       	call   0x41131b
  4154da:	0f b6 c0             	movzbl %al,%eax
  4154dd:	85 c0                	test   %eax,%eax
  4154df:	75 04                	jne    0x4154e5
  4154e1:	32 c0                	xor    %al,%al
  4154e3:	eb 1c                	jmp    0x415501
  4154e5:	e8 36 be ff ff       	call   0x411320
  4154ea:	0f b6 c8             	movzbl %al,%ecx
  4154ed:	85 c9                	test   %ecx,%ecx
  4154ef:	75 0e                	jne    0x4154ff
  4154f1:	6a 00                	push   $0x0
  4154f3:	e8 26 bb ff ff       	call   0x41101e
  4154f8:	83 c4 04             	add    $0x4,%esp
  4154fb:	32 c0                	xor    %al,%al
  4154fd:	eb 02                	jmp    0x415501
  4154ff:	b0 01                	mov    $0x1,%al
  415501:	5d                   	pop    %ebp
  415502:	c3                   	ret
  415503:	cc                   	int3
  415504:	cc                   	int3
  415505:	cc                   	int3
  415506:	cc                   	int3
  415507:	cc                   	int3
  415508:	cc                   	int3
  415509:	cc                   	int3
  41550a:	cc                   	int3
  41550b:	cc                   	int3
  41550c:	cc                   	int3
  41550d:	cc                   	int3
  41550e:	cc                   	int3
  41550f:	cc                   	int3
  415510:	cc                   	int3
  415511:	cc                   	int3
  415512:	cc                   	int3
  415513:	cc                   	int3
  415514:	cc                   	int3
  415515:	cc                   	int3
  415516:	cc                   	int3
  415517:	cc                   	int3
  415518:	cc                   	int3
  415519:	cc                   	int3
  41551a:	cc                   	int3
  41551b:	cc                   	int3
  41551c:	cc                   	int3
  41551d:	cc                   	int3
  41551e:	cc                   	int3
  41551f:	cc                   	int3
  415520:	55                   	push   %ebp
  415521:	8b ec                	mov    %esp,%ebp
  415523:	83 ec 1c             	sub    $0x1c,%esp
  415526:	0f b6 05 21 d5 41 00 	movzbl 0x41d521,%eax
  41552d:	85 c0                	test   %eax,%eax
  41552f:	74 07                	je     0x415538
  415531:	b0 01                	mov    $0x1,%al
  415533:	e9 b6 00 00 00       	jmp    0x4155ee
  415538:	83 7d 08 00          	cmpl   $0x0,0x8(%ebp)
  41553c:	74 0d                	je     0x41554b
  41553e:	83 7d 08 01          	cmpl   $0x1,0x8(%ebp)
  415542:	74 07                	je     0x41554b
  415544:	6a 05                	push   $0x5
  415546:	e8 fe bc ff ff       	call   0x411249
  41554b:	e8 c2 bc ff ff       	call   0x411212
  415550:	85 c0                	test   %eax,%eax
  415552:	74 32                	je     0x415586
  415554:	83 7d 08 00          	cmpl   $0x0,0x8(%ebp)
  415558:	75 2c                	jne    0x415586
  41555a:	68 24 d5 41 00       	push   $0x41d524
  41555f:	e8 50 bb ff ff       	call   0x4110b4
  415564:	83 c4 04             	add    $0x4,%esp
  415567:	85 c0                	test   %eax,%eax
  415569:	74 04                	je     0x41556f
  41556b:	32 c0                	xor    %al,%al
  41556d:	eb 7f                	jmp    0x4155ee
  41556f:	68 30 d5 41 00       	push   $0x41d530
  415574:	e8 3b bb ff ff       	call   0x4110b4
  415579:	83 c4 04             	add    $0x4,%esp
  41557c:	85 c0                	test   %eax,%eax
  41557e:	74 04                	je     0x415584
  415580:	32 c0                	xor    %al,%al
  415582:	eb 6a                	jmp    0x4155ee
  415584:	eb 5f                	jmp    0x4155e5
  415586:	c7 45 fc ff ff ff ff 	movl   $0xffffffff,-0x4(%ebp)
  41558d:	8b 4d fc             	mov    -0x4(%ebp),%ecx
  415590:	89 4d f0             	mov    %ecx,-0x10(%ebp)
  415593:	8b 55 fc             	mov    -0x4(%ebp),%edx
  415596:	89 55 f4             	mov    %edx,-0xc(%ebp)
  415599:	8b 45 fc             	mov    -0x4(%ebp),%eax
  41559c:	89 45 f8             	mov    %eax,-0x8(%ebp)
  41559f:	8b 4d f0             	mov    -0x10(%ebp),%ecx
  4155a2:	89 0d 24 d5 41 00    	mov    %ecx,0x41d524
  4155a8:	8b 55 f4             	mov    -0xc(%ebp),%edx
  4155ab:	89 15 28 d5 41 00    	mov    %edx,0x41d528
  4155b1:	8b 45 f8             	mov    -0x8(%ebp),%eax
  4155b4:	a3 2c d5 41 00       	mov    %eax,0x41d52c
  4155b9:	8b 4d fc             	mov    -0x4(%ebp),%ecx
  4155bc:	89 4d e4             	mov    %ecx,-0x1c(%ebp)
  4155bf:	8b 55 fc             	mov    -0x4(%ebp),%edx
  4155c2:	89 55 e8             	mov    %edx,-0x18(%ebp)
  4155c5:	8b 45 fc             	mov    -0x4(%ebp),%eax
  4155c8:	89 45 ec             	mov    %eax,-0x14(%ebp)
  4155cb:	8b 4d e4             	mov    -0x1c(%ebp),%ecx
  4155ce:	89 0d 30 d5 41 00    	mov    %ecx,0x41d530
  4155d4:	8b 55 e8             	mov    -0x18(%ebp),%edx
  4155d7:	89 15 34 d5 41 00    	mov    %edx,0x41d534
  4155dd:	8b 45 ec             	mov    -0x14(%ebp),%eax
  4155e0:	a3 38 d5 41 00       	mov    %eax,0x41d538
  4155e5:	c6 05 21 d5 41 00 01 	movb   $0x1,0x41d521
  4155ec:	b0 01                	mov    $0x1,%al
  4155ee:	8b e5                	mov    %ebp,%esp
  4155f0:	5d                   	pop    %ebp
  4155f1:	c3                   	ret
  4155f2:	cc                   	int3
  4155f3:	cc                   	int3
  4155f4:	cc                   	int3
  4155f5:	cc                   	int3
  4155f6:	cc                   	int3
  4155f7:	cc                   	int3
  4155f8:	cc                   	int3
  4155f9:	cc                   	int3
  4155fa:	cc                   	int3
  4155fb:	cc                   	int3
  4155fc:	cc                   	int3
  4155fd:	cc                   	int3
  4155fe:	cc                   	int3
  4155ff:	cc                   	int3
  415600:	cc                   	int3
  415601:	cc                   	int3
  415602:	cc                   	int3
  415603:	cc                   	int3
  415604:	cc                   	int3
  415605:	cc                   	int3
  415606:	cc                   	int3
  415607:	cc                   	int3
  415608:	cc                   	int3
  415609:	cc                   	int3
  41560a:	cc                   	int3
  41560b:	cc                   	int3
  41560c:	cc                   	int3
  41560d:	cc                   	int3
  41560e:	cc                   	int3
  41560f:	cc                   	int3
  415610:	cc                   	int3
  415611:	cc                   	int3
  415612:	cc                   	int3
  415613:	cc                   	int3
  415614:	cc                   	int3
  415615:	cc                   	int3
  415616:	cc                   	int3
  415617:	cc                   	int3
  415618:	cc                   	int3
  415619:	cc                   	int3
  41561a:	cc                   	int3
  41561b:	cc                   	int3
  41561c:	cc                   	int3
  41561d:	cc                   	int3
  41561e:	cc                   	int3
  41561f:	cc                   	int3
  415620:	cc                   	int3
  415621:	cc                   	int3
  415622:	cc                   	int3
  415623:	cc                   	int3
  415624:	cc                   	int3
  415625:	cc                   	int3
  415626:	cc                   	int3
  415627:	cc                   	int3
  415628:	cc                   	int3
  415629:	cc                   	int3
  41562a:	cc                   	int3
  41562b:	cc                   	int3
  41562c:	cc                   	int3
  41562d:	cc                   	int3
  41562e:	cc                   	int3
  41562f:	cc                   	int3
  415630:	55                   	push   %ebp
  415631:	8b ec                	mov    %esp,%ebp
  415633:	6a fe                	push   $0xfffffffe
  415635:	68 b8 c5 41 00       	push   $0x41c5b8
  41563a:	68 40 60 41 00       	push   $0x416040
  41563f:	64 a1 00 00 00 00    	mov    %fs:0x0,%eax
  415645:	50                   	push   %eax
  415646:	83 c4 d8             	add    $0xffffffd8,%esp
  415649:	53                   	push   %ebx
  41564a:	56                   	push   %esi
  41564b:	57                   	push   %edi
  41564c:	a1 00 d0 41 00       	mov    0x41d000,%eax
  415651:	31 45 f8             	xor    %eax,-0x8(%ebp)
  415654:	33 c5                	xor    %ebp,%eax
  415656:	50                   	push   %eax
  415657:	8d 45 f0             	lea    -0x10(%ebp),%eax
  41565a:	64 a3 00 00 00 00    	mov    %eax,%fs:0x0
  415660:	89 65 e8             	mov    %esp,-0x18(%ebp)
  415663:	8b 45 08             	mov    0x8(%ebp),%eax
  415666:	89 45 d0             	mov    %eax,-0x30(%ebp)
  415669:	c7 45 dc 00 00 40 00 	movl   $0x400000,-0x24(%ebp)
  415670:	c7 45 fc 00 00 00 00 	movl   $0x0,-0x4(%ebp)
  415677:	8b 4d dc             	mov    -0x24(%ebp),%ecx
  41567a:	51                   	push   %ecx
  41567b:	e8 b0 fb ff ff       	call   0x415230
  415680:	83 c4 04             	add    $0x4,%esp
  415683:	0f b6 d0             	movzbl %al,%edx
  415686:	85 d2                	test   %edx,%edx
  415688:	75 13                	jne    0x41569d
  41568a:	c6 45 e7 00          	movb   $0x0,-0x19(%ebp)
  41568e:	c7 45 fc fe ff ff ff 	movl   $0xfffffffe,-0x4(%ebp)
  415695:	8a 45 e7             	mov    -0x19(%ebp),%al
  415698:	e9 aa 00 00 00       	jmp    0x415747
  41569d:	8b 45 d0             	mov    -0x30(%ebp),%eax
  4156a0:	2b 45 dc             	sub    -0x24(%ebp),%eax
  4156a3:	89 45 cc             	mov    %eax,-0x34(%ebp)
  4156a6:	8b 4d cc             	mov    -0x34(%ebp),%ecx
  4156a9:	51                   	push   %ecx
  4156aa:	8b 55 dc             	mov    -0x24(%ebp),%edx
  4156ad:	52                   	push   %edx
  4156ae:	e8 cd fa ff ff       	call   0x415180
  4156b3:	83 c4 08             	add    $0x8,%esp
  4156b6:	89 45 d8             	mov    %eax,-0x28(%ebp)
  4156b9:	83 7d d8 00          	cmpl   $0x0,-0x28(%ebp)
  4156bd:	75 10                	jne    0x4156cf
  4156bf:	c6 45 e6 00          	movb   $0x0,-0x1a(%ebp)
  4156c3:	c7 45 fc fe ff ff ff 	movl   $0xfffffffe,-0x4(%ebp)
  4156ca:	8a 45 e6             	mov    -0x1a(%ebp),%al
  4156cd:	eb 78                	jmp    0x415747
  4156cf:	8b 45 d8             	mov    -0x28(%ebp),%eax
  4156d2:	8b 48 24             	mov    0x24(%eax),%ecx
  4156d5:	81 e1 00 00 00 80    	and    $0x80000000,%ecx
  4156db:	74 10                	je     0x4156ed
  4156dd:	c6 45 e5 00          	movb   $0x0,-0x1b(%ebp)
  4156e1:	c7 45 fc fe ff ff ff 	movl   $0xfffffffe,-0x4(%ebp)
  4156e8:	8a 45 e5             	mov    -0x1b(%ebp),%al
  4156eb:	eb 5a                	jmp    0x415747
  4156ed:	c6 45 e4 01          	movb   $0x1,-0x1c(%ebp)
  4156f1:	c7 45 fc fe ff ff ff 	movl   $0xfffffffe,-0x4(%ebp)
  4156f8:	8a 45 e4             	mov    -0x1c(%ebp),%al
  4156fb:	eb 4a                	jmp    0x415747
  4156fd:	c7 45 fc fe ff ff ff 	movl   $0xfffffffe,-0x4(%ebp)
  415704:	eb 41                	jmp    0x415747
  415706:	8b 55 ec             	mov    -0x14(%ebp),%edx
  415709:	8b 02                	mov    (%edx),%eax
  41570b:	8b 08                	mov    (%eax),%ecx
  41570d:	89 4d c8             	mov    %ecx,-0x38(%ebp)
  415710:	81 7d c8 05 00 00 c0 	cmpl   $0xc0000005,-0x38(%ebp)
  415717:	75 09                	jne    0x415722
  415719:	c7 45 d4 01 00 00 00 	movl   $0x1,-0x2c(%ebp)
  415720:	eb 07                	jmp    0x415729
  415722:	c7 45 d4 00 00 00 00 	movl   $0x0,-0x2c(%ebp)
  415729:	8b 45 d4             	mov    -0x2c(%ebp),%eax
  41572c:	c3                   	ret
  41572d:	8b 65 e8             	mov    -0x18(%ebp),%esp
  415730:	c6 45 e3 00          	movb   $0x0,-0x1d(%ebp)
  415734:	c7 45 fc fe ff ff ff 	movl   $0xfffffffe,-0x4(%ebp)
  41573b:	8a 45 e3             	mov    -0x1d(%ebp),%al
  41573e:	eb 07                	jmp    0x415747
  415740:	c7 45 fc fe ff ff ff 	movl   $0xfffffffe,-0x4(%ebp)
  415747:	8b 4d f0             	mov    -0x10(%ebp),%ecx
  41574a:	64 89 0d 00 00 00 00 	mov    %ecx,%fs:0x0
  415751:	59                   	pop    %ecx
  415752:	5f                   	pop    %edi
  415753:	5e                   	pop    %esi
  415754:	5b                   	pop    %ebx
  415755:	8b e5                	mov    %ebp,%esp
  415757:	5d                   	pop    %ebp
  415758:	c3                   	ret
  415759:	cc                   	int3
  41575a:	cc                   	int3
  41575b:	cc                   	int3
  41575c:	cc                   	int3
  41575d:	cc                   	int3
  41575e:	cc                   	int3
  41575f:	cc                   	int3
  415760:	cc                   	int3
  415761:	cc                   	int3
  415762:	cc                   	int3
  415763:	cc                   	int3
  415764:	cc                   	int3
  415765:	cc                   	int3
  415766:	cc                   	int3
  415767:	cc                   	int3
  415768:	cc                   	int3
  415769:	cc                   	int3
  41576a:	cc                   	int3
  41576b:	cc                   	int3
  41576c:	cc                   	int3
  41576d:	cc                   	int3
  41576e:	cc                   	int3
  41576f:	cc                   	int3
  415770:	cc                   	int3
  415771:	cc                   	int3
  415772:	cc                   	int3
  415773:	cc                   	int3
  415774:	cc                   	int3
  415775:	cc                   	int3
  415776:	cc                   	int3
  415777:	cc                   	int3
  415778:	cc                   	int3
  415779:	cc                   	int3
  41577a:	cc                   	int3
  41577b:	cc                   	int3
  41577c:	cc                   	int3
  41577d:	cc                   	int3
  41577e:	cc                   	int3
  41577f:	cc                   	int3
  415780:	cc                   	int3
  415781:	cc                   	int3
  415782:	cc                   	int3
  415783:	cc                   	int3
  415784:	cc                   	int3
  415785:	cc                   	int3
  415786:	cc                   	int3
  415787:	cc                   	int3
  415788:	cc                   	int3
  415789:	cc                   	int3
  41578a:	cc                   	int3
  41578b:	cc                   	int3
  41578c:	cc                   	int3
  41578d:	cc                   	int3
  41578e:	cc                   	int3
  41578f:	cc                   	int3
  415790:	cc                   	int3
  415791:	cc                   	int3
  415792:	cc                   	int3
  415793:	cc                   	int3
  415794:	cc                   	int3
  415795:	cc                   	int3
  415796:	cc                   	int3
  415797:	cc                   	int3
  415798:	cc                   	int3
  415799:	cc                   	int3
  41579a:	cc                   	int3
  41579b:	cc                   	int3
  41579c:	cc                   	int3
  41579d:	cc                   	int3
  41579e:	cc                   	int3
  41579f:	cc                   	int3
  4157a0:	cc                   	int3
  4157a1:	cc                   	int3
  4157a2:	cc                   	int3
  4157a3:	cc                   	int3
  4157a4:	cc                   	int3
  4157a5:	cc                   	int3
  4157a6:	cc                   	int3
  4157a7:	cc                   	int3
  4157a8:	cc                   	int3
  4157a9:	cc                   	int3
  4157aa:	cc                   	int3
  4157ab:	cc                   	int3
  4157ac:	cc                   	int3
  4157ad:	cc                   	int3
  4157ae:	cc                   	int3
  4157af:	cc                   	int3
  4157b0:	55                   	push   %ebp
  4157b1:	8b ec                	mov    %esp,%ebp
  4157b3:	e8 5a ba ff ff       	call   0x411212
  4157b8:	85 c0                	test   %eax,%eax
  4157ba:	75 02                	jne    0x4157be
  4157bc:	eb 13                	jmp    0x4157d1
  4157be:	0f b6 45 08          	movzbl 0x8(%ebp),%eax
  4157c2:	85 c0                	test   %eax,%eax
  4157c4:	74 02                	je     0x4157c8
  4157c6:	eb 09                	jmp    0x4157d1
  4157c8:	33 c9                	xor    %ecx,%ecx
  4157ca:	ba 1c d5 41 00       	mov    $0x41d51c,%edx
  4157cf:	87 0a                	xchg   %ecx,(%edx)
  4157d1:	5d                   	pop    %ebp
  4157d2:	c3                   	ret
  4157d3:	cc                   	int3
  4157d4:	cc                   	int3
  4157d5:	cc                   	int3
  4157d6:	cc                   	int3
  4157d7:	cc                   	int3
  4157d8:	cc                   	int3
  4157d9:	cc                   	int3
  4157da:	cc                   	int3
  4157db:	cc                   	int3
  4157dc:	cc                   	int3
  4157dd:	cc                   	int3
  4157de:	cc                   	int3
  4157df:	cc                   	int3
  4157e0:	55                   	push   %ebp
  4157e1:	8b ec                	mov    %esp,%ebp
  4157e3:	0f b6 05 20 d5 41 00 	movzbl 0x41d520,%eax
  4157ea:	85 c0                	test   %eax,%eax
  4157ec:	74 0c                	je     0x4157fa
  4157ee:	0f b6 4d 0c          	movzbl 0xc(%ebp),%ecx
  4157f2:	85 c9                	test   %ecx,%ecx
  4157f4:	74 04                	je     0x4157fa
  4157f6:	b0 01                	mov    $0x1,%al
  4157f8:	eb 1c                	jmp    0x415816
  4157fa:	0f b6 55 08          	movzbl 0x8(%ebp),%edx
  4157fe:	52                   	push   %edx
  4157ff:	e8 7d b9 ff ff       	call   0x411181
  415804:	83 c4 04             	add    $0x4,%esp
  415807:	0f b6 45 08          	movzbl 0x8(%ebp),%eax
  41580b:	50                   	push   %eax
  41580c:	e8 0d b8 ff ff       	call   0x41101e
  415811:	83 c4 04             	add    $0x4,%esp
  415814:	b0 01                	mov    $0x1,%al
  415816:	5d                   	pop    %ebp
  415817:	c3                   	ret
  415818:	cc                   	int3
  415819:	cc                   	int3
  41581a:	cc                   	int3
  41581b:	cc                   	int3
  41581c:	cc                   	int3
  41581d:	cc                   	int3
  41581e:	cc                   	int3
  41581f:	cc                   	int3
  415820:	cc                   	int3
  415821:	cc                   	int3
  415822:	cc                   	int3
  415823:	cc                   	int3
  415824:	cc                   	int3
  415825:	cc                   	int3
  415826:	cc                   	int3
  415827:	cc                   	int3
  415828:	cc                   	int3
  415829:	cc                   	int3
  41582a:	cc                   	int3
  41582b:	cc                   	int3
  41582c:	cc                   	int3
  41582d:	cc                   	int3
  41582e:	cc                   	int3
  41582f:	cc                   	int3
  415830:	55                   	push   %ebp
  415831:	8b ec                	mov    %esp,%ebp
  415833:	83 ec 0c             	sub    $0xc,%esp
  415836:	a1 24 d5 41 00       	mov    0x41d524,%eax
  41583b:	89 45 f4             	mov    %eax,-0xc(%ebp)
  41583e:	83 7d f4 ff          	cmpl   $0xffffffff,-0xc(%ebp)
  415842:	75 26                	jne    0x41586a
  415844:	8b 4d 08             	mov    0x8(%ebp),%ecx
  415847:	51                   	push   %ecx
  415848:	e8 07 b9 ff ff       	call   0x411154
  41584d:	83 c4 04             	add    $0x4,%esp
  415850:	85 c0                	test   %eax,%eax
  415852:	75 08                	jne    0x41585c
  415854:	8b 55 08             	mov    0x8(%ebp),%edx
  415857:	89 55 fc             	mov    %edx,-0x4(%ebp)
  41585a:	eb 07                	jmp    0x415863
  41585c:	c7 45 fc 00 00 00 00 	movl   $0x0,-0x4(%ebp)
  415863:	8b 45 fc             	mov    -0x4(%ebp),%eax
  415866:	eb 29                	jmp    0x415891
  415868:	eb 27                	jmp    0x415891
  41586a:	8b 45 08             	mov    0x8(%ebp),%eax
  41586d:	50                   	push   %eax
  41586e:	68 24 d5 41 00       	push   $0x41d524
  415873:	e8 a1 b7 ff ff       	call   0x411019
  415878:	83 c4 08             	add    $0x8,%esp
  41587b:	85 c0                	test   %eax,%eax
  41587d:	75 08                	jne    0x415887
  41587f:	8b 4d 08             	mov    0x8(%ebp),%ecx
  415882:	89 4d f8             	mov    %ecx,-0x8(%ebp)
  415885:	eb 07                	jmp    0x41588e
  415887:	c7 45 f8 00 00 00 00 	movl   $0x0,-0x8(%ebp)
  41588e:	8b 45 f8             	mov    -0x8(%ebp),%eax
  415891:	8b e5                	mov    %ebp,%esp
  415893:	5d                   	pop    %ebp
  415894:	c3                   	ret
  415895:	cc                   	int3
  415896:	cc                   	int3
  415897:	cc                   	int3
  415898:	cc                   	int3
  415899:	cc                   	int3
  41589a:	cc                   	int3
  41589b:	cc                   	int3
  41589c:	cc                   	int3
  41589d:	cc                   	int3
  41589e:	cc                   	int3
  41589f:	cc                   	int3
  4158a0:	cc                   	int3
  4158a1:	cc                   	int3
  4158a2:	cc                   	int3
  4158a3:	cc                   	int3
  4158a4:	cc                   	int3
  4158a5:	cc                   	int3
  4158a6:	cc                   	int3
  4158a7:	cc                   	int3
  4158a8:	cc                   	int3
  4158a9:	cc                   	int3
  4158aa:	cc                   	int3
  4158ab:	cc                   	int3
  4158ac:	cc                   	int3
  4158ad:	cc                   	int3
  4158ae:	cc                   	int3
  4158af:	cc                   	int3
  4158b0:	55                   	push   %ebp
  4158b1:	8b ec                	mov    %esp,%ebp
  4158b3:	83 ec 08             	sub    $0x8,%esp
  4158b6:	a1 30 d5 41 00       	mov    0x41d530,%eax
  4158bb:	89 45 fc             	mov    %eax,-0x4(%ebp)
  4158be:	83 7d fc ff          	cmpl   $0xffffffff,-0x4(%ebp)
  4158c2:	75 10                	jne    0x4158d4
  4158c4:	8b 4d 08             	mov    0x8(%ebp),%ecx
  4158c7:	51                   	push   %ecx
  4158c8:	e8 b0 b7 ff ff       	call   0x41107d
  4158cd:	83 c4 04             	add    $0x4,%esp
  4158d0:	eb 19                	jmp    0x4158eb
  4158d2:	eb 17                	jmp    0x4158eb
  4158d4:	8b 55 08             	mov    0x8(%ebp),%edx
  4158d7:	89 55 f8             	mov    %edx,-0x8(%ebp)
  4158da:	8b 45 f8             	mov    -0x8(%ebp),%eax
  4158dd:	50                   	push   %eax
  4158de:	68 30 d5 41 00       	push   $0x41d530
  4158e3:	e8 31 b7 ff ff       	call   0x411019
  4158e8:	83 c4 08             	add    $0x8,%esp
  4158eb:	8b e5                	mov    %ebp,%esp
  4158ed:	5d                   	pop    %ebp
  4158ee:	c3                   	ret
  4158ef:	cc                   	int3
  4158f0:	cc                   	int3
  4158f1:	cc                   	int3
  4158f2:	cc                   	int3
  4158f3:	cc                   	int3
  4158f4:	cc                   	int3
  4158f5:	cc                   	int3
  4158f6:	cc                   	int3
  4158f7:	cc                   	int3
  4158f8:	cc                   	int3
  4158f9:	cc                   	int3
  4158fa:	cc                   	int3
  4158fb:	cc                   	int3
  4158fc:	cc                   	int3
  4158fd:	cc                   	int3
  4158fe:	cc                   	int3
  4158ff:	cc                   	int3
  415900:	55                   	push   %ebp
  415901:	8b ec                	mov    %esp,%ebp
  415903:	51                   	push   %ecx
  415904:	8b 45 08             	mov    0x8(%ebp),%eax
  415907:	50                   	push   %eax
  415908:	e8 87 b9 ff ff       	call   0x411294
  41590d:	83 c4 04             	add    $0x4,%esp
  415910:	85 c0                	test   %eax,%eax
  415912:	74 09                	je     0x41591d
  415914:	c7 45 fc 00 00 00 00 	movl   $0x0,-0x4(%ebp)
  41591b:	eb 07                	jmp    0x415924
  41591d:	c7 45 fc ff ff ff ff 	movl   $0xffffffff,-0x4(%ebp)
  415924:	8b 45 fc             	mov    -0x4(%ebp),%eax
  415927:	8b e5                	mov    %ebp,%esp
  415929:	5d                   	pop    %ebp
  41592a:	c3                   	ret
  41592b:	cc                   	int3
  41592c:	cc                   	int3
  41592d:	cc                   	int3
  41592e:	cc                   	int3
  41592f:	cc                   	int3
  415930:	cc                   	int3
  415931:	cc                   	int3
  415932:	cc                   	int3
  415933:	cc                   	int3
  415934:	cc                   	int3
  415935:	cc                   	int3
  415936:	cc                   	int3
  415937:	cc                   	int3
  415938:	cc                   	int3
  415939:	cc                   	int3
  41593a:	cc                   	int3
  41593b:	cc                   	int3
  41593c:	cc                   	int3
  41593d:	cc                   	int3
  41593e:	cc                   	int3
  41593f:	cc                   	int3
  415940:	55                   	push   %ebp
  415941:	8b ec                	mov    %esp,%ebp
  415943:	83 ec 14             	sub    $0x14,%esp
  415946:	33 c0                	xor    %eax,%eax
  415948:	89 45 f4             	mov    %eax,-0xc(%ebp)
  41594b:	89 45 f8             	mov    %eax,-0x8(%ebp)
  41594e:	8d 4d f4             	lea    -0xc(%ebp),%ecx
  415951:	51                   	push   %ecx
  415952:	ff 15 38 e0 41 00    	call   *0x41e038
  415958:	8b 55 f4             	mov    -0xc(%ebp),%edx
  41595b:	89 55 fc             	mov    %edx,-0x4(%ebp)
  41595e:	8b 45 fc             	mov    -0x4(%ebp),%eax
  415961:	33 45 f8             	xor    -0x8(%ebp),%eax
  415964:	89 45 fc             	mov    %eax,-0x4(%ebp)
  415967:	ff 15 68 e0 41 00    	call   *0x41e068
  41596d:	33 45 fc             	xor    -0x4(%ebp),%eax
  415970:	89 45 fc             	mov    %eax,-0x4(%ebp)
  415973:	ff 15 3c e0 41 00    	call   *0x41e03c
  415979:	33 45 fc             	xor    -0x4(%ebp),%eax
  41597c:	89 45 fc             	mov    %eax,-0x4(%ebp)
  41597f:	8d 4d ec             	lea    -0x14(%ebp),%ecx
  415982:	51                   	push   %ecx
  415983:	ff 15 40 e0 41 00    	call   *0x41e040
  415989:	8b 55 fc             	mov    -0x4(%ebp),%edx
  41598c:	33 55 ec             	xor    -0x14(%ebp),%edx
  41598f:	89 55 fc             	mov    %edx,-0x4(%ebp)
  415992:	8b 45 fc             	mov    -0x4(%ebp),%eax
  415995:	33 45 f0             	xor    -0x10(%ebp),%eax
  415998:	89 45 fc             	mov    %eax,-0x4(%ebp)
  41599b:	8b 4d fc             	mov    -0x4(%ebp),%ecx
  41599e:	8d 55 fc             	lea    -0x4(%ebp),%edx
  4159a1:	33 ca                	xor    %edx,%ecx
  4159a3:	89 4d fc             	mov    %ecx,-0x4(%ebp)
  4159a6:	8b 45 fc             	mov    -0x4(%ebp),%eax
  4159a9:	8b e5                	mov    %ebp,%esp
  4159ab:	5d                   	pop    %ebp
  4159ac:	c3                   	ret
  4159ad:	cc                   	int3
  4159ae:	cc                   	int3
  4159af:	cc                   	int3
  4159b0:	cc                   	int3
  4159b1:	cc                   	int3
  4159b2:	cc                   	int3
  4159b3:	cc                   	int3
  4159b4:	cc                   	int3
  4159b5:	cc                   	int3
  4159b6:	cc                   	int3
  4159b7:	cc                   	int3
  4159b8:	cc                   	int3
  4159b9:	cc                   	int3
  4159ba:	cc                   	int3
  4159bb:	cc                   	int3
  4159bc:	cc                   	int3
  4159bd:	cc                   	int3
  4159be:	cc                   	int3
  4159bf:	cc                   	int3
  4159c0:	cc                   	int3
  4159c1:	cc                   	int3
  4159c2:	cc                   	int3
  4159c3:	cc                   	int3
  4159c4:	cc                   	int3
  4159c5:	cc                   	int3
  4159c6:	cc                   	int3
  4159c7:	cc                   	int3
  4159c8:	cc                   	int3
  4159c9:	cc                   	int3
  4159ca:	cc                   	int3
  4159cb:	cc                   	int3
  4159cc:	cc                   	int3
  4159cd:	cc                   	int3
  4159ce:	cc                   	int3
  4159cf:	cc                   	int3
  4159d0:	55                   	push   %ebp
  4159d1:	8b ec                	mov    %esp,%ebp
  4159d3:	51                   	push   %ecx
  4159d4:	81 3d 00 d0 41 00 4e 	cmpl   $0xbb40e64e,0x41d000
  4159db:	e6 40 bb 
  4159de:	74 1c                	je     0x4159fc
  4159e0:	a1 00 d0 41 00       	mov    0x41d000,%eax
  4159e5:	25 00 00 ff ff       	and    $0xffff0000,%eax
  4159ea:	74 10                	je     0x4159fc
  4159ec:	8b 0d 00 d0 41 00    	mov    0x41d000,%ecx
  4159f2:	f7 d1                	not    %ecx
  4159f4:	89 0d 04 d0 41 00    	mov    %ecx,0x41d004
  4159fa:	eb 4a                	jmp    0x415a46
  4159fc:	e8 3f ff ff ff       	call   0x415940
  415a01:	89 45 fc             	mov    %eax,-0x4(%ebp)
  415a04:	81 7d fc 4e e6 40 bb 	cmpl   $0xbb40e64e,-0x4(%ebp)
  415a0b:	75 09                	jne    0x415a16
  415a0d:	c7 45 fc 4f e6 40 bb 	movl   $0xbb40e64f,-0x4(%ebp)
  415a14:	eb 1c                	jmp    0x415a32
  415a16:	8b 55 fc             	mov    -0x4(%ebp),%edx
  415a19:	81 e2 00 00 ff ff    	and    $0xffff0000,%edx
  415a1f:	75 11                	jne    0x415a32
  415a21:	8b 45 fc             	mov    -0x4(%ebp),%eax
  415a24:	0d 11 47 00 00       	or     $0x4711,%eax
  415a29:	c1 e0 10             	shl    $0x10,%eax
  415a2c:	0b 45 fc             	or     -0x4(%ebp),%eax
  415a2f:	89 45 fc             	mov    %eax,-0x4(%ebp)
  415a32:	8b 4d fc             	mov    -0x4(%ebp),%ecx
  415a35:	89 0d 00 d0 41 00    	mov    %ecx,0x41d000
  415a3b:	8b 55 fc             	mov    -0x4(%ebp),%edx
  415a3e:	f7 d2                	not    %edx
  415a40:	89 15 04 d0 41 00    	mov    %edx,0x41d004
  415a46:	8b e5                	mov    %ebp,%esp
  415a48:	5d                   	pop    %ebp
  415a49:	c3                   	ret
  415a4a:	cc                   	int3
  415a4b:	cc                   	int3
  415a4c:	cc                   	int3
  415a4d:	cc                   	int3
  415a4e:	cc                   	int3
  415a4f:	cc                   	int3
  415a50:	cc                   	int3
  415a51:	cc                   	int3
  415a52:	cc                   	int3
  415a53:	cc                   	int3
  415a54:	cc                   	int3
  415a55:	cc                   	int3
  415a56:	cc                   	int3
  415a57:	cc                   	int3
  415a58:	cc                   	int3
  415a59:	cc                   	int3
  415a5a:	cc                   	int3
  415a5b:	cc                   	int3
  415a5c:	cc                   	int3
  415a5d:	cc                   	int3
  415a5e:	cc                   	int3
  415a5f:	cc                   	int3
  415a60:	cc                   	int3
  415a61:	cc                   	int3
  415a62:	cc                   	int3
  415a63:	cc                   	int3
  415a64:	cc                   	int3
  415a65:	cc                   	int3
  415a66:	cc                   	int3
  415a67:	cc                   	int3
  415a68:	cc                   	int3
  415a69:	cc                   	int3
  415a6a:	cc                   	int3
  415a6b:	cc                   	int3
  415a6c:	cc                   	int3
  415a6d:	cc                   	int3
  415a6e:	cc                   	int3
  415a6f:	cc                   	int3
  415a70:	55                   	push   %ebp
  415a71:	8b ec                	mov    %esp,%ebp
  415a73:	33 c0                	xor    %eax,%eax
  415a75:	5d                   	pop    %ebp
  415a76:	c3                   	ret
  415a77:	cc                   	int3
  415a78:	cc                   	int3
  415a79:	cc                   	int3
  415a7a:	cc                   	int3
  415a7b:	cc                   	int3
  415a7c:	cc                   	int3
  415a7d:	cc                   	int3
  415a7e:	cc                   	int3
  415a7f:	cc                   	int3
  415a80:	55                   	push   %ebp
  415a81:	8b ec                	mov    %esp,%ebp
  415a83:	b8 01 00 00 00       	mov    $0x1,%eax
  415a88:	5d                   	pop    %ebp
  415a89:	c3                   	ret
  415a8a:	cc                   	int3
  415a8b:	cc                   	int3
  415a8c:	cc                   	int3
  415a8d:	cc                   	int3
  415a8e:	cc                   	int3
  415a8f:	cc                   	int3
  415a90:	55                   	push   %ebp
  415a91:	8b ec                	mov    %esp,%ebp
  415a93:	33 c0                	xor    %eax,%eax
  415a95:	5d                   	pop    %ebp
  415a96:	c3                   	ret
  415a97:	cc                   	int3
  415a98:	cc                   	int3
  415a99:	cc                   	int3
  415a9a:	cc                   	int3
  415a9b:	cc                   	int3
  415a9c:	cc                   	int3
  415a9d:	cc                   	int3
  415a9e:	cc                   	int3
  415a9f:	cc                   	int3
  415aa0:	55                   	push   %ebp
  415aa1:	8b ec                	mov    %esp,%ebp
  415aa3:	b8 00 40 00 00       	mov    $0x4000,%eax
  415aa8:	5d                   	pop    %ebp
  415aa9:	c3                   	ret
  415aaa:	cc                   	int3
  415aab:	cc                   	int3
  415aac:	cc                   	int3
  415aad:	cc                   	int3
  415aae:	cc                   	int3
  415aaf:	cc                   	int3
  415ab0:	55                   	push   %ebp
  415ab1:	8b ec                	mov    %esp,%ebp
  415ab3:	33 c0                	xor    %eax,%eax
  415ab5:	5d                   	pop    %ebp
  415ab6:	c3                   	ret
  415ab7:	cc                   	int3
  415ab8:	cc                   	int3
  415ab9:	cc                   	int3
  415aba:	cc                   	int3
  415abb:	cc                   	int3
  415abc:	cc                   	int3
  415abd:	cc                   	int3
  415abe:	cc                   	int3
  415abf:	cc                   	int3
  415ac0:	55                   	push   %ebp
  415ac1:	8b ec                	mov    %esp,%ebp
  415ac3:	33 c0                	xor    %eax,%eax
  415ac5:	5d                   	pop    %ebp
  415ac6:	c3                   	ret
  415ac7:	cc                   	int3
  415ac8:	cc                   	int3
  415ac9:	cc                   	int3
  415aca:	cc                   	int3
  415acb:	cc                   	int3
  415acc:	cc                   	int3
  415acd:	cc                   	int3
  415ace:	cc                   	int3
  415acf:	cc                   	int3
  415ad0:	55                   	push   %ebp
  415ad1:	8b ec                	mov    %esp,%ebp
  415ad3:	68 48 d5 41 00       	push   $0x41d548
  415ad8:	ff 15 34 e0 41 00    	call   *0x41e034
  415ade:	5d                   	pop    %ebp
  415adf:	c3                   	ret
  415ae0:	cc                   	int3
  415ae1:	cc                   	int3
  415ae2:	cc                   	int3
  415ae3:	cc                   	int3
  415ae4:	cc                   	int3
  415ae5:	cc                   	int3
  415ae6:	cc                   	int3
  415ae7:	cc                   	int3
  415ae8:	cc                   	int3
  415ae9:	cc                   	int3
  415aea:	cc                   	int3
  415aeb:	cc                   	int3
  415aec:	cc                   	int3
  415aed:	cc                   	int3
  415aee:	cc                   	int3
  415aef:	cc                   	int3
  415af0:	55                   	push   %ebp
  415af1:	8b ec                	mov    %esp,%ebp
  415af3:	68 48 d5 41 00       	push   $0x41d548
  415af8:	e8 91 b8 ff ff       	call   0x41138e
  415afd:	83 c4 04             	add    $0x4,%esp
  415b00:	5d                   	pop    %ebp
  415b01:	c3                   	ret
  415b02:	cc                   	int3
  415b03:	cc                   	int3
  415b04:	cc                   	int3
  415b05:	cc                   	int3
  415b06:	cc                   	int3
  415b07:	cc                   	int3
  415b08:	cc                   	int3
  415b09:	cc                   	int3
  415b0a:	cc                   	int3
  415b0b:	cc                   	int3
  415b0c:	cc                   	int3
  415b0d:	cc                   	int3
  415b0e:	cc                   	int3
  415b0f:	cc                   	int3
  415b10:	55                   	push   %ebp
  415b11:	8b ec                	mov    %esp,%ebp
  415b13:	b0 01                	mov    $0x1,%al
  415b15:	5d                   	pop    %ebp
  415b16:	c3                   	ret
  415b17:	cc                   	int3
  415b18:	cc                   	int3
  415b19:	cc                   	int3
  415b1a:	cc                   	int3
  415b1b:	cc                   	int3
  415b1c:	cc                   	int3
  415b1d:	cc                   	int3
  415b1e:	cc                   	int3
  415b1f:	cc                   	int3
  415b20:	55                   	push   %ebp
  415b21:	8b ec                	mov    %esp,%ebp
  415b23:	68 00 00 03 00       	push   $0x30000
  415b28:	68 00 00 01 00       	push   $0x10000
  415b2d:	6a 00                	push   $0x0
  415b2f:	e8 7d b8 ff ff       	call   0x4113b1
  415b34:	83 c4 0c             	add    $0xc,%esp
  415b37:	85 c0                	test   %eax,%eax
  415b39:	74 07                	je     0x415b42
  415b3b:	6a 07                	push   $0x7
  415b3d:	e8 07 b7 ff ff       	call   0x411249
  415b42:	5d                   	pop    %ebp
  415b43:	c3                   	ret
  415b44:	cc                   	int3
  415b45:	cc                   	int3
  415b46:	cc                   	int3
  415b47:	cc                   	int3
  415b48:	cc                   	int3
  415b49:	cc                   	int3
  415b4a:	cc                   	int3
  415b4b:	cc                   	int3
  415b4c:	cc                   	int3
  415b4d:	cc                   	int3
  415b4e:	cc                   	int3
  415b4f:	cc                   	int3
  415b50:	55                   	push   %ebp
  415b51:	8b ec                	mov    %esp,%ebp
  415b53:	5d                   	pop    %ebp
  415b54:	c3                   	ret
  415b55:	cc                   	int3
  415b56:	cc                   	int3
  415b57:	cc                   	int3
  415b58:	cc                   	int3
  415b59:	cc                   	int3
  415b5a:	cc                   	int3
  415b5b:	cc                   	int3
  415b5c:	cc                   	int3
  415b5d:	cc                   	int3
  415b5e:	cc                   	int3
  415b5f:	cc                   	int3
  415b60:	55                   	push   %ebp
  415b61:	8b ec                	mov    %esp,%ebp
  415b63:	5d                   	pop    %ebp
  415b64:	c3                   	ret
  415b65:	cc                   	int3
  415b66:	cc                   	int3
  415b67:	cc                   	int3
  415b68:	cc                   	int3
  415b69:	cc                   	int3
  415b6a:	cc                   	int3
  415b6b:	cc                   	int3
  415b6c:	cc                   	int3
  415b6d:	cc                   	int3
  415b6e:	cc                   	int3
  415b6f:	cc                   	int3
  415b70:	55                   	push   %ebp
  415b71:	8b ec                	mov    %esp,%ebp
  415b73:	b8 58 d5 41 00       	mov    $0x41d558,%eax
  415b78:	5d                   	pop    %ebp
  415b79:	c3                   	ret
  415b7a:	cc                   	int3
  415b7b:	cc                   	int3
  415b7c:	cc                   	int3
  415b7d:	cc                   	int3
  415b7e:	cc                   	int3
  415b7f:	cc                   	int3
  415b80:	55                   	push   %ebp
  415b81:	8b ec                	mov    %esp,%ebp
  415b83:	83 ec 08             	sub    $0x8,%esp
  415b86:	e8 17 b8 ff ff       	call   0x4113a2
  415b8b:	89 45 fc             	mov    %eax,-0x4(%ebp)
  415b8e:	8b 45 fc             	mov    -0x4(%ebp),%eax
  415b91:	8b 08                	mov    (%eax),%ecx
  415b93:	83 c9 24             	or     $0x24,%ecx
  415b96:	8b 50 04             	mov    0x4(%eax),%edx
  415b99:	8b 45 fc             	mov    -0x4(%ebp),%eax
  415b9c:	89 08                	mov    %ecx,(%eax)
  415b9e:	89 50 04             	mov    %edx,0x4(%eax)
  415ba1:	e8 5b b8 ff ff       	call   0x411401
  415ba6:	89 45 f8             	mov    %eax,-0x8(%ebp)
  415ba9:	8b 4d f8             	mov    -0x8(%ebp),%ecx
  415bac:	8b 11                	mov    (%ecx),%edx
  415bae:	83 ca 02             	or     $0x2,%edx
  415bb1:	8b 41 04             	mov    0x4(%ecx),%eax
  415bb4:	8b 4d f8             	mov    -0x8(%ebp),%ecx
  415bb7:	89 11                	mov    %edx,(%ecx)
  415bb9:	89 41 04             	mov    %eax,0x4(%ecx)
  415bbc:	8b e5                	mov    %ebp,%esp
  415bbe:	5d                   	pop    %ebp
  415bbf:	c3                   	ret
  415bc0:	cc                   	int3
  415bc1:	cc                   	int3
  415bc2:	cc                   	int3
  415bc3:	cc                   	int3
  415bc4:	cc                   	int3
  415bc5:	cc                   	int3
  415bc6:	cc                   	int3
  415bc7:	cc                   	int3
  415bc8:	cc                   	int3
  415bc9:	cc                   	int3
  415bca:	cc                   	int3
  415bcb:	cc                   	int3
  415bcc:	cc                   	int3
  415bcd:	cc                   	int3
  415bce:	cc                   	int3
  415bcf:	cc                   	int3
  415bd0:	55                   	push   %ebp
  415bd1:	8b ec                	mov    %esp,%ebp
  415bd3:	51                   	push   %ecx
  415bd4:	83 3d 28 d0 41 00 00 	cmpl   $0x0,0x41d028
  415bdb:	75 09                	jne    0x415be6
  415bdd:	c7 45 fc 01 00 00 00 	movl   $0x1,-0x4(%ebp)
  415be4:	eb 07                	jmp    0x415bed
  415be6:	c7 45 fc 00 00 00 00 	movl   $0x0,-0x4(%ebp)
  415bed:	8b 45 fc             	mov    -0x4(%ebp),%eax
  415bf0:	8b e5                	mov    %ebp,%esp
  415bf2:	5d                   	pop    %ebp
  415bf3:	c3                   	ret
  415bf4:	cc                   	int3
  415bf5:	cc                   	int3
  415bf6:	cc                   	int3
  415bf7:	cc                   	int3
  415bf8:	cc                   	int3
  415bf9:	cc                   	int3
  415bfa:	cc                   	int3
  415bfb:	cc                   	int3
  415bfc:	cc                   	int3
  415bfd:	cc                   	int3
  415bfe:	cc                   	int3
  415bff:	cc                   	int3
  415c00:	55                   	push   %ebp
  415c01:	8b ec                	mov    %esp,%ebp
  415c03:	b8 88 d5 41 00       	mov    $0x41d588,%eax
  415c08:	5d                   	pop    %ebp
  415c09:	c3                   	ret
  415c0a:	cc                   	int3
  415c0b:	cc                   	int3
  415c0c:	cc                   	int3
  415c0d:	cc                   	int3
  415c0e:	cc                   	int3
  415c0f:	cc                   	int3
  415c10:	55                   	push   %ebp
  415c11:	8b ec                	mov    %esp,%ebp
  415c13:	b8 7c d5 41 00       	mov    $0x41d57c,%eax
  415c18:	5d                   	pop    %ebp
  415c19:	c3                   	ret
  415c1a:	cc                   	int3
  415c1b:	cc                   	int3
  415c1c:	cc                   	int3
  415c1d:	cc                   	int3
  415c1e:	cc                   	int3
  415c1f:	cc                   	int3
  415c20:	55                   	push   %ebp
  415c21:	8b ec                	mov    %esp,%ebp
  415c23:	81 ec 2c 03 00 00    	sub    $0x32c,%esp
  415c29:	6a 17                	push   $0x17
  415c2b:	ff 15 44 e0 41 00    	call   *0x41e044
  415c31:	85 c0                	test   %eax,%eax
  415c33:	74 05                	je     0x415c3a
  415c35:	8b 4d 08             	mov    0x8(%ebp),%ecx
  415c38:	cd 29                	int    $0x29
  415c3a:	6a 03                	push   $0x3
  415c3c:	e8 02 b7 ff ff       	call   0x411343
  415c41:	83 c4 04             	add    $0x4,%esp
  415c44:	68 cc 02 00 00       	push   $0x2cc
  415c49:	6a 00                	push   $0x0
  415c4b:	8d 85 d4 fc ff ff    	lea    -0x32c(%ebp),%eax
  415c51:	50                   	push   %eax
  415c52:	e8 52 b5 ff ff       	call   0x4111a9
  415c57:	83 c4 0c             	add    $0xc,%esp
  415c5a:	89 85 84 fd ff ff    	mov    %eax,-0x27c(%ebp)
  415c60:	89 8d 80 fd ff ff    	mov    %ecx,-0x280(%ebp)
  415c66:	89 95 7c fd ff ff    	mov    %edx,-0x284(%ebp)
  415c6c:	89 9d 78 fd ff ff    	mov    %ebx,-0x288(%ebp)
  415c72:	89 b5 74 fd ff ff    	mov    %esi,-0x28c(%ebp)
  415c78:	89 bd 70 fd ff ff    	mov    %edi,-0x290(%ebp)
  415c7e:	66 8c 95 9c fd ff ff 	data16 mov %ss,-0x264(%ebp)
  415c85:	66 8c 8d 90 fd ff ff 	data16 mov %cs,-0x270(%ebp)
  415c8c:	66 8c 9d 6c fd ff ff 	data16 mov %ds,-0x294(%ebp)
  415c93:	66 8c 85 68 fd ff ff 	data16 mov %es,-0x298(%ebp)
  415c9a:	66 8c a5 64 fd ff ff 	data16 mov %fs,-0x29c(%ebp)
  415ca1:	66 8c ad 60 fd ff ff 	data16 mov %gs,-0x2a0(%ebp)
  415ca8:	9c                   	pushf
  415ca9:	8f 85 94 fd ff ff    	pop    -0x26c(%ebp)
  415caf:	c7 85 d4 fc ff ff 01 	movl   $0x10001,-0x32c(%ebp)
  415cb6:	00 01 00 
  415cb9:	8b 4d 04             	mov    0x4(%ebp),%ecx
  415cbc:	89 8d 8c fd ff ff    	mov    %ecx,-0x274(%ebp)
  415cc2:	8d 55 04             	lea    0x4(%ebp),%edx
  415cc5:	89 95 98 fd ff ff    	mov    %edx,-0x268(%ebp)
  415ccb:	8d 45 04             	lea    0x4(%ebp),%eax
  415cce:	8b 48 fc             	mov    -0x4(%eax),%ecx
  415cd1:	89 8d 88 fd ff ff    	mov    %ecx,-0x278(%ebp)
  415cd7:	6a 50                	push   $0x50
  415cd9:	6a 00                	push   $0x0
  415cdb:	8d 55 a0             	lea    -0x60(%ebp),%edx
  415cde:	52                   	push   %edx
  415cdf:	e8 c5 b4 ff ff       	call   0x4111a9
  415ce4:	83 c4 0c             	add    $0xc,%esp
  415ce7:	c7 45 a0 15 00 00 40 	movl   $0x40000015,-0x60(%ebp)
  415cee:	c7 45 a4 01 00 00 00 	movl   $0x1,-0x5c(%ebp)
  415cf5:	8b 45 04             	mov    0x4(%ebp),%eax
  415cf8:	89 45 ac             	mov    %eax,-0x54(%ebp)
  415cfb:	ff 15 64 e0 41 00    	call   *0x41e064
  415d01:	83 f8 01             	cmp    $0x1,%eax
  415d04:	75 06                	jne    0x415d0c
  415d06:	c6 45 ff 01          	movb   $0x1,-0x1(%ebp)
  415d0a:	eb 04                	jmp    0x415d10
  415d0c:	c6 45 ff 00          	movb   $0x0,-0x1(%ebp)
  415d10:	8a 4d ff             	mov    -0x1(%ebp),%cl
  415d13:	88 4d fe             	mov    %cl,-0x2(%ebp)
  415d16:	8d 55 a0             	lea    -0x60(%ebp),%edx
  415d19:	89 55 f0             	mov    %edx,-0x10(%ebp)
  415d1c:	8d 85 d4 fc ff ff    	lea    -0x32c(%ebp),%eax
  415d22:	89 45 f4             	mov    %eax,-0xc(%ebp)
  415d25:	6a 00                	push   $0x0
  415d27:	ff 15 50 e0 41 00    	call   *0x41e050
  415d2d:	8d 4d f0             	lea    -0x10(%ebp),%ecx
  415d30:	51                   	push   %ecx
  415d31:	ff 15 54 e0 41 00    	call   *0x41e054
  415d37:	89 45 f8             	mov    %eax,-0x8(%ebp)
  415d3a:	83 7d f8 00          	cmpl   $0x0,-0x8(%ebp)
  415d3e:	75 12                	jne    0x415d52
  415d40:	0f b6 55 fe          	movzbl -0x2(%ebp),%edx
  415d44:	85 d2                	test   %edx,%edx
  415d46:	75 0a                	jne    0x415d52
  415d48:	6a 03                	push   $0x3
  415d4a:	e8 f4 b5 ff ff       	call   0x411343
  415d4f:	83 c4 04             	add    $0x4,%esp
  415d52:	8b e5                	mov    %ebp,%esp
  415d54:	5d                   	pop    %ebp
  415d55:	c3                   	ret
  415d56:	cc                   	int3
  415d57:	cc                   	int3
  415d58:	cc                   	int3
  415d59:	cc                   	int3
  415d5a:	cc                   	int3
  415d5b:	cc                   	int3
  415d5c:	cc                   	int3
  415d5d:	cc                   	int3
  415d5e:	cc                   	int3
  415d5f:	cc                   	int3
  415d60:	cc                   	int3
  415d61:	cc                   	int3
  415d62:	cc                   	int3
  415d63:	cc                   	int3
  415d64:	cc                   	int3
  415d65:	cc                   	int3
  415d66:	cc                   	int3
  415d67:	cc                   	int3
  415d68:	cc                   	int3
  415d69:	cc                   	int3
  415d6a:	cc                   	int3
  415d6b:	cc                   	int3
  415d6c:	cc                   	int3
  415d6d:	cc                   	int3
  415d6e:	cc                   	int3
  415d6f:	cc                   	int3
  415d70:	cc                   	int3
  415d71:	cc                   	int3
  415d72:	cc                   	int3
  415d73:	cc                   	int3
  415d74:	cc                   	int3
  415d75:	cc                   	int3
  415d76:	cc                   	int3
  415d77:	cc                   	int3
  415d78:	cc                   	int3
  415d79:	cc                   	int3
  415d7a:	cc                   	int3
  415d7b:	cc                   	int3
  415d7c:	cc                   	int3
  415d7d:	cc                   	int3
  415d7e:	cc                   	int3
  415d7f:	cc                   	int3
  415d80:	cc                   	int3
  415d81:	cc                   	int3
  415d82:	cc                   	int3
  415d83:	cc                   	int3
  415d84:	cc                   	int3
  415d85:	cc                   	int3
  415d86:	cc                   	int3
  415d87:	cc                   	int3
  415d88:	cc                   	int3
  415d89:	cc                   	int3
  415d8a:	cc                   	int3
  415d8b:	cc                   	int3
  415d8c:	cc                   	int3
  415d8d:	cc                   	int3
  415d8e:	cc                   	int3
  415d8f:	cc                   	int3
  415d90:	cc                   	int3
  415d91:	cc                   	int3
  415d92:	cc                   	int3
  415d93:	cc                   	int3
  415d94:	cc                   	int3
  415d95:	cc                   	int3
  415d96:	cc                   	int3
  415d97:	cc                   	int3
  415d98:	cc                   	int3
  415d99:	cc                   	int3
  415d9a:	cc                   	int3
  415d9b:	cc                   	int3
  415d9c:	cc                   	int3
  415d9d:	cc                   	int3
  415d9e:	cc                   	int3
  415d9f:	cc                   	int3
  415da0:	cc                   	int3
  415da1:	cc                   	int3
  415da2:	cc                   	int3
  415da3:	cc                   	int3
  415da4:	cc                   	int3
  415da5:	cc                   	int3
  415da6:	cc                   	int3
  415da7:	cc                   	int3
  415da8:	cc                   	int3
  415da9:	cc                   	int3
  415daa:	cc                   	int3
  415dab:	cc                   	int3
  415dac:	cc                   	int3
  415dad:	cc                   	int3
  415dae:	cc                   	int3
  415daf:	cc                   	int3
  415db0:	55                   	push   %ebp
  415db1:	8b ec                	mov    %esp,%ebp
  415db3:	83 ec 48             	sub    $0x48,%esp
  415db6:	6a 44                	push   $0x44
  415db8:	6a 00                	push   $0x0
  415dba:	8d 45 b8             	lea    -0x48(%ebp),%eax
  415dbd:	50                   	push   %eax
  415dbe:	e8 e6 b3 ff ff       	call   0x4111a9
  415dc3:	83 c4 0c             	add    $0xc,%esp
  415dc6:	8d 4d b8             	lea    -0x48(%ebp),%ecx
  415dc9:	51                   	push   %ecx
  415dca:	ff 15 30 e0 41 00    	call   *0x41e030
  415dd0:	8b 55 e4             	mov    -0x1c(%ebp),%edx
  415dd3:	83 e2 01             	and    $0x1,%edx
  415dd6:	74 09                	je     0x415de1
  415dd8:	0f b7 45 e8          	movzwl -0x18(%ebp),%eax
  415ddc:	89 45 fc             	mov    %eax,-0x4(%ebp)
  415ddf:	eb 07                	jmp    0x415de8
  415de1:	c7 45 fc 0a 00 00 00 	movl   $0xa,-0x4(%ebp)
  415de8:	66 8b 45 fc          	mov    -0x4(%ebp),%ax
  415dec:	8b e5                	mov    %ebp,%esp
  415dee:	5d                   	pop    %ebp
  415def:	c3                   	ret
  415df0:	cc                   	int3
  415df1:	cc                   	int3
  415df2:	cc                   	int3
  415df3:	cc                   	int3
  415df4:	cc                   	int3
  415df5:	cc                   	int3
  415df6:	cc                   	int3
  415df7:	cc                   	int3
  415df8:	cc                   	int3
  415df9:	cc                   	int3
  415dfa:	cc                   	int3
  415dfb:	cc                   	int3
  415dfc:	cc                   	int3
  415dfd:	cc                   	int3
  415dfe:	cc                   	int3
  415dff:	cc                   	int3
  415e00:	55                   	push   %ebp
  415e01:	8b ec                	mov    %esp,%ebp
  415e03:	e8 66 b2 ff ff       	call   0x41106e
  415e08:	5d                   	pop    %ebp
  415e09:	c3                   	ret
  415e0a:	cc                   	int3
  415e0b:	cc                   	int3
  415e0c:	cc                   	int3
  415e0d:	cc                   	int3
  415e0e:	cc                   	int3
  415e0f:	cc                   	int3
  415e10:	55                   	push   %ebp
  415e11:	8b ec                	mov    %esp,%ebp
  415e13:	33 c0                	xor    %eax,%eax
  415e15:	5d                   	pop    %ebp
  415e16:	c3                   	ret
  415e17:	cc                   	int3
  415e18:	cc                   	int3
  415e19:	cc                   	int3
  415e1a:	cc                   	int3
  415e1b:	cc                   	int3
  415e1c:	cc                   	int3
  415e1d:	cc                   	int3
  415e1e:	cc                   	int3
  415e1f:	cc                   	int3
  415e20:	55                   	push   %ebp
  415e21:	8b ec                	mov    %esp,%ebp
  415e23:	83 ec 08             	sub    $0x8,%esp
  415e26:	6a 00                	push   $0x0
  415e28:	ff 15 2c e0 41 00    	call   *0x41e02c
  415e2e:	89 45 fc             	mov    %eax,-0x4(%ebp)
  415e31:	83 7d fc 00          	cmpl   $0x0,-0x4(%ebp)
  415e35:	75 04                	jne    0x415e3b
  415e37:	32 c0                	xor    %al,%al
  415e39:	eb 64                	jmp    0x415e9f
  415e3b:	8b 45 fc             	mov    -0x4(%ebp),%eax
  415e3e:	0f b7 08             	movzwl (%eax),%ecx
  415e41:	81 f9 4d 5a 00 00    	cmp    $0x5a4d,%ecx
  415e47:	74 04                	je     0x415e4d
  415e49:	32 c0                	xor    %al,%al
  415e4b:	eb 52                	jmp    0x415e9f
  415e4d:	8b 55 fc             	mov    -0x4(%ebp),%edx
  415e50:	8b 45 fc             	mov    -0x4(%ebp),%eax
  415e53:	03 42 3c             	add    0x3c(%edx),%eax
  415e56:	89 45 f8             	mov    %eax,-0x8(%ebp)
  415e59:	8b 4d f8             	mov    -0x8(%ebp),%ecx
  415e5c:	81 39 50 45 00 00    	cmpl   $0x4550,(%ecx)
  415e62:	74 04                	je     0x415e68
  415e64:	32 c0                	xor    %al,%al
  415e66:	eb 37                	jmp    0x415e9f
  415e68:	8b 55 f8             	mov    -0x8(%ebp),%edx
  415e6b:	0f b7 42 18          	movzwl 0x18(%edx),%eax
  415e6f:	3d 0b 01 00 00       	cmp    $0x10b,%eax
  415e74:	74 04                	je     0x415e7a
  415e76:	32 c0                	xor    %al,%al
  415e78:	eb 25                	jmp    0x415e9f
  415e7a:	8b 4d f8             	mov    -0x8(%ebp),%ecx
  415e7d:	83 79 74 0e          	cmpl   $0xe,0x74(%ecx)
  415e81:	77 04                	ja     0x415e87
  415e83:	32 c0                	xor    %al,%al
  415e85:	eb 18                	jmp    0x415e9f
  415e87:	ba 08 00 00 00       	mov    $0x8,%edx
  415e8c:	6b c2 0e             	imul   $0xe,%edx,%eax
  415e8f:	8b 4d f8             	mov    -0x8(%ebp),%ecx
  415e92:	83 7c 01 78 00       	cmpl   $0x0,0x78(%ecx,%eax,1)
  415e97:	75 04                	jne    0x415e9d
  415e99:	32 c0                	xor    %al,%al
  415e9b:	eb 02                	jmp    0x415e9f
  415e9d:	b0 01                	mov    $0x1,%al
  415e9f:	8b e5                	mov    %ebp,%esp
  415ea1:	5d                   	pop    %ebp
  415ea2:	c3                   	ret
  415ea3:	cc                   	int3
  415ea4:	cc                   	int3
  415ea5:	cc                   	int3
  415ea6:	cc                   	int3
  415ea7:	cc                   	int3
  415ea8:	cc                   	int3
  415ea9:	cc                   	int3
  415eaa:	cc                   	int3
  415eab:	cc                   	int3
  415eac:	cc                   	int3
  415ead:	cc                   	int3
  415eae:	cc                   	int3
  415eaf:	cc                   	int3
  415eb0:	cc                   	int3
  415eb1:	cc                   	int3
  415eb2:	cc                   	int3
  415eb3:	cc                   	int3
  415eb4:	cc                   	int3
  415eb5:	cc                   	int3
  415eb6:	cc                   	int3
  415eb7:	cc                   	int3
  415eb8:	cc                   	int3
  415eb9:	cc                   	int3
  415eba:	cc                   	int3
  415ebb:	cc                   	int3
  415ebc:	cc                   	int3
  415ebd:	cc                   	int3
  415ebe:	cc                   	int3
  415ebf:	cc                   	int3
  415ec0:	cc                   	int3
  415ec1:	cc                   	int3
  415ec2:	cc                   	int3
  415ec3:	cc                   	int3
  415ec4:	cc                   	int3
  415ec5:	cc                   	int3
  415ec6:	cc                   	int3
  415ec7:	cc                   	int3
  415ec8:	cc                   	int3
  415ec9:	cc                   	int3
  415eca:	cc                   	int3
  415ecb:	cc                   	int3
  415ecc:	cc                   	int3
  415ecd:	cc                   	int3
  415ece:	cc                   	int3
  415ecf:	cc                   	int3
  415ed0:	55                   	push   %ebp
  415ed1:	8b ec                	mov    %esp,%ebp
  415ed3:	68 bb 13 41 00       	push   $0x4113bb
  415ed8:	ff 15 50 e0 41 00    	call   *0x41e050
  415ede:	5d                   	pop    %ebp
  415edf:	c3                   	ret
  415ee0:	cc                   	int3
  415ee1:	cc                   	int3
  415ee2:	cc                   	int3
  415ee3:	cc                   	int3
  415ee4:	cc                   	int3
  415ee5:	cc                   	int3
  415ee6:	cc                   	int3
  415ee7:	cc                   	int3
  415ee8:	cc                   	int3
  415ee9:	cc                   	int3
  415eea:	cc                   	int3
  415eeb:	cc                   	int3
  415eec:	cc                   	int3
  415eed:	cc                   	int3
  415eee:	cc                   	int3
  415eef:	cc                   	int3
  415ef0:	55                   	push   %ebp
  415ef1:	8b ec                	mov    %esp,%ebp
  415ef3:	33 c0                	xor    %eax,%eax
  415ef5:	5d                   	pop    %ebp
  415ef6:	c3                   	ret
  415ef7:	cc                   	int3
  415ef8:	cc                   	int3
  415ef9:	cc                   	int3
  415efa:	cc                   	int3
  415efb:	cc                   	int3
  415efc:	cc                   	int3
  415efd:	cc                   	int3
  415efe:	cc                   	int3
  415eff:	cc                   	int3
  415f00:	55                   	push   %ebp
  415f01:	8b ec                	mov    %esp,%ebp
  415f03:	83 ec 08             	sub    $0x8,%esp
  415f06:	8b 45 08             	mov    0x8(%ebp),%eax
  415f09:	8b 08                	mov    (%eax),%ecx
  415f0b:	89 4d fc             	mov    %ecx,-0x4(%ebp)
  415f0e:	8b 55 fc             	mov    -0x4(%ebp),%edx
  415f11:	81 3a 63 73 6d e0    	cmpl   $0xe06d7363,(%edx)
  415f17:	75 5b                	jne    0x415f74
  415f19:	8b 45 fc             	mov    -0x4(%ebp),%eax
  415f1c:	83 78 10 03          	cmpl   $0x3,0x10(%eax)
  415f20:	75 52                	jne    0x415f74
  415f22:	8b 4d fc             	mov    -0x4(%ebp),%ecx
  415f25:	81 79 14 20 05 93 19 	cmpl   $0x19930520,0x14(%ecx)
  415f2c:	74 24                	je     0x415f52
  415f2e:	8b 55 fc             	mov    -0x4(%ebp),%edx
  415f31:	81 7a 14 21 05 93 19 	cmpl   $0x19930521,0x14(%edx)
  415f38:	74 18                	je     0x415f52
  415f3a:	8b 45 fc             	mov    -0x4(%ebp),%eax
  415f3d:	81 78 14 22 05 93 19 	cmpl   $0x19930522,0x14(%eax)
  415f44:	74 0c                	je     0x415f52
  415f46:	8b 4d fc             	mov    -0x4(%ebp),%ecx
  415f49:	81 79 14 00 40 99 01 	cmpl   $0x1994000,0x14(%ecx)
  415f50:	75 22                	jne    0x415f74
  415f52:	e8 9e b1 ff ff       	call   0x4110f5
  415f57:	8b 55 fc             	mov    -0x4(%ebp),%edx
  415f5a:	89 10                	mov    %edx,(%eax)
  415f5c:	8b 45 08             	mov    0x8(%ebp),%eax
  415f5f:	8b 48 04             	mov    0x4(%eax),%ecx
  415f62:	89 4d f8             	mov    %ecx,-0x8(%ebp)
  415f65:	e8 ab b4 ff ff       	call   0x411415
  415f6a:	8b 55 f8             	mov    -0x8(%ebp),%edx
  415f6d:	89 10                	mov    %edx,(%eax)
  415f6f:	e8 91 b0 ff ff       	call   0x411005
  415f74:	33 c0                	xor    %eax,%eax
  415f76:	8b e5                	mov    %ebp,%esp
  415f78:	5d                   	pop    %ebp
  415f79:	c2 04 00             	ret    $0x4
  415f7c:	cc                   	int3
  415f7d:	cc                   	int3
  415f7e:	cc                   	int3
  415f7f:	cc                   	int3
  415f80:	cc                   	int3
  415f81:	cc                   	int3
  415f82:	cc                   	int3
  415f83:	cc                   	int3
  415f84:	cc                   	int3
  415f85:	cc                   	int3
  415f86:	cc                   	int3
  415f87:	cc                   	int3
  415f88:	cc                   	int3
  415f89:	cc                   	int3
  415f8a:	cc                   	int3
  415f8b:	cc                   	int3
  415f8c:	cc                   	int3
  415f8d:	cc                   	int3
  415f8e:	cc                   	int3
  415f8f:	cc                   	int3
  415f90:	cc                   	int3
  415f91:	cc                   	int3
  415f92:	cc                   	int3
  415f93:	cc                   	int3
  415f94:	cc                   	int3
  415f95:	cc                   	int3
  415f96:	cc                   	int3
  415f97:	cc                   	int3
  415f98:	cc                   	int3
  415f99:	cc                   	int3
  415f9a:	cc                   	int3
  415f9b:	cc                   	int3
  415f9c:	cc                   	int3
  415f9d:	cc                   	int3
  415f9e:	cc                   	int3
  415f9f:	cc                   	int3
  415fa0:	55                   	push   %ebp
  415fa1:	8b ec                	mov    %esp,%ebp
  415fa3:	c7 05 64 d5 41 00 00 	movl   $0x0,0x41d564
  415faa:	00 00 00 
  415fad:	5d                   	pop    %ebp
  415fae:	c3                   	ret
  415faf:	cc                   	int3
  415fb0:	cc                   	int3
  415fb1:	cc                   	int3
  415fb2:	cc                   	int3
  415fb3:	cc                   	int3
  415fb4:	cc                   	int3
  415fb5:	cc                   	int3
  415fb6:	cc                   	int3
  415fb7:	cc                   	int3
  415fb8:	cc                   	int3
  415fb9:	cc                   	int3
  415fba:	cc                   	int3
  415fbb:	cc                   	int3
  415fbc:	cc                   	int3
  415fbd:	cc                   	int3
  415fbe:	cc                   	int3
  415fbf:	cc                   	int3
  415fc0:	56                   	push   %esi
  415fc1:	be 0c be 41 00       	mov    $0x41be0c,%esi
  415fc6:	8b c6                	mov    %esi,%eax
  415fc8:	3d 10 c0 41 00       	cmp    $0x41c010,%eax
  415fcd:	73 1d                	jae    0x415fec
  415fcf:	57                   	push   %edi
  415fd0:	8b 3e                	mov    (%esi),%edi
  415fd2:	85 ff                	test   %edi,%edi
  415fd4:	74 0a                	je     0x415fe0
  415fd6:	8b cf                	mov    %edi,%ecx
  415fd8:	ff 15 00 10 42 00    	call   *0x421000
  415fde:	ff d7                	call   *%edi
  415fe0:	83 c6 04             	add    $0x4,%esi
  415fe3:	81 fe 10 c0 41 00    	cmp    $0x41c010,%esi
  415fe9:	72 e5                	jb     0x415fd0
  415feb:	5f                   	pop    %edi
  415fec:	5e                   	pop    %esi
  415fed:	c3                   	ret
  415fee:	cc                   	int3
  415fef:	cc                   	int3
  415ff0:	cc                   	int3
  415ff1:	cc                   	int3
  415ff2:	cc                   	int3
  415ff3:	cc                   	int3
  415ff4:	cc                   	int3
  415ff5:	cc                   	int3
  415ff6:	cc                   	int3
  415ff7:	cc                   	int3
  415ff8:	cc                   	int3
  415ff9:	cc                   	int3
  415ffa:	cc                   	int3
  415ffb:	cc                   	int3
  415ffc:	cc                   	int3
  415ffd:	cc                   	int3
  415ffe:	cc                   	int3
  415fff:	cc                   	int3
  416000:	56                   	push   %esi
  416001:	be 18 c1 41 00       	mov    $0x41c118,%esi
  416006:	8b c6                	mov    %esi,%eax
  416008:	3d 1c c3 41 00       	cmp    $0x41c31c,%eax
  41600d:	73 1d                	jae    0x41602c
  41600f:	57                   	push   %edi
  416010:	8b 3e                	mov    (%esi),%edi
  416012:	85 ff                	test   %edi,%edi
  416014:	74 0a                	je     0x416020
  416016:	8b cf                	mov    %edi,%ecx
  416018:	ff 15 00 10 42 00    	call   *0x421000
  41601e:	ff d7                	call   *%edi
  416020:	83 c6 04             	add    $0x4,%esi
  416023:	81 fe 1c c3 41 00    	cmp    $0x41c31c,%esi
  416029:	72 e5                	jb     0x416010
  41602b:	5f                   	pop    %edi
  41602c:	5e                   	pop    %esi
  41602d:	c3                   	ret
  41602e:	cc                   	int3
  41602f:	cc                   	int3
  416030:	cc                   	int3
  416031:	cc                   	int3
  416032:	cc                   	int3
  416033:	cc                   	int3
  416034:	cc                   	int3
  416035:	cc                   	int3
  416036:	cc                   	int3
  416037:	cc                   	int3
  416038:	cc                   	int3
  416039:	cc                   	int3
  41603a:	cc                   	int3
  41603b:	cc                   	int3
  41603c:	cc                   	int3
  41603d:	cc                   	int3
  41603e:	cc                   	int3
  41603f:	cc                   	int3
  416040:	55                   	push   %ebp
  416041:	8b ec                	mov    %esp,%ebp
  416043:	8b 45 08             	mov    0x8(%ebp),%eax
  416046:	8b 08                	mov    (%eax),%ecx
  416048:	51                   	push   %ecx
  416049:	e8 03 b4 ff ff       	call   0x411451
  41604e:	83 c4 04             	add    $0x4,%esp
  416051:	8b 55 08             	mov    0x8(%ebp),%edx
  416054:	89 02                	mov    %eax,(%edx)
  416056:	8b 45 14             	mov    0x14(%ebp),%eax
  416059:	50                   	push   %eax
  41605a:	8b 4d 10             	mov    0x10(%ebp),%ecx
  41605d:	51                   	push   %ecx
  41605e:	8b 55 0c             	mov    0xc(%ebp),%edx
  416061:	52                   	push   %edx
  416062:	8b 45 08             	mov    0x8(%ebp),%eax
  416065:	50                   	push   %eax
  416066:	68 a4 11 41 00       	push   $0x4111a4
  41606b:	68 00 d0 41 00       	push   $0x41d000
  416070:	e8 f2 b1 ff ff       	call   0x411267
  416075:	83 c4 18             	add    $0x18,%esp
  416078:	5d                   	pop    %ebp
  416079:	c3                   	ret
  41607a:	cc                   	int3
  41607b:	cc                   	int3
  41607c:	cc                   	int3
  41607d:	cc                   	int3
  41607e:	cc                   	int3
  41607f:	cc                   	int3
  416080:	cc                   	int3
  416081:	cc                   	int3
  416082:	cc                   	int3
  416083:	cc                   	int3
  416084:	cc                   	int3
  416085:	cc                   	int3
  416086:	cc                   	int3
  416087:	cc                   	int3
  416088:	cc                   	int3
  416089:	cc                   	int3
  41608a:	cc                   	int3
  41608b:	cc                   	int3
  41608c:	cc                   	int3
  41608d:	cc                   	int3
  41608e:	cc                   	int3
  41608f:	cc                   	int3
  416090:	55                   	push   %ebp
  416091:	8b ec                	mov    %esp,%ebp
  416093:	51                   	push   %ecx
  416094:	89 4d fc             	mov    %ecx,-0x4(%ebp)
  416097:	8b e5                	mov    %ebp,%esp
  416099:	5d                   	pop    %ebp
  41609a:	c3                   	ret
  41609b:	cc                   	int3
  41609c:	cc                   	int3
  41609d:	cc                   	int3
  41609e:	cc                   	int3
  41609f:	cc                   	int3
  4160a0:	55                   	push   %ebp
  4160a1:	8b ec                	mov    %esp,%ebp
  4160a3:	51                   	push   %ecx
  4160a4:	8b 45 08             	mov    0x8(%ebp),%eax
  4160a7:	8b 08                	mov    (%eax),%ecx
  4160a9:	89 4d fc             	mov    %ecx,-0x4(%ebp)
  4160ac:	8b 45 fc             	mov    -0x4(%ebp),%eax
  4160af:	8b e5                	mov    %ebp,%esp
  4160b1:	5d                   	pop    %ebp
  4160b2:	c3                   	ret
  4160b3:	cc                   	int3
  4160b4:	cc                   	int3
  4160b5:	cc                   	int3
  4160b6:	cc                   	int3
  4160b7:	cc                   	int3
  4160b8:	cc                   	int3
  4160b9:	cc                   	int3
  4160ba:	cc                   	int3
  4160bb:	cc                   	int3
  4160bc:	cc                   	int3
  4160bd:	cc                   	int3
  4160be:	cc                   	int3
  4160bf:	cc                   	int3
  4160c0:	55                   	push   %ebp
  4160c1:	8b ec                	mov    %esp,%ebp
  4160c3:	8b 45 08             	mov    0x8(%ebp),%eax
  4160c6:	50                   	push   %eax
  4160c7:	e8 f4 b2 ff ff       	call   0x4113c0
  4160cc:	83 c4 04             	add    $0x4,%esp
  4160cf:	5d                   	pop    %ebp
  4160d0:	c3                   	ret
  4160d1:	cc                   	int3
  4160d2:	cc                   	int3
  4160d3:	cc                   	int3
  4160d4:	cc                   	int3
  4160d5:	cc                   	int3
  4160d6:	cc                   	int3
  4160d7:	cc                   	int3
  4160d8:	cc                   	int3
  4160d9:	cc                   	int3
  4160da:	cc                   	int3
  4160db:	cc                   	int3
  4160dc:	cc                   	int3
  4160dd:	cc                   	int3
  4160de:	cc                   	int3
  4160df:	cc                   	int3
  4160e0:	55                   	push   %ebp
  4160e1:	8b ec                	mov    %esp,%ebp
  4160e3:	8b 45 08             	mov    0x8(%ebp),%eax
  4160e6:	50                   	push   %eax
  4160e7:	e8 b4 00 00 00       	call   0x4161a0
  4160ec:	83 c4 04             	add    $0x4,%esp
  4160ef:	85 c0                	test   %eax,%eax
  4160f1:	74 01                	je     0x4160f4
  4160f3:	cc                   	int3
  4160f4:	5d                   	pop    %ebp
  4160f5:	c3                   	ret
  4160f6:	cc                   	int3
  4160f7:	cc                   	int3
  4160f8:	cc                   	int3
  4160f9:	cc                   	int3
  4160fa:	cc                   	int3
  4160fb:	cc                   	int3
  4160fc:	cc                   	int3
  4160fd:	cc                   	int3
  4160fe:	cc                   	int3
  4160ff:	cc                   	int3
  416100:	55                   	push   %ebp
  416101:	8b ec                	mov    %esp,%ebp
  416103:	8b 45 08             	mov    0x8(%ebp),%eax
  416106:	50                   	push   %eax
  416107:	e8 94 00 00 00       	call   0x4161a0
  41610c:	83 c4 04             	add    $0x4,%esp
  41610f:	85 c0                	test   %eax,%eax
  416111:	74 07                	je     0x41611a
  416113:	b9 41 00 00 00       	mov    $0x41,%ecx
  416118:	cd 29                	int    $0x29
  41611a:	5d                   	pop    %ebp
  41611b:	c3                   	ret
  41611c:	cc                   	int3
  41611d:	cc                   	int3
  41611e:	cc                   	int3
  41611f:	cc                   	int3
  416120:	cc                   	int3
  416121:	cc                   	int3
  416122:	cc                   	int3
  416123:	cc                   	int3
  416124:	cc                   	int3
  416125:	cc                   	int3
  416126:	cc                   	int3
  416127:	cc                   	int3
  416128:	cc                   	int3
  416129:	cc                   	int3
  41612a:	cc                   	int3
  41612b:	cc                   	int3
  41612c:	cc                   	int3
  41612d:	cc                   	int3
  41612e:	cc                   	int3
  41612f:	cc                   	int3
  416130:	55                   	push   %ebp
  416131:	8b ec                	mov    %esp,%ebp
  416133:	5d                   	pop    %ebp
  416134:	c3                   	ret
  416135:	cc                   	int3
  416136:	cc                   	int3
  416137:	cc                   	int3
  416138:	cc                   	int3
  416139:	cc                   	int3
  41613a:	cc                   	int3
  41613b:	cc                   	int3
  41613c:	cc                   	int3
  41613d:	cc                   	int3
  41613e:	cc                   	int3
  41613f:	cc                   	int3
  416140:	55                   	push   %ebp
  416141:	8b ec                	mov    %esp,%ebp
  416143:	8b 45 08             	mov    0x8(%ebp),%eax
  416146:	50                   	push   %eax
  416147:	e8 54 00 00 00       	call   0x4161a0
  41614c:	83 c4 04             	add    $0x4,%esp
  41614f:	85 c0                	test   %eax,%eax
  416151:	74 0c                	je     0x41615f
  416153:	8b 4d 08             	mov    0x8(%ebp),%ecx
  416156:	51                   	push   %ecx
  416157:	e8 14 00 00 00       	call   0x416170
  41615c:	83 c4 04             	add    $0x4,%esp
  41615f:	5d                   	pop    %ebp
  416160:	c3                   	ret
  416161:	cc                   	int3
  416162:	cc                   	int3
  416163:	cc                   	int3
  416164:	cc                   	int3
  416165:	cc                   	int3
  416166:	cc                   	int3
  416167:	cc                   	int3
  416168:	cc                   	int3
  416169:	cc                   	int3
  41616a:	cc                   	int3
  41616b:	cc                   	int3
  41616c:	cc                   	int3
  41616d:	cc                   	int3
  41616e:	cc                   	int3
  41616f:	cc                   	int3
  416170:	55                   	push   %ebp
  416171:	8b ec                	mov    %esp,%ebp
  416173:	83 3d 08 10 42 00 00 	cmpl   $0x0,0x421008
  41617a:	74 0f                	je     0x41618b
  41617c:	8b 45 08             	mov    0x8(%ebp),%eax
  41617f:	50                   	push   %eax
  416180:	8b 0d 08 10 42 00    	mov    0x421008,%ecx
  416186:	ff d1                	call   *%ecx
  416188:	83 c4 04             	add    $0x4,%esp
  41618b:	5d                   	pop    %ebp
  41618c:	c3                   	ret
  41618d:	cc                   	int3
  41618e:	cc                   	int3
  41618f:	cc                   	int3
  416190:	cc                   	int3
  416191:	cc                   	int3
  416192:	cc                   	int3
  416193:	cc                   	int3
  416194:	cc                   	int3
  416195:	cc                   	int3
  416196:	cc                   	int3
  416197:	cc                   	int3
  416198:	cc                   	int3
  416199:	cc                   	int3
  41619a:	cc                   	int3
  41619b:	cc                   	int3
  41619c:	cc                   	int3
  41619d:	cc                   	int3
  41619e:	cc                   	int3
  41619f:	cc                   	int3
  4161a0:	55                   	push   %ebp
  4161a1:	8b ec                	mov    %esp,%ebp
  4161a3:	83 ec 10             	sub    $0x10,%esp
  4161a6:	c7 45 fc 80 b9 41 00 	movl   $0x41b980,-0x4(%ebp)
  4161ad:	c7 45 f4 c0 ba 41 00 	movl   $0x41bac0,-0xc(%ebp)
  4161b4:	8b 45 f4             	mov    -0xc(%ebp),%eax
  4161b7:	2b 45 fc             	sub    -0x4(%ebp),%eax
  4161ba:	89 45 f0             	mov    %eax,-0x10(%ebp)
  4161bd:	8b 4d 08             	mov    0x8(%ebp),%ecx
  4161c0:	2b 4d fc             	sub    -0x4(%ebp),%ecx
  4161c3:	3b 4d f0             	cmp    -0x10(%ebp),%ecx
  4161c6:	77 09                	ja     0x4161d1
  4161c8:	c7 45 f8 01 00 00 00 	movl   $0x1,-0x8(%ebp)
  4161cf:	eb 07                	jmp    0x4161d8
  4161d1:	c7 45 f8 00 00 00 00 	movl   $0x0,-0x8(%ebp)
  4161d8:	8b 45 f8             	mov    -0x8(%ebp),%eax
  4161db:	8b e5                	mov    %ebp,%esp
  4161dd:	5d                   	pop    %ebp
  4161de:	c3                   	ret
  4161df:	cc                   	int3
  4161e0:	cc                   	int3
  4161e1:	cc                   	int3
  4161e2:	cc                   	int3
  4161e3:	cc                   	int3
  4161e4:	cc                   	int3
  4161e5:	cc                   	int3
  4161e6:	cc                   	int3
  4161e7:	cc                   	int3
  4161e8:	cc                   	int3
  4161e9:	cc                   	int3
  4161ea:	cc                   	int3
  4161eb:	cc                   	int3
  4161ec:	cc                   	int3
  4161ed:	cc                   	int3
  4161ee:	cc                   	int3
  4161ef:	cc                   	int3
  4161f0:	55                   	push   %ebp
  4161f1:	8b ec                	mov    %esp,%ebp
  4161f3:	8b 45 10             	mov    0x10(%ebp),%eax
  4161f6:	50                   	push   %eax
  4161f7:	8b 4d 0c             	mov    0xc(%ebp),%ecx
  4161fa:	51                   	push   %ecx
  4161fb:	8b 55 08             	mov    0x8(%ebp),%edx
  4161fe:	52                   	push   %edx
  4161ff:	e8 dc 00 00 00       	call   0x4162e0
  416204:	83 c4 0c             	add    $0xc,%esp
  416207:	85 c0                	test   %eax,%eax
  416209:	74 11                	je     0x41621c
  41620b:	8b 45 08             	mov    0x8(%ebp),%eax
  41620e:	50                   	push   %eax
  41620f:	e8 8c ff ff ff       	call   0x4161a0
  416214:	83 c4 04             	add    $0x4,%esp
  416217:	85 c0                	test   %eax,%eax
  416219:	74 01                	je     0x41621c
  41621b:	cc                   	int3
  41621c:	5d                   	pop    %ebp
  41621d:	c3                   	ret
  41621e:	cc                   	int3
  41621f:	cc                   	int3
  416220:	cc                   	int3
  416221:	cc                   	int3
  416222:	cc                   	int3
  416223:	cc                   	int3
  416224:	cc                   	int3
  416225:	cc                   	int3
  416226:	cc                   	int3
  416227:	cc                   	int3
  416228:	cc                   	int3
  416229:	cc                   	int3
  41622a:	cc                   	int3
  41622b:	cc                   	int3
  41622c:	cc                   	int3
  41622d:	cc                   	int3
  41622e:	cc                   	int3
  41622f:	cc                   	int3
  416230:	55                   	push   %ebp
  416231:	8b ec                	mov    %esp,%ebp
  416233:	8b 45 10             	mov    0x10(%ebp),%eax
  416236:	50                   	push   %eax
  416237:	8b 4d 0c             	mov    0xc(%ebp),%ecx
  41623a:	51                   	push   %ecx
  41623b:	8b 55 08             	mov    0x8(%ebp),%edx
  41623e:	52                   	push   %edx
  41623f:	e8 9c 00 00 00       	call   0x4162e0
  416244:	83 c4 0c             	add    $0xc,%esp
  416247:	85 c0                	test   %eax,%eax
  416249:	74 17                	je     0x416262
  41624b:	8b 45 08             	mov    0x8(%ebp),%eax
  41624e:	50                   	push   %eax
  41624f:	e8 4c ff ff ff       	call   0x4161a0
  416254:	83 c4 04             	add    $0x4,%esp
  416257:	85 c0                	test   %eax,%eax
  416259:	74 07                	je     0x416262
  41625b:	b9 41 00 00 00       	mov    $0x41,%ecx
  416260:	cd 29                	int    $0x29
  416262:	5d                   	pop    %ebp
  416263:	c3                   	ret
  416264:	cc                   	int3
  416265:	cc                   	int3
  416266:	cc                   	int3
  416267:	cc                   	int3
  416268:	cc                   	int3
  416269:	cc                   	int3
  41626a:	cc                   	int3
  41626b:	cc                   	int3
  41626c:	cc                   	int3
  41626d:	cc                   	int3
  41626e:	cc                   	int3
  41626f:	cc                   	int3
  416270:	cc                   	int3
  416271:	cc                   	int3
  416272:	cc                   	int3
  416273:	cc                   	int3
  416274:	cc                   	int3
  416275:	cc                   	int3
  416276:	cc                   	int3
  416277:	cc                   	int3
  416278:	cc                   	int3
  416279:	cc                   	int3
  41627a:	cc                   	int3
  41627b:	cc                   	int3
  41627c:	cc                   	int3
  41627d:	cc                   	int3
  41627e:	cc                   	int3
  41627f:	cc                   	int3
  416280:	55                   	push   %ebp
  416281:	8b ec                	mov    %esp,%ebp
  416283:	5d                   	pop    %ebp
  416284:	c3                   	ret
  416285:	cc                   	int3
  416286:	cc                   	int3
  416287:	cc                   	int3
  416288:	cc                   	int3
  416289:	cc                   	int3
  41628a:	cc                   	int3
  41628b:	cc                   	int3
  41628c:	cc                   	int3
  41628d:	cc                   	int3
  41628e:	cc                   	int3
  41628f:	cc                   	int3
  416290:	55                   	push   %ebp
  416291:	8b ec                	mov    %esp,%ebp
  416293:	8b 45 10             	mov    0x10(%ebp),%eax
  416296:	50                   	push   %eax
  416297:	8b 4d 0c             	mov    0xc(%ebp),%ecx
  41629a:	51                   	push   %ecx
  41629b:	8b 55 08             	mov    0x8(%ebp),%edx
  41629e:	52                   	push   %edx
  41629f:	e8 3c 00 00 00       	call   0x4162e0
  4162a4:	83 c4 0c             	add    $0xc,%esp
  4162a7:	85 c0                	test   %eax,%eax
  4162a9:	74 1c                	je     0x4162c7
  4162ab:	8b 45 08             	mov    0x8(%ebp),%eax
  4162ae:	50                   	push   %eax
  4162af:	e8 ec fe ff ff       	call   0x4161a0
  4162b4:	83 c4 04             	add    $0x4,%esp
  4162b7:	85 c0                	test   %eax,%eax
  4162b9:	74 0c                	je     0x4162c7
  4162bb:	8b 4d 08             	mov    0x8(%ebp),%ecx
  4162be:	51                   	push   %ecx
  4162bf:	e8 ac fe ff ff       	call   0x416170
  4162c4:	83 c4 04             	add    $0x4,%esp
  4162c7:	5d                   	pop    %ebp
  4162c8:	c3                   	ret
  4162c9:	cc                   	int3
  4162ca:	cc                   	int3
  4162cb:	cc                   	int3
  4162cc:	cc                   	int3
  4162cd:	cc                   	int3
  4162ce:	cc                   	int3
  4162cf:	cc                   	int3
  4162d0:	cc                   	int3
  4162d1:	cc                   	int3
  4162d2:	cc                   	int3
  4162d3:	cc                   	int3
  4162d4:	cc                   	int3
  4162d5:	cc                   	int3
  4162d6:	cc                   	int3
  4162d7:	cc                   	int3
  4162d8:	cc                   	int3
  4162d9:	cc                   	int3
  4162da:	cc                   	int3
  4162db:	cc                   	int3
  4162dc:	cc                   	int3
  4162dd:	cc                   	int3
  4162de:	cc                   	int3
  4162df:	cc                   	int3
  4162e0:	55                   	push   %ebp
  4162e1:	8b ec                	mov    %esp,%ebp
  4162e3:	83 ec 0c             	sub    $0xc,%esp
  4162e6:	c7 45 f8 80 b9 41 00 	movl   $0x41b980,-0x8(%ebp)
  4162ed:	8b 45 f8             	mov    -0x8(%ebp),%eax
  4162f0:	03 45 0c             	add    0xc(%ebp),%eax
  4162f3:	89 45 f4             	mov    %eax,-0xc(%ebp)
  4162f6:	8b 4d 08             	mov    0x8(%ebp),%ecx
  4162f9:	2b 4d f4             	sub    -0xc(%ebp),%ecx
  4162fc:	3b 4d 10             	cmp    0x10(%ebp),%ecx
  4162ff:	76 09                	jbe    0x41630a
  416301:	c7 45 fc 01 00 00 00 	movl   $0x1,-0x4(%ebp)
  416308:	eb 07                	jmp    0x416311
  41630a:	c7 45 fc 00 00 00 00 	movl   $0x0,-0x4(%ebp)
  416311:	8b 45 fc             	mov    -0x4(%ebp),%eax
  416314:	8b e5                	mov    %ebp,%esp
  416316:	5d                   	pop    %ebp
  416317:	c3                   	ret
  416318:	cc                   	int3
  416319:	cc                   	int3
  41631a:	cc                   	int3
  41631b:	cc                   	int3
  41631c:	cc                   	int3
  41631d:	cc                   	int3
  41631e:	cc                   	int3
  41631f:	cc                   	int3
  416320:	cc                   	int3
  416321:	cc                   	int3
  416322:	cc                   	int3
  416323:	cc                   	int3
  416324:	cc                   	int3
  416325:	cc                   	int3
  416326:	cc                   	int3
  416327:	cc                   	int3
  416328:	cc                   	int3
  416329:	cc                   	int3
  41632a:	cc                   	int3
  41632b:	cc                   	int3
  41632c:	cc                   	int3
  41632d:	cc                   	int3
  41632e:	cc                   	int3
  41632f:	cc                   	int3
  416330:	55                   	push   %ebp
  416331:	8b ec                	mov    %esp,%ebp
  416333:	51                   	push   %ecx
  416334:	68 00 10 42 00       	push   $0x421000
  416339:	e8 85 ad ff ff       	call   0x4110c3
  41633e:	83 c4 04             	add    $0x4,%esp
  416341:	3d 0c 13 41 00       	cmp    $0x41130c,%eax
  416346:	74 09                	je     0x416351
  416348:	c7 45 fc 01 00 00 00 	movl   $0x1,-0x4(%ebp)
  41634f:	eb 07                	jmp    0x416358
  416351:	c7 45 fc 00 00 00 00 	movl   $0x0,-0x4(%ebp)
  416358:	8b 45 fc             	mov    -0x4(%ebp),%eax
  41635b:	8b e5                	mov    %ebp,%esp
  41635d:	5d                   	pop    %ebp
  41635e:	c3                   	ret
  41635f:	cc                   	int3
  416360:	cc                   	int3
  416361:	cc                   	int3
  416362:	cc                   	int3
  416363:	cc                   	int3
  416364:	cc                   	int3
  416365:	cc                   	int3
  416366:	cc                   	int3
  416367:	cc                   	int3
  416368:	cc                   	int3
  416369:	cc                   	int3
  41636a:	cc                   	int3
  41636b:	cc                   	int3
  41636c:	cc                   	int3
  41636d:	cc                   	int3
  41636e:	cc                   	int3
  41636f:	cc                   	int3
  416370:	55                   	push   %ebp
  416371:	8b ec                	mov    %esp,%ebp
  416373:	81 ec 14 04 00 00    	sub    $0x414,%esp
  416379:	a1 00 d0 41 00       	mov    0x41d000,%eax
  41637e:	33 c5                	xor    %ebp,%eax
  416380:	89 45 fc             	mov    %eax,-0x4(%ebp)
  416383:	80 3d 6c d5 41 00 00 	cmpb   $0x0,0x41d56c
  41638a:	0f 85 1a 01 00 00    	jne    0x4164aa
  416390:	c6 05 6c d5 41 00 01 	movb   $0x1,0x41d56c
  416397:	e8 74 01 00 00       	call   0x416510
  41639c:	85 c0                	test   %eax,%eax
  41639e:	0f 85 08 01 00 00    	jne    0x4164ac
  4163a4:	68 cc b4 41 00       	push   $0x41b4cc
  4163a9:	e8 0a ae ff ff       	call   0x4111b8
  4163ae:	83 c4 04             	add    $0x4,%esp
  4163b1:	85 c0                	test   %eax,%eax
  4163b3:	74 78                	je     0x41642d
  4163b5:	68 04 01 00 00       	push   $0x104
  4163ba:	8d 8d ec fb ff ff    	lea    -0x414(%ebp),%ecx
  4163c0:	51                   	push   %ecx
  4163c1:	50                   	push   %eax
  4163c2:	e8 5d b0 ff ff       	call   0x411424
  4163c7:	83 c4 0c             	add    $0xc,%esp
  4163ca:	85 c0                	test   %eax,%eax
  4163cc:	74 5f                	je     0x41642d
  4163ce:	68 04 01 00 00       	push   $0x104
  4163d3:	8d 85 f4 fd ff ff    	lea    -0x20c(%ebp),%eax
  4163d9:	50                   	push   %eax
  4163da:	8d 85 ec fb ff ff    	lea    -0x414(%ebp),%eax
  4163e0:	50                   	push   %eax
  4163e1:	e8 1a 04 00 00       	call   0x416800
  4163e6:	83 c4 0c             	add    $0xc,%esp
  4163e9:	85 c0                	test   %eax,%eax
  4163eb:	74 40                	je     0x41642d
  4163ed:	68 00 09 00 00       	push   $0x900
  4163f2:	8d 85 f4 fd ff ff    	lea    -0x20c(%ebp),%eax
  4163f8:	6a 00                	push   $0x0
  4163fa:	50                   	push   %eax
  4163fb:	e8 53 ae ff ff       	call   0x411253
  416400:	83 c4 0c             	add    $0xc,%esp
  416403:	85 c0                	test   %eax,%eax
  416405:	0f 85 a1 00 00 00    	jne    0x4164ac
  41640b:	ff 15 28 e0 41 00    	call   *0x41e028
  416411:	83 f8 57             	cmp    $0x57,%eax
  416414:	75 17                	jne    0x41642d
  416416:	6a 08                	push   $0x8
  416418:	8d 85 f4 fd ff ff    	lea    -0x20c(%ebp),%eax
  41641e:	6a 00                	push   $0x0
  416420:	50                   	push   %eax
  416421:	e8 2d ae ff ff       	call   0x411253
  416426:	83 c4 0c             	add    $0xc,%esp
  416429:	85 c0                	test   %eax,%eax
  41642b:	75 7f                	jne    0x4164ac
  41642d:	68 00 0a 00 00       	push   $0xa00
  416432:	6a 00                	push   $0x0
  416434:	68 7c b6 41 00       	push   $0x41b67c
  416439:	e8 15 ae ff ff       	call   0x411253
  41643e:	83 c4 0c             	add    $0xc,%esp
  416441:	85 c0                	test   %eax,%eax
  416443:	75 67                	jne    0x4164ac
  416445:	ff 15 28 e0 41 00    	call   *0x41e028
  41644b:	83 f8 57             	cmp    $0x57,%eax
  41644e:	75 5a                	jne    0x4164aa
  416450:	68 04 01 00 00       	push   $0x104
  416455:	8d 85 ec fb ff ff    	lea    -0x414(%ebp),%eax
  41645b:	50                   	push   %eax
  41645c:	6a 00                	push   $0x0
  41645e:	e8 c1 af ff ff       	call   0x411424
  416463:	83 c4 0c             	add    $0xc,%esp
  416466:	85 c0                	test   %eax,%eax
  416468:	74 40                	je     0x4164aa
  41646a:	68 04 01 00 00       	push   $0x104
  41646f:	8d 85 f4 fd ff ff    	lea    -0x20c(%ebp),%eax
  416475:	50                   	push   %eax
  416476:	8d 85 ec fb ff ff    	lea    -0x414(%ebp),%eax
  41647c:	50                   	push   %eax
  41647d:	e8 7e 03 00 00       	call   0x416800
  416482:	83 c4 0c             	add    $0xc,%esp
  416485:	85 c0                	test   %eax,%eax
  416487:	74 21                	je     0x4164aa
  416489:	6a 08                	push   $0x8
  41648b:	8d 85 f4 fd ff ff    	lea    -0x20c(%ebp),%eax
  416491:	6a 00                	push   $0x0
  416493:	50                   	push   %eax
  416494:	e8 ba ad ff ff       	call   0x411253
  416499:	83 c4 0c             	add    $0xc,%esp
  41649c:	8b 4d fc             	mov    -0x4(%ebp),%ecx
  41649f:	33 cd                	xor    %ebp,%ecx
  4164a1:	e8 fe ac ff ff       	call   0x4111a4
  4164a6:	8b e5                	mov    %ebp,%esp
  4164a8:	5d                   	pop    %ebp
  4164a9:	c3                   	ret
  4164aa:	33 c0                	xor    %eax,%eax
  4164ac:	8b 4d fc             	mov    -0x4(%ebp),%ecx
  4164af:	33 cd                	xor    %ebp,%ecx
  4164b1:	e8 ee ac ff ff       	call   0x4111a4
  4164b6:	8b e5                	mov    %ebp,%esp
  4164b8:	5d                   	pop    %ebp
  4164b9:	c3                   	ret
  4164ba:	cc                   	int3
  4164bb:	cc                   	int3
  4164bc:	cc                   	int3
  4164bd:	cc                   	int3
  4164be:	cc                   	int3
  4164bf:	cc                   	int3
  4164c0:	cc                   	int3
  4164c1:	cc                   	int3
  4164c2:	cc                   	int3
  4164c3:	cc                   	int3
  4164c4:	cc                   	int3
  4164c5:	cc                   	int3
  4164c6:	cc                   	int3
  4164c7:	cc                   	int3
  4164c8:	cc                   	int3
  4164c9:	cc                   	int3
  4164ca:	cc                   	int3
  4164cb:	cc                   	int3
  4164cc:	cc                   	int3
  4164cd:	cc                   	int3
  4164ce:	cc                   	int3
  4164cf:	cc                   	int3
  4164d0:	cc                   	int3
  4164d1:	cc                   	int3
  4164d2:	cc                   	int3
  4164d3:	cc                   	int3
  4164d4:	cc                   	int3
  4164d5:	cc                   	int3
  4164d6:	cc                   	int3
  4164d7:	cc                   	int3
  4164d8:	cc                   	int3
  4164d9:	cc                   	int3
  4164da:	cc                   	int3
  4164db:	cc                   	int3
  4164dc:	cc                   	int3
  4164dd:	cc                   	int3
  4164de:	cc                   	int3
  4164df:	cc                   	int3
  4164e0:	cc                   	int3
  4164e1:	cc                   	int3
  4164e2:	cc                   	int3
  4164e3:	cc                   	int3
  4164e4:	cc                   	int3
  4164e5:	cc                   	int3
  4164e6:	cc                   	int3
  4164e7:	cc                   	int3
  4164e8:	cc                   	int3
  4164e9:	cc                   	int3
  4164ea:	cc                   	int3
  4164eb:	cc                   	int3
  4164ec:	cc                   	int3
  4164ed:	cc                   	int3
  4164ee:	cc                   	int3
  4164ef:	cc                   	int3
  4164f0:	cc                   	int3
  4164f1:	cc                   	int3
  4164f2:	cc                   	int3
  4164f3:	cc                   	int3
  4164f4:	cc                   	int3
  4164f5:	cc                   	int3
  4164f6:	cc                   	int3
  4164f7:	cc                   	int3
  4164f8:	cc                   	int3
  4164f9:	cc                   	int3
  4164fa:	cc                   	int3
  4164fb:	cc                   	int3
  4164fc:	cc                   	int3
  4164fd:	cc                   	int3
  4164fe:	cc                   	int3
  4164ff:	cc                   	int3
  416500:	cc                   	int3
  416501:	cc                   	int3
  416502:	cc                   	int3
  416503:	cc                   	int3
  416504:	cc                   	int3
  416505:	cc                   	int3
  416506:	cc                   	int3
  416507:	cc                   	int3
  416508:	cc                   	int3
  416509:	cc                   	int3
  41650a:	cc                   	int3
  41650b:	cc                   	int3
  41650c:	cc                   	int3
  41650d:	cc                   	int3
  41650e:	cc                   	int3
  41650f:	cc                   	int3
  416510:	55                   	push   %ebp
  416511:	8b ec                	mov    %esp,%ebp
  416513:	81 ec 1c 02 00 00    	sub    $0x21c,%esp
  416519:	a1 00 d0 41 00       	mov    0x41d000,%eax
  41651e:	33 c5                	xor    %ebp,%eax
  416520:	89 45 fc             	mov    %eax,-0x4(%ebp)
  416523:	53                   	push   %ebx
  416524:	56                   	push   %esi
  416525:	57                   	push   %edi
  416526:	68 00 08 00 00       	push   $0x800
  41652b:	6a 00                	push   $0x0
  41652d:	68 00 b5 41 00       	push   $0x41b500
  416532:	e8 1c ad ff ff       	call   0x411253
  416537:	8b f8                	mov    %eax,%edi
  416539:	83 c4 0c             	add    $0xc,%esp
  41653c:	85 ff                	test   %edi,%edi
  41653e:	75 39                	jne    0x416579
  416540:	68 00 08 00 00       	push   $0x800
  416545:	50                   	push   %eax
  416546:	68 58 b5 41 00       	push   $0x41b558
  41654b:	e8 03 ad ff ff       	call   0x411253
  416550:	8b f8                	mov    %eax,%edi
  416552:	83 c4 0c             	add    $0xc,%esp
  416555:	85 ff                	test   %edi,%edi
  416557:	75 20                	jne    0x416579
  416559:	ff 15 28 e0 41 00    	call   *0x41e028
  41655f:	83 f8 57             	cmp    $0x57,%eax
  416562:	75 79                	jne    0x4165dd
  416564:	57                   	push   %edi
  416565:	57                   	push   %edi
  416566:	68 58 b5 41 00       	push   $0x41b558
  41656b:	e8 e3 ac ff ff       	call   0x411253
  416570:	8b f8                	mov    %eax,%edi
  416572:	83 c4 0c             	add    $0xc,%esp
  416575:	85 ff                	test   %edi,%edi
  416577:	74 64                	je     0x4165dd
  416579:	68 78 b5 41 00       	push   $0x41b578
  41657e:	57                   	push   %edi
  41657f:	ff 15 6c e0 41 00    	call   *0x41e06c
  416585:	8b f0                	mov    %eax,%esi
  416587:	85 f6                	test   %esi,%esi
  416589:	74 52                	je     0x4165dd
  41658b:	68 88 b5 41 00       	push   $0x41b588
  416590:	57                   	push   %edi
  416591:	ff 15 6c e0 41 00    	call   *0x41e06c
  416597:	8b d8                	mov    %eax,%ebx
  416599:	85 db                	test   %ebx,%ebx
  41659b:	74 40                	je     0x4165dd
  41659d:	68 9c b5 41 00       	push   $0x41b59c
  4165a2:	57                   	push   %edi
  4165a3:	ff 15 6c e0 41 00    	call   *0x41e06c
  4165a9:	89 85 e8 fd ff ff    	mov    %eax,-0x218(%ebp)
  4165af:	85 c0                	test   %eax,%eax
  4165b1:	74 2a                	je     0x4165dd
  4165b3:	8d 85 f0 fd ff ff    	lea    -0x210(%ebp),%eax
  4165b9:	8b ce                	mov    %esi,%ecx
  4165bb:	50                   	push   %eax
  4165bc:	6a 01                	push   $0x1
  4165be:	6a 00                	push   $0x0
  4165c0:	68 b0 b5 41 00       	push   $0x41b5b0
  4165c5:	68 02 00 00 80       	push   $0x80000002
  4165ca:	ff 15 00 10 42 00    	call   *0x421000
  4165d0:	ff d6                	call   *%esi
  4165d2:	85 c0                	test   %eax,%eax
  4165d4:	74 1a                	je     0x4165f0
  4165d6:	57                   	push   %edi
  4165d7:	ff 15 14 e0 41 00    	call   *0x41e014
  4165dd:	5f                   	pop    %edi
  4165de:	5e                   	pop    %esi
  4165df:	33 c0                	xor    %eax,%eax
  4165e1:	5b                   	pop    %ebx
  4165e2:	8b 4d fc             	mov    -0x4(%ebp),%ecx
  4165e5:	33 cd                	xor    %ebp,%ecx
  4165e7:	e8 b8 ab ff ff       	call   0x4111a4
  4165ec:	8b e5                	mov    %ebp,%esp
  4165ee:	5d                   	pop    %ebp
  4165ef:	c3                   	ret
  4165f0:	8d 85 ec fd ff ff    	lea    -0x214(%ebp),%eax
  4165f6:	c7 85 ec fd ff ff 08 	movl   $0x208,-0x214(%ebp)
  4165fd:	02 00 00 
  416600:	50                   	push   %eax
  416601:	8d 85 f4 fd ff ff    	lea    -0x20c(%ebp),%eax
  416607:	8b cb                	mov    %ebx,%ecx
  416609:	50                   	push   %eax
  41660a:	8d 85 e4 fd ff ff    	lea    -0x21c(%ebp),%eax
  416610:	50                   	push   %eax
  416611:	6a 00                	push   $0x0
  416613:	68 3c b6 41 00       	push   $0x41b63c
  416618:	ff b5 f0 fd ff ff    	push   -0x210(%ebp)
  41661e:	ff 15 00 10 42 00    	call   *0x421000
  416624:	ff d3                	call   *%ebx
  416626:	ff b5 f0 fd ff ff    	push   -0x210(%ebp)
  41662c:	8b 9d e8 fd ff ff    	mov    -0x218(%ebp),%ebx
  416632:	8b f0                	mov    %eax,%esi
  416634:	8b cb                	mov    %ebx,%ecx
  416636:	ff 15 00 10 42 00    	call   *0x421000
  41663c:	ff d3                	call   *%ebx
  41663e:	57                   	push   %edi
  41663f:	ff 15 14 e0 41 00    	call   *0x41e014
  416645:	85 f6                	test   %esi,%esi
  416647:	75 94                	jne    0x4165dd
  416649:	83 bd e4 fd ff ff 01 	cmpl   $0x1,-0x21c(%ebp)
  416650:	75 8b                	jne    0x4165dd
  416652:	8b 8d ec fd ff ff    	mov    -0x214(%ebp),%ecx
  416658:	f6 c1 01             	test   $0x1,%cl
  41665b:	75 80                	jne    0x4165dd
  41665d:	d1 e9                	shr    %ecx
  41665f:	8b d1                	mov    %ecx,%edx
  416661:	83 f9 02             	cmp    $0x2,%ecx
  416664:	0f 82 73 ff ff ff    	jb     0x4165dd
  41666a:	49                   	dec    %ecx
  41666b:	8d 85 f4 fd ff ff    	lea    -0x20c(%ebp),%eax
  416671:	66 39 34 48          	cmp    %si,(%eax,%ecx,2)
  416675:	8d 04 48             	lea    (%eax,%ecx,2),%eax
  416678:	0f 85 5f ff ff ff    	jne    0x4165dd
  41667e:	66 83 78 fe 5c       	cmpw   $0x5c,-0x2(%eax)
  416683:	74 0a                	je     0x41668f
  416685:	b9 5c 00 00 00       	mov    $0x5c,%ecx
  41668a:	66 89 08             	mov    %cx,(%eax)
  41668d:	8b ca                	mov    %edx,%ecx
  41668f:	8b c1                	mov    %ecx,%eax
  416691:	f7 d0                	not    %eax
  416693:	83 f8 12             	cmp    $0x12,%eax
  416696:	0f 82 41 ff ff ff    	jb     0x4165dd
  41669c:	8d 41 11             	lea    0x11(%ecx),%eax
  41669f:	3d 04 01 00 00       	cmp    $0x104,%eax
  4166a4:	0f 87 33 ff ff ff    	ja     0x4165dd
  4166aa:	a1 a8 b4 41 00       	mov    0x41b4a8,%eax
  4166af:	89 84 4d f4 fd ff ff 	mov    %eax,-0x20c(%ebp,%ecx,2)
  4166b6:	a1 ac b4 41 00       	mov    0x41b4ac,%eax
  4166bb:	89 84 4d f8 fd ff ff 	mov    %eax,-0x208(%ebp,%ecx,2)
  4166c2:	a1 b0 b4 41 00       	mov    0x41b4b0,%eax
  4166c7:	89 84 4d fc fd ff ff 	mov    %eax,-0x204(%ebp,%ecx,2)
  4166ce:	a1 b4 b4 41 00       	mov    0x41b4b4,%eax
  4166d3:	89 84 4d 00 fe ff ff 	mov    %eax,-0x200(%ebp,%ecx,2)
  4166da:	a1 b8 b4 41 00       	mov    0x41b4b8,%eax
  4166df:	89 84 4d 04 fe ff ff 	mov    %eax,-0x1fc(%ebp,%ecx,2)
  4166e6:	a1 bc b4 41 00       	mov    0x41b4bc,%eax
  4166eb:	89 84 4d 08 fe ff ff 	mov    %eax,-0x1f8(%ebp,%ecx,2)
  4166f2:	a1 c0 b4 41 00       	mov    0x41b4c0,%eax
  4166f7:	89 84 4d 0c fe ff ff 	mov    %eax,-0x1f4(%ebp,%ecx,2)
  4166fe:	a1 c4 b4 41 00       	mov    0x41b4c4,%eax
  416703:	89 84 4d 10 fe ff ff 	mov    %eax,-0x1f0(%ebp,%ecx,2)
  41670a:	66 a1 c8 b4 41 00    	mov    0x41b4c8,%ax
  416710:	68 00 09 00 00       	push   $0x900
  416715:	66 89 84 4d 14 fe ff 	mov    %ax,-0x1ec(%ebp,%ecx,2)
  41671c:	ff 
  41671d:	8d 85 f4 fd ff ff    	lea    -0x20c(%ebp),%eax
  416723:	6a 00                	push   $0x0
  416725:	50                   	push   %eax
  416726:	e8 28 ab ff ff       	call   0x411253
  41672b:	8b f0                	mov    %eax,%esi
  41672d:	83 c4 0c             	add    $0xc,%esp
  416730:	85 f6                	test   %esi,%esi
  416732:	75 1f                	jne    0x416753
  416734:	ff 15 28 e0 41 00    	call   *0x41e028
  41673a:	83 f8 57             	cmp    $0x57,%eax
  41673d:	75 14                	jne    0x416753
  41673f:	6a 08                	push   $0x8
  416741:	8d 85 f4 fd ff ff    	lea    -0x20c(%ebp),%eax
  416747:	56                   	push   %esi
  416748:	50                   	push   %eax
  416749:	e8 05 ab ff ff       	call   0x411253
  41674e:	83 c4 0c             	add    $0xc,%esp
  416751:	8b f0                	mov    %eax,%esi
  416753:	8b 4d fc             	mov    -0x4(%ebp),%ecx
  416756:	8b c6                	mov    %esi,%eax
  416758:	5f                   	pop    %edi
  416759:	5e                   	pop    %esi
  41675a:	33 cd                	xor    %ebp,%ecx
  41675c:	5b                   	pop    %ebx
  41675d:	e8 42 aa ff ff       	call   0x4111a4
  416762:	8b e5                	mov    %ebp,%esp
  416764:	5d                   	pop    %ebp
  416765:	c3                   	ret
  416766:	cc                   	int3
  416767:	cc                   	int3
  416768:	cc                   	int3
  416769:	cc                   	int3
  41676a:	cc                   	int3
  41676b:	cc                   	int3
  41676c:	cc                   	int3
  41676d:	cc                   	int3
  41676e:	cc                   	int3
  41676f:	cc                   	int3
  416770:	cc                   	int3
  416771:	cc                   	int3
  416772:	cc                   	int3
  416773:	cc                   	int3
  416774:	cc                   	int3
  416775:	cc                   	int3
  416776:	cc                   	int3
  416777:	cc                   	int3
  416778:	cc                   	int3
  416779:	cc                   	int3
  41677a:	cc                   	int3
  41677b:	cc                   	int3
  41677c:	cc                   	int3
  41677d:	cc                   	int3
  41677e:	cc                   	int3
  41677f:	cc                   	int3
  416780:	cc                   	int3
  416781:	cc                   	int3
  416782:	cc                   	int3
  416783:	cc                   	int3
  416784:	cc                   	int3
  416785:	cc                   	int3
  416786:	cc                   	int3
  416787:	cc                   	int3
  416788:	cc                   	int3
  416789:	cc                   	int3
  41678a:	cc                   	int3
  41678b:	cc                   	int3
  41678c:	cc                   	int3
  41678d:	cc                   	int3
  41678e:	cc                   	int3
  41678f:	cc                   	int3
  416790:	cc                   	int3
  416791:	cc                   	int3
  416792:	cc                   	int3
  416793:	cc                   	int3
  416794:	cc                   	int3
  416795:	cc                   	int3
  416796:	cc                   	int3
  416797:	cc                   	int3
  416798:	cc                   	int3
  416799:	cc                   	int3
  41679a:	cc                   	int3
  41679b:	cc                   	int3
  41679c:	cc                   	int3
  41679d:	cc                   	int3
  41679e:	cc                   	int3
  41679f:	cc                   	int3
  4167a0:	cc                   	int3
  4167a1:	cc                   	int3
  4167a2:	cc                   	int3
  4167a3:	cc                   	int3
  4167a4:	cc                   	int3
  4167a5:	cc                   	int3
  4167a6:	cc                   	int3
  4167a7:	cc                   	int3
  4167a8:	cc                   	int3
  4167a9:	cc                   	int3
  4167aa:	cc                   	int3
  4167ab:	cc                   	int3
  4167ac:	cc                   	int3
  4167ad:	cc                   	int3
  4167ae:	cc                   	int3
  4167af:	cc                   	int3
  4167b0:	cc                   	int3
  4167b1:	cc                   	int3
  4167b2:	cc                   	int3
  4167b3:	cc                   	int3
  4167b4:	cc                   	int3
  4167b5:	cc                   	int3
  4167b6:	cc                   	int3
  4167b7:	cc                   	int3
  4167b8:	cc                   	int3
  4167b9:	cc                   	int3
  4167ba:	cc                   	int3
  4167bb:	cc                   	int3
  4167bc:	cc                   	int3
  4167bd:	cc                   	int3
  4167be:	cc                   	int3
  4167bf:	cc                   	int3
  4167c0:	cc                   	int3
  4167c1:	cc                   	int3
  4167c2:	cc                   	int3
  4167c3:	cc                   	int3
  4167c4:	cc                   	int3
  4167c5:	cc                   	int3
  4167c6:	cc                   	int3
  4167c7:	cc                   	int3
  4167c8:	cc                   	int3
  4167c9:	cc                   	int3
  4167ca:	cc                   	int3
  4167cb:	cc                   	int3
  4167cc:	cc                   	int3
  4167cd:	cc                   	int3
  4167ce:	cc                   	int3
  4167cf:	cc                   	int3
  4167d0:	cc                   	int3
  4167d1:	cc                   	int3
  4167d2:	cc                   	int3
  4167d3:	cc                   	int3
  4167d4:	cc                   	int3
  4167d5:	cc                   	int3
  4167d6:	cc                   	int3
  4167d7:	cc                   	int3
  4167d8:	cc                   	int3
  4167d9:	cc                   	int3
  4167da:	cc                   	int3
  4167db:	cc                   	int3
  4167dc:	cc                   	int3
  4167dd:	cc                   	int3
  4167de:	cc                   	int3
  4167df:	cc                   	int3
  4167e0:	cc                   	int3
  4167e1:	cc                   	int3
  4167e2:	cc                   	int3
  4167e3:	cc                   	int3
  4167e4:	cc                   	int3
  4167e5:	cc                   	int3
  4167e6:	cc                   	int3
  4167e7:	cc                   	int3
  4167e8:	cc                   	int3
  4167e9:	cc                   	int3
  4167ea:	cc                   	int3
  4167eb:	cc                   	int3
  4167ec:	cc                   	int3
  4167ed:	cc                   	int3
  4167ee:	cc                   	int3
  4167ef:	cc                   	int3
  4167f0:	cc                   	int3
  4167f1:	cc                   	int3
  4167f2:	cc                   	int3
  4167f3:	cc                   	int3
  4167f4:	cc                   	int3
  4167f5:	cc                   	int3
  4167f6:	cc                   	int3
  4167f7:	cc                   	int3
  4167f8:	cc                   	int3
  4167f9:	cc                   	int3
  4167fa:	cc                   	int3
  4167fb:	cc                   	int3
  4167fc:	cc                   	int3
  4167fd:	cc                   	int3
  4167fe:	cc                   	int3
  4167ff:	cc                   	int3
  416800:	55                   	push   %ebp
  416801:	8b ec                	mov    %esp,%ebp
  416803:	81 ec 0c 06 00 00    	sub    $0x60c,%esp
  416809:	a1 00 d0 41 00       	mov    0x41d000,%eax
  41680e:	33 c5                	xor    %ebp,%eax
  416810:	89 45 fc             	mov    %eax,-0x4(%ebp)
  416813:	8b 45 08             	mov    0x8(%ebp),%eax
  416816:	8d 8d f4 fd ff ff    	lea    -0x20c(%ebp),%ecx
  41681c:	56                   	push   %esi
  41681d:	8b 75 0c             	mov    0xc(%ebp),%esi
  416820:	68 00 01 00 00       	push   $0x100
  416825:	51                   	push   %ecx
  416826:	68 00 01 00 00       	push   $0x100
  41682b:	8d 8d f4 fb ff ff    	lea    -0x40c(%ebp),%ecx
  416831:	51                   	push   %ecx
  416832:	68 00 01 00 00       	push   $0x100
  416837:	8d 8d f4 f9 ff ff    	lea    -0x60c(%ebp),%ecx
  41683d:	51                   	push   %ecx
  41683e:	6a 03                	push   $0x3
  416840:	8d 4d f4             	lea    -0xc(%ebp),%ecx
  416843:	51                   	push   %ecx
  416844:	50                   	push   %eax
  416845:	e8 92 a8 ff ff       	call   0x4110dc
  41684a:	83 c4 24             	add    $0x24,%esp
  41684d:	85 c0                	test   %eax,%eax
  41684f:	75 6d                	jne    0x4168be
  416851:	68 64 b6 41 00       	push   $0x41b664
  416856:	8d 85 f4 fb ff ff    	lea    -0x40c(%ebp),%eax
  41685c:	6a 09                	push   $0x9
  41685e:	50                   	push   %eax
  41685f:	e8 c7 a9 ff ff       	call   0x41122b
  416864:	83 c4 0c             	add    $0xc,%esp
  416867:	85 c0                	test   %eax,%eax
  416869:	75 53                	jne    0x4168be
  41686b:	68 58 b6 41 00       	push   $0x41b658
  416870:	8d 85 f4 fd ff ff    	lea    -0x20c(%ebp),%eax
  416876:	6a 04                	push   $0x4
  416878:	50                   	push   %eax
  416879:	e8 ad a9 ff ff       	call   0x41122b
  41687e:	83 c4 0c             	add    $0xc,%esp
  416881:	85 c0                	test   %eax,%eax
  416883:	75 39                	jne    0x4168be
  416885:	8d 85 f4 fd ff ff    	lea    -0x20c(%ebp),%eax
  41688b:	50                   	push   %eax
  41688c:	8d 85 f4 fb ff ff    	lea    -0x40c(%ebp),%eax
  416892:	50                   	push   %eax
  416893:	8d 85 f4 f9 ff ff    	lea    -0x60c(%ebp),%eax
  416899:	50                   	push   %eax
  41689a:	8d 45 f4             	lea    -0xc(%ebp),%eax
  41689d:	50                   	push   %eax
  41689e:	ff 75 10             	push   0x10(%ebp)
  4168a1:	56                   	push   %esi
  4168a2:	e8 0b aa ff ff       	call   0x4112b2
  4168a7:	83 c4 18             	add    $0x18,%esp
  4168aa:	f7 d8                	neg    %eax
  4168ac:	1b c0                	sbb    %eax,%eax
  4168ae:	40                   	inc    %eax
  4168af:	5e                   	pop    %esi
  4168b0:	8b 4d fc             	mov    -0x4(%ebp),%ecx
  4168b3:	33 cd                	xor    %ebp,%ecx
  4168b5:	e8 ea a8 ff ff       	call   0x4111a4
  4168ba:	8b e5                	mov    %ebp,%esp
  4168bc:	5d                   	pop    %ebp
  4168bd:	c3                   	ret
  4168be:	8b 4d fc             	mov    -0x4(%ebp),%ecx
  4168c1:	33 c0                	xor    %eax,%eax
  4168c3:	33 cd                	xor    %ebp,%ecx
  4168c5:	5e                   	pop    %esi
  4168c6:	e8 d9 a8 ff ff       	call   0x4111a4
  4168cb:	8b e5                	mov    %ebp,%esp
  4168cd:	5d                   	pop    %ebp
  4168ce:	c3                   	ret
  4168cf:	cc                   	int3
  4168d0:	cc                   	int3
  4168d1:	cc                   	int3
  4168d2:	cc                   	int3
  4168d3:	cc                   	int3
  4168d4:	cc                   	int3
  4168d5:	cc                   	int3
  4168d6:	cc                   	int3
  4168d7:	cc                   	int3
  4168d8:	cc                   	int3
  4168d9:	cc                   	int3
  4168da:	cc                   	int3
  4168db:	cc                   	int3
  4168dc:	cc                   	int3
  4168dd:	cc                   	int3
  4168de:	cc                   	int3
  4168df:	cc                   	int3
  4168e0:	cc                   	int3
  4168e1:	cc                   	int3
  4168e2:	cc                   	int3
  4168e3:	cc                   	int3
  4168e4:	cc                   	int3
  4168e5:	cc                   	int3
  4168e6:	cc                   	int3
  4168e7:	cc                   	int3
  4168e8:	cc                   	int3
  4168e9:	cc                   	int3
  4168ea:	cc                   	int3
  4168eb:	cc                   	int3
  4168ec:	cc                   	int3
  4168ed:	cc                   	int3
  4168ee:	cc                   	int3
  4168ef:	cc                   	int3
  4168f0:	cc                   	int3
  4168f1:	cc                   	int3
  4168f2:	cc                   	int3
  4168f3:	cc                   	int3
  4168f4:	cc                   	int3
  4168f5:	cc                   	int3
  4168f6:	cc                   	int3
  4168f7:	cc                   	int3
  4168f8:	cc                   	int3
  4168f9:	cc                   	int3
  4168fa:	cc                   	int3
  4168fb:	cc                   	int3
  4168fc:	cc                   	int3
  4168fd:	cc                   	int3
  4168fe:	cc                   	int3
  4168ff:	cc                   	int3
  416900:	cc                   	int3
  416901:	cc                   	int3
  416902:	cc                   	int3
  416903:	cc                   	int3
  416904:	cc                   	int3
  416905:	cc                   	int3
  416906:	cc                   	int3
  416907:	cc                   	int3
  416908:	cc                   	int3
  416909:	cc                   	int3
  41690a:	cc                   	int3
  41690b:	cc                   	int3
  41690c:	cc                   	int3
  41690d:	cc                   	int3
  41690e:	cc                   	int3
  41690f:	cc                   	int3
  416910:	55                   	push   %ebp
  416911:	8b ec                	mov    %esp,%ebp
  416913:	8b 45 14             	mov    0x14(%ebp),%eax
  416916:	83 ec 4c             	sub    $0x4c,%esp
  416919:	33 c9                	xor    %ecx,%ecx
  41691b:	53                   	push   %ebx
  41691c:	56                   	push   %esi
  41691d:	8b 75 08             	mov    0x8(%ebp),%esi
  416920:	c7 00 00 00 00 00    	movl   $0x0,(%eax)
  416926:	4e                   	dec    %esi
  416927:	8b 45 0c             	mov    0xc(%ebp),%eax
  41692a:	57                   	push   %edi
  41692b:	6a 1c                	push   $0x1c
  41692d:	66 89 08             	mov    %cx,(%eax)
  416930:	8d 45 b4             	lea    -0x4c(%ebp),%eax
  416933:	50                   	push   %eax
  416934:	56                   	push   %esi
  416935:	ff 15 18 e0 41 00    	call   *0x41e018
  41693b:	85 c0                	test   %eax,%eax
  41693d:	0f 84 44 03 00 00    	je     0x416c87
  416943:	ff 75 1c             	push   0x1c(%ebp)
  416946:	ff 75 18             	push   0x18(%ebp)
  416949:	ff 75 b8             	push   -0x48(%ebp)
  41694c:	e8 d3 aa ff ff       	call   0x411424
  416951:	83 c4 0c             	add    $0xc,%esp
  416954:	85 c0                	test   %eax,%eax
  416956:	0f 84 2b 03 00 00    	je     0x416c87
  41695c:	8b 45 b8             	mov    -0x48(%ebp),%eax
  41695f:	b9 4d 5a 00 00       	mov    $0x5a4d,%ecx
  416964:	66 39 08             	cmp    %cx,(%eax)
  416967:	0f 85 1a 03 00 00    	jne    0x416c87
  41696d:	8b 48 3c             	mov    0x3c(%eax),%ecx
  416970:	85 c9                	test   %ecx,%ecx
  416972:	0f 8e 0f 03 00 00    	jle    0x416c87
  416978:	03 c8                	add    %eax,%ecx
  41697a:	81 39 50 45 00 00    	cmpl   $0x4550,(%ecx)
  416980:	0f 85 01 03 00 00    	jne    0x416c87
  416986:	0f b7 51 14          	movzwl 0x14(%ecx),%edx
  41698a:	2b f0                	sub    %eax,%esi
  41698c:	0f b7 79 06          	movzwl 0x6(%ecx),%edi
  416990:	83 c2 20             	add    $0x20,%edx
  416993:	33 db                	xor    %ebx,%ebx
  416995:	33 c0                	xor    %eax,%eax
  416997:	85 ff                	test   %edi,%edi
  416999:	74 1c                	je     0x4169b7
  41699b:	03 ca                	add    %edx,%ecx
  41699d:	8d 49 00             	lea    0x0(%ecx),%ecx
  4169a0:	8b 51 04             	mov    0x4(%ecx),%edx
  4169a3:	3b f2                	cmp    %edx,%esi
  4169a5:	72 08                	jb     0x4169af
  4169a7:	8b de                	mov    %esi,%ebx
  4169a9:	2b da                	sub    %edx,%ebx
  4169ab:	3b 31                	cmp    (%ecx),%esi
  4169ad:	72 08                	jb     0x4169b7
  4169af:	40                   	inc    %eax
  4169b0:	83 c1 28             	add    $0x28,%ecx
  4169b3:	3b c7                	cmp    %edi,%eax
  4169b5:	72 e9                	jb     0x4169a0
  4169b7:	3b c7                	cmp    %edi,%eax
  4169b9:	0f 84 c8 02 00 00    	je     0x416c87
  4169bf:	40                   	inc    %eax
  4169c0:	80 3d 6d d5 41 00 00 	cmpb   $0x0,0x41d56d
  4169c7:	89 45 f4             	mov    %eax,-0xc(%ebp)
  4169ca:	75 28                	jne    0x4169f4
  4169cc:	83 3d 68 d5 41 00 00 	cmpl   $0x0,0x41d568
  4169d3:	0f 85 ae 02 00 00    	jne    0x416c87
  4169d9:	e8 92 f9 ff ff       	call   0x416370
  4169de:	a3 68 d5 41 00       	mov    %eax,0x41d568
  4169e3:	85 c0                	test   %eax,%eax
  4169e5:	0f 84 9c 02 00 00    	je     0x416c87
  4169eb:	c6 05 6d d5 41 00 01 	movb   $0x1,0x41d56d
  4169f2:	eb 05                	jmp    0x4169f9
  4169f4:	a1 68 d5 41 00       	mov    0x41d568,%eax
  4169f9:	68 94 b6 41 00       	push   $0x41b694
  4169fe:	50                   	push   %eax
  4169ff:	ff 15 6c e0 41 00    	call   *0x41e06c
  416a05:	8b f0                	mov    %eax,%esi
  416a07:	85 f6                	test   %esi,%esi
  416a09:	0f 84 78 02 00 00    	je     0x416c87
  416a0f:	8d 45 e8             	lea    -0x18(%ebp),%eax
  416a12:	8b ce                	mov    %esi,%ecx
  416a14:	50                   	push   %eax
  416a15:	6a 00                	push   $0x0
  416a17:	6a 00                	push   $0x0
  416a19:	8d 45 d0             	lea    -0x30(%ebp),%eax
  416a1c:	50                   	push   %eax
  416a1d:	6a 00                	push   $0x0
  416a1f:	6a 00                	push   $0x0
  416a21:	6a 00                	push   $0x0
  416a23:	ff 75 18             	push   0x18(%ebp)
  416a26:	ff 15 00 10 42 00    	call   *0x421000
  416a2c:	ff d6                	call   *%esi
  416a2e:	83 c4 20             	add    $0x20,%esp
  416a31:	85 c0                	test   %eax,%eax
  416a33:	0f 84 4e 02 00 00    	je     0x416c87
  416a39:	8b 7d e8             	mov    -0x18(%ebp),%edi
  416a3c:	c7 45 f8 00 00 00 00 	movl   $0x0,-0x8(%ebp)
  416a43:	c7 45 dc 00 00 00 00 	movl   $0x0,-0x24(%ebp)
  416a4a:	8b 07                	mov    (%edi),%eax
  416a4c:	8b 30                	mov    (%eax),%esi
  416a4e:	8b ce                	mov    %esi,%ecx
  416a50:	ff 15 00 10 42 00    	call   *0x421000
  416a56:	8b cf                	mov    %edi,%ecx
  416a58:	ff d6                	call   *%esi
  416a5a:	3d 41 91 32 01       	cmp    $0x1329141,%eax
  416a5f:	0f 85 3f 01 00 00    	jne    0x416ba4
  416a65:	8b 7d e8             	mov    -0x18(%ebp),%edi
  416a68:	8b 07                	mov    (%edi),%eax
  416a6a:	8b 70 1c             	mov    0x1c(%eax),%esi
  416a6d:	8d 45 e0             	lea    -0x20(%ebp),%eax
  416a70:	50                   	push   %eax
  416a71:	68 a8 b6 41 00       	push   $0x41b6a8
  416a76:	6a 00                	push   $0x0
  416a78:	8b ce                	mov    %esi,%ecx
  416a7a:	ff 15 00 10 42 00    	call   *0x421000
  416a80:	8b cf                	mov    %edi,%ecx
  416a82:	ff d6                	call   *%esi
  416a84:	85 c0                	test   %eax,%eax
  416a86:	0f 84 18 01 00 00    	je     0x416ba4
  416a8c:	8b 7d e0             	mov    -0x20(%ebp),%edi
  416a8f:	6a 00                	push   $0x0
  416a91:	6a 00                	push   $0x0
  416a93:	6a 00                	push   $0x0
  416a95:	8b 07                	mov    (%edi),%eax
  416a97:	8b 70 20             	mov    0x20(%eax),%esi
  416a9a:	8d 45 ec             	lea    -0x14(%ebp),%eax
  416a9d:	50                   	push   %eax
  416a9e:	53                   	push   %ebx
  416a9f:	ff 75 f4             	push   -0xc(%ebp)
  416aa2:	8b ce                	mov    %esi,%ecx
  416aa4:	ff 15 00 10 42 00    	call   *0x421000
  416aaa:	8b cf                	mov    %edi,%ecx
  416aac:	ff d6                	call   *%esi
  416aae:	85 c0                	test   %eax,%eax
  416ab0:	0f 84 da 00 00 00    	je     0x416b90
  416ab6:	8b 7d ec             	mov    -0x14(%ebp),%edi
  416ab9:	8b 07                	mov    (%edi),%eax
  416abb:	8b 70 68             	mov    0x68(%eax),%esi
  416abe:	8d 45 f8             	lea    -0x8(%ebp),%eax
  416ac1:	50                   	push   %eax
  416ac2:	8b ce                	mov    %esi,%ecx
  416ac4:	ff 15 00 10 42 00    	call   *0x421000
  416aca:	8b cf                	mov    %edi,%ecx
  416acc:	ff d6                	call   *%esi
  416ace:	84 c0                	test   %al,%al
  416ad0:	0f 84 a6 00 00 00    	je     0x416b7c
  416ad6:	8b 7d f8             	mov    -0x8(%ebp),%edi
  416ad9:	85 ff                	test   %edi,%edi
  416adb:	0f 84 9b 00 00 00    	je     0x416b7c
  416ae1:	8b 07                	mov    (%edi),%eax
  416ae3:	8b 70 08             	mov    0x8(%eax),%esi
  416ae6:	8b ce                	mov    %esi,%ecx
  416ae8:	ff 15 00 10 42 00    	call   *0x421000
  416aee:	8b cf                	mov    %edi,%ecx
  416af0:	ff d6                	call   *%esi
  416af2:	85 c0                	test   %eax,%eax
  416af4:	74 61                	je     0x416b57
  416af6:	8b 7d f8             	mov    -0x8(%ebp),%edi
  416af9:	6a 00                	push   $0x0
  416afb:	8b 07                	mov    (%edi),%eax
  416afd:	8b 70 0c             	mov    0xc(%eax),%esi
  416b00:	8d 45 f0             	lea    -0x10(%ebp),%eax
  416b03:	50                   	push   %eax
  416b04:	8d 45 d8             	lea    -0x28(%ebp),%eax
  416b07:	8b ce                	mov    %esi,%ecx
  416b09:	50                   	push   %eax
  416b0a:	8d 45 fc             	lea    -0x4(%ebp),%eax
  416b0d:	50                   	push   %eax
  416b0e:	8d 45 e4             	lea    -0x1c(%ebp),%eax
  416b11:	50                   	push   %eax
  416b12:	6a 00                	push   $0x0
  416b14:	ff 15 00 10 42 00    	call   *0x421000
  416b1a:	8b cf                	mov    %edi,%ecx
  416b1c:	ff d6                	call   *%esi
  416b1e:	84 c0                	test   %al,%al
  416b20:	74 47                	je     0x416b69
  416b22:	0f b7 45 fc          	movzwl -0x4(%ebp),%eax
  416b26:	3b 45 f4             	cmp    -0xc(%ebp),%eax
  416b29:	75 14                	jne    0x416b3f
  416b2b:	8b 4d e4             	mov    -0x1c(%ebp),%ecx
  416b2e:	3b cb                	cmp    %ebx,%ecx
  416b30:	77 0d                	ja     0x416b3f
  416b32:	8b 45 d8             	mov    -0x28(%ebp),%eax
  416b35:	03 c1                	add    %ecx,%eax
  416b37:	3b d8                	cmp    %eax,%ebx
  416b39:	0f 82 83 00 00 00    	jb     0x416bc2
  416b3f:	8b 7d f8             	mov    -0x8(%ebp),%edi
  416b42:	8b 07                	mov    (%edi),%eax
  416b44:	8b 70 08             	mov    0x8(%eax),%esi
  416b47:	8b ce                	mov    %esi,%ecx
  416b49:	ff 15 00 10 42 00    	call   *0x421000
  416b4f:	8b cf                	mov    %edi,%ecx
  416b51:	ff d6                	call   *%esi
  416b53:	85 c0                	test   %eax,%eax
  416b55:	75 9f                	jne    0x416af6
  416b57:	33 c9                	xor    %ecx,%ecx
  416b59:	51                   	push   %ecx
  416b5a:	6a 00                	push   $0x0
  416b5c:	ff 15 1c e0 41 00    	call   *0x41e01c
  416b62:	50                   	push   %eax
  416b63:	ff 15 20 e0 41 00    	call   *0x41e020
  416b69:	8b 7d f8             	mov    -0x8(%ebp),%edi
  416b6c:	8b 07                	mov    (%edi),%eax
  416b6e:	8b 30                	mov    (%eax),%esi
  416b70:	8b ce                	mov    %esi,%ecx
  416b72:	ff 15 00 10 42 00    	call   *0x421000
  416b78:	8b cf                	mov    %edi,%ecx
  416b7a:	ff d6                	call   *%esi
  416b7c:	8b 7d ec             	mov    -0x14(%ebp),%edi
  416b7f:	8b 07                	mov    (%edi),%eax
  416b81:	8b 70 40             	mov    0x40(%eax),%esi
  416b84:	8b ce                	mov    %esi,%ecx
  416b86:	ff 15 00 10 42 00    	call   *0x421000
  416b8c:	8b cf                	mov    %edi,%ecx
  416b8e:	ff d6                	call   *%esi
  416b90:	8b 7d e0             	mov    -0x20(%ebp),%edi
  416b93:	8b 07                	mov    (%edi),%eax
  416b95:	8b 70 38             	mov    0x38(%eax),%esi
  416b98:	8b ce                	mov    %esi,%ecx
  416b9a:	ff 15 00 10 42 00    	call   *0x421000
  416ba0:	8b cf                	mov    %edi,%ecx
  416ba2:	ff d6                	call   *%esi
  416ba4:	8b 7d e8             	mov    -0x18(%ebp),%edi
  416ba7:	8b 17                	mov    (%edi),%edx
  416ba9:	8b 72 2c             	mov    0x2c(%edx),%esi
  416bac:	8b ce                	mov    %esi,%ecx
  416bae:	ff 15 00 10 42 00    	call   *0x421000
  416bb4:	8b cf                	mov    %edi,%ecx
  416bb6:	ff d6                	call   *%esi
  416bb8:	8b 45 dc             	mov    -0x24(%ebp),%eax
  416bbb:	5f                   	pop    %edi
  416bbc:	5e                   	pop    %esi
  416bbd:	5b                   	pop    %ebx
  416bbe:	8b e5                	mov    %ebp,%esp
  416bc0:	5d                   	pop    %ebp
  416bc1:	c3                   	ret
  416bc2:	8b 75 f0             	mov    -0x10(%ebp),%esi
  416bc5:	85 f6                	test   %esi,%esi
  416bc7:	74 a0                	je     0x416b69
  416bc9:	81 fe ff ff ff 1f    	cmp    $0x1fffffff,%esi
  416bcf:	73 98                	jae    0x416b69
  416bd1:	c1 e6 03             	shl    $0x3,%esi
  416bd4:	ff 15 1c e0 41 00    	call   *0x41e01c
  416bda:	56                   	push   %esi
  416bdb:	6a 00                	push   $0x0
  416bdd:	50                   	push   %eax
  416bde:	ff 15 24 e0 41 00    	call   *0x41e024
  416be4:	89 45 f4             	mov    %eax,-0xc(%ebp)
  416be7:	85 c0                	test   %eax,%eax
  416be9:	0f 84 7a ff ff ff    	je     0x416b69
  416bef:	8b 7d f8             	mov    -0x8(%ebp),%edi
  416bf2:	50                   	push   %eax
  416bf3:	8d 45 f0             	lea    -0x10(%ebp),%eax
  416bf6:	50                   	push   %eax
  416bf7:	8b 0f                	mov    (%edi),%ecx
  416bf9:	8d 45 d4             	lea    -0x2c(%ebp),%eax
  416bfc:	6a 00                	push   $0x0
  416bfe:	6a 00                	push   $0x0
  416c00:	6a 00                	push   $0x0
  416c02:	8b 71 0c             	mov    0xc(%ecx),%esi
  416c05:	8b ce                	mov    %esi,%ecx
  416c07:	50                   	push   %eax
  416c08:	ff 15 00 10 42 00    	call   *0x421000
  416c0e:	8b cf                	mov    %edi,%ecx
  416c10:	ff d6                	call   *%esi
  416c12:	8b 4d f4             	mov    -0xc(%ebp),%ecx
  416c15:	84 c0                	test   %al,%al
  416c17:	0f 84 3c ff ff ff    	je     0x416b59
  416c1d:	2b 5d e4             	sub    -0x1c(%ebp),%ebx
  416c20:	3b 19                	cmp    (%ecx),%ebx
  416c22:	0f 82 31 ff ff ff    	jb     0x416b59
  416c28:	8b 55 f0             	mov    -0x10(%ebp),%edx
  416c2b:	b8 01 00 00 00       	mov    $0x1,%eax
  416c30:	3b d0                	cmp    %eax,%edx
  416c32:	76 0a                	jbe    0x416c3e
  416c34:	3b 1c c1             	cmp    (%ecx,%eax,8),%ebx
  416c37:	72 05                	jb     0x416c3e
  416c39:	40                   	inc    %eax
  416c3a:	3b c2                	cmp    %edx,%eax
  416c3c:	72 f6                	jb     0x416c34
  416c3e:	8b 44 c1 fc          	mov    -0x4(%ecx,%eax,8),%eax
  416c42:	8b 4d 14             	mov    0x14(%ebp),%ecx
  416c45:	25 ff ff ff 00       	and    $0xffffff,%eax
  416c4a:	8b 7d ec             	mov    -0x14(%ebp),%edi
  416c4d:	6a 00                	push   $0x0
  416c4f:	6a 00                	push   $0x0
  416c51:	89 01                	mov    %eax,(%ecx)
  416c53:	8b 07                	mov    (%edi),%eax
  416c55:	6a 00                	push   $0x0
  416c57:	8b 70 70             	mov    0x70(%eax),%esi
  416c5a:	8d 45 10             	lea    0x10(%ebp),%eax
  416c5d:	50                   	push   %eax
  416c5e:	ff 75 0c             	push   0xc(%ebp)
  416c61:	8b ce                	mov    %esi,%ecx
  416c63:	ff 75 d4             	push   -0x2c(%ebp)
  416c66:	ff 15 00 10 42 00    	call   *0x421000
  416c6c:	8b cf                	mov    %edi,%ecx
  416c6e:	ff d6                	call   *%esi
  416c70:	8b 4d f4             	mov    -0xc(%ebp),%ecx
  416c73:	84 c0                	test   %al,%al
  416c75:	0f 84 de fe ff ff    	je     0x416b59
  416c7b:	c7 45 dc 01 00 00 00 	movl   $0x1,-0x24(%ebp)
  416c82:	e9 d2 fe ff ff       	jmp    0x416b59
  416c87:	5f                   	pop    %edi
  416c88:	5e                   	pop    %esi
  416c89:	33 c0                	xor    %eax,%eax
  416c8b:	5b                   	pop    %ebx
  416c8c:	8b e5                	mov    %ebp,%esp
  416c8e:	5d                   	pop    %ebp
  416c8f:	c3                   	ret
  416c90:	cc                   	int3
  416c91:	cc                   	int3
  416c92:	cc                   	int3
  416c93:	cc                   	int3
  416c94:	cc                   	int3
  416c95:	cc                   	int3
  416c96:	cc                   	int3
  416c97:	cc                   	int3
  416c98:	cc                   	int3
  416c99:	cc                   	int3
  416c9a:	cc                   	int3
  416c9b:	cc                   	int3
  416c9c:	cc                   	int3
  416c9d:	cc                   	int3
  416c9e:	cc                   	int3
  416c9f:	cc                   	int3
  416ca0:	cc                   	int3
  416ca1:	cc                   	int3
  416ca2:	cc                   	int3
  416ca3:	cc                   	int3
  416ca4:	cc                   	int3
  416ca5:	cc                   	int3
  416ca6:	cc                   	int3
  416ca7:	cc                   	int3
  416ca8:	cc                   	int3
  416ca9:	cc                   	int3
  416caa:	cc                   	int3
  416cab:	cc                   	int3
  416cac:	cc                   	int3
  416cad:	cc                   	int3
  416cae:	cc                   	int3
  416caf:	cc                   	int3
  416cb0:	cc                   	int3
  416cb1:	cc                   	int3
  416cb2:	cc                   	int3
  416cb3:	cc                   	int3
  416cb4:	cc                   	int3
  416cb5:	cc                   	int3
  416cb6:	cc                   	int3
  416cb7:	cc                   	int3
  416cb8:	cc                   	int3
  416cb9:	cc                   	int3
  416cba:	cc                   	int3
  416cbb:	cc                   	int3
  416cbc:	cc                   	int3
  416cbd:	cc                   	int3
  416cbe:	cc                   	int3
  416cbf:	cc                   	int3
  416cc0:	cc                   	int3
  416cc1:	cc                   	int3
  416cc2:	cc                   	int3
  416cc3:	cc                   	int3
  416cc4:	cc                   	int3
  416cc5:	cc                   	int3
  416cc6:	cc                   	int3
  416cc7:	cc                   	int3
  416cc8:	cc                   	int3
  416cc9:	cc                   	int3
  416cca:	cc                   	int3
  416ccb:	cc                   	int3
  416ccc:	cc                   	int3
  416ccd:	cc                   	int3
  416cce:	cc                   	int3
  416ccf:	cc                   	int3
  416cd0:	cc                   	int3
  416cd1:	cc                   	int3
  416cd2:	cc                   	int3
  416cd3:	cc                   	int3
  416cd4:	cc                   	int3
  416cd5:	cc                   	int3
  416cd6:	cc                   	int3
  416cd7:	cc                   	int3
  416cd8:	cc                   	int3
  416cd9:	cc                   	int3
  416cda:	cc                   	int3
  416cdb:	cc                   	int3
  416cdc:	cc                   	int3
  416cdd:	cc                   	int3
  416cde:	cc                   	int3
  416cdf:	cc                   	int3
  416ce0:	cc                   	int3
  416ce1:	cc                   	int3
  416ce2:	cc                   	int3
  416ce3:	cc                   	int3
  416ce4:	cc                   	int3
  416ce5:	cc                   	int3
  416ce6:	cc                   	int3
  416ce7:	cc                   	int3
  416ce8:	cc                   	int3
  416ce9:	cc                   	int3
  416cea:	cc                   	int3
  416ceb:	cc                   	int3
  416cec:	cc                   	int3
  416ced:	cc                   	int3
  416cee:	cc                   	int3
  416cef:	cc                   	int3
  416cf0:	cc                   	int3
  416cf1:	cc                   	int3
  416cf2:	cc                   	int3
  416cf3:	cc                   	int3
  416cf4:	cc                   	int3
  416cf5:	cc                   	int3
  416cf6:	cc                   	int3
  416cf7:	cc                   	int3
  416cf8:	cc                   	int3
  416cf9:	cc                   	int3
  416cfa:	cc                   	int3
  416cfb:	cc                   	int3
  416cfc:	cc                   	int3
  416cfd:	cc                   	int3
  416cfe:	cc                   	int3
  416cff:	cc                   	int3
  416d00:	cc                   	int3
  416d01:	cc                   	int3
  416d02:	cc                   	int3
  416d03:	cc                   	int3
  416d04:	cc                   	int3
  416d05:	cc                   	int3
  416d06:	cc                   	int3
  416d07:	cc                   	int3
  416d08:	cc                   	int3
  416d09:	cc                   	int3
  416d0a:	cc                   	int3
  416d0b:	cc                   	int3
  416d0c:	cc                   	int3
  416d0d:	cc                   	int3
  416d0e:	cc                   	int3
  416d0f:	cc                   	int3
  416d10:	cc                   	int3
  416d11:	cc                   	int3
  416d12:	cc                   	int3
  416d13:	cc                   	int3
  416d14:	cc                   	int3
  416d15:	cc                   	int3
  416d16:	cc                   	int3
  416d17:	cc                   	int3
  416d18:	cc                   	int3
  416d19:	cc                   	int3
  416d1a:	cc                   	int3
  416d1b:	cc                   	int3
  416d1c:	cc                   	int3
  416d1d:	cc                   	int3
  416d1e:	cc                   	int3
  416d1f:	cc                   	int3
  416d20:	cc                   	int3
  416d21:	cc                   	int3
  416d22:	cc                   	int3
  416d23:	cc                   	int3
  416d24:	cc                   	int3
  416d25:	cc                   	int3
  416d26:	cc                   	int3
  416d27:	cc                   	int3
  416d28:	cc                   	int3
  416d29:	cc                   	int3
  416d2a:	cc                   	int3
  416d2b:	cc                   	int3
  416d2c:	cc                   	int3
  416d2d:	cc                   	int3
  416d2e:	cc                   	int3
  416d2f:	cc                   	int3
  416d30:	cc                   	int3
  416d31:	cc                   	int3
  416d32:	cc                   	int3
  416d33:	cc                   	int3
  416d34:	cc                   	int3
  416d35:	cc                   	int3
  416d36:	cc                   	int3
  416d37:	cc                   	int3
  416d38:	cc                   	int3
  416d39:	cc                   	int3
  416d3a:	cc                   	int3
  416d3b:	cc                   	int3
  416d3c:	cc                   	int3
  416d3d:	cc                   	int3
  416d3e:	cc                   	int3
  416d3f:	cc                   	int3
  416d40:	cc                   	int3
  416d41:	cc                   	int3
  416d42:	cc                   	int3
  416d43:	cc                   	int3
  416d44:	cc                   	int3
  416d45:	cc                   	int3
  416d46:	cc                   	int3
  416d47:	cc                   	int3
  416d48:	cc                   	int3
  416d49:	cc                   	int3
  416d4a:	cc                   	int3
  416d4b:	cc                   	int3
  416d4c:	cc                   	int3
  416d4d:	cc                   	int3
  416d4e:	cc                   	int3
  416d4f:	cc                   	int3
  416d50:	cc                   	int3
  416d51:	cc                   	int3
  416d52:	cc                   	int3
  416d53:	cc                   	int3
  416d54:	cc                   	int3
  416d55:	cc                   	int3
  416d56:	cc                   	int3
  416d57:	cc                   	int3
  416d58:	cc                   	int3
  416d59:	cc                   	int3
  416d5a:	cc                   	int3
  416d5b:	cc                   	int3
  416d5c:	cc                   	int3
  416d5d:	cc                   	int3
  416d5e:	cc                   	int3
  416d5f:	cc                   	int3
  416d60:	cc                   	int3
  416d61:	cc                   	int3
  416d62:	cc                   	int3
  416d63:	cc                   	int3
  416d64:	cc                   	int3
  416d65:	cc                   	int3
  416d66:	cc                   	int3
  416d67:	cc                   	int3
  416d68:	cc                   	int3
  416d69:	cc                   	int3
  416d6a:	cc                   	int3
  416d6b:	cc                   	int3
  416d6c:	cc                   	int3
  416d6d:	cc                   	int3
  416d6e:	cc                   	int3
  416d6f:	cc                   	int3
  416d70:	55                   	push   %ebp
  416d71:	8b ec                	mov    %esp,%ebp
  416d73:	51                   	push   %ecx
  416d74:	8b 45 14             	mov    0x14(%ebp),%eax
  416d77:	50                   	push   %eax
  416d78:	8b 4d 10             	mov    0x10(%ebp),%ecx
  416d7b:	51                   	push   %ecx
  416d7c:	8b 55 0c             	mov    0xc(%ebp),%edx
  416d7f:	52                   	push   %edx
  416d80:	8b 45 08             	mov    0x8(%ebp),%eax
  416d83:	50                   	push   %eax
  416d84:	e8 b7 f2 ff ff       	call   0x416040
  416d89:	83 c4 10             	add    $0x10,%esp
  416d8c:	89 45 fc             	mov    %eax,-0x4(%ebp)
  416d8f:	8b 4d 08             	mov    0x8(%ebp),%ecx
  416d92:	8b 51 04             	mov    0x4(%ecx),%edx
  416d95:	83 e2 66             	and    $0x66,%edx
  416d98:	75 2a                	jne    0x416dc4
  416d9a:	8b 45 08             	mov    0x8(%ebp),%eax
  416d9d:	81 38 63 73 6d e0    	cmpl   $0xe06d7363,(%eax)
  416da3:	75 1f                	jne    0x416dc4
  416da5:	83 7d fc 01          	cmpl   $0x1,-0x4(%ebp)
  416da9:	75 19                	jne    0x416dc4
  416dab:	e8 45 a3 ff ff       	call   0x4110f5
  416db0:	8b 4d 08             	mov    0x8(%ebp),%ecx
  416db3:	89 08                	mov    %ecx,(%eax)
  416db5:	e8 5b a6 ff ff       	call   0x411415
  416dba:	8b 55 10             	mov    0x10(%ebp),%edx
  416dbd:	89 10                	mov    %edx,(%eax)
  416dbf:	e8 41 a2 ff ff       	call   0x411005
  416dc4:	8b 45 fc             	mov    -0x4(%ebp),%eax
  416dc7:	8b e5                	mov    %ebp,%esp
  416dc9:	5d                   	pop    %ebp
  416dca:	c3                   	ret
  416dcb:	cc                   	int3
  416dcc:	cc                   	int3
  416dcd:	cc                   	int3
  416dce:	cc                   	int3
  416dcf:	cc                   	int3
  416dd0:	cc                   	int3
  416dd1:	cc                   	int3
  416dd2:	cc                   	int3
  416dd3:	cc                   	int3
  416dd4:	cc                   	int3
  416dd5:	cc                   	int3
  416dd6:	cc                   	int3
  416dd7:	cc                   	int3
  416dd8:	cc                   	int3
  416dd9:	cc                   	int3
  416dda:	cc                   	int3
  416ddb:	cc                   	int3
  416ddc:	cc                   	int3
  416ddd:	cc                   	int3
  416dde:	cc                   	int3
  416ddf:	cc                   	int3
  416de0:	cc                   	int3
  416de1:	cc                   	int3
  416de2:	cc                   	int3
  416de3:	cc                   	int3
  416de4:	cc                   	int3
  416de5:	cc                   	int3
  416de6:	cc                   	int3
  416de7:	cc                   	int3
  416de8:	cc                   	int3
  416de9:	cc                   	int3
  416dea:	cc                   	int3
  416deb:	cc                   	int3
  416dec:	cc                   	int3
  416ded:	cc                   	int3
  416dee:	cc                   	int3
  416def:	cc                   	int3
  416df0:	55                   	push   %ebp
  416df1:	8b ec                	mov    %esp,%ebp
  416df3:	83 ec 48             	sub    $0x48,%esp
  416df6:	a1 00 d0 41 00       	mov    0x41d000,%eax
  416dfb:	33 c5                	xor    %ebp,%eax
  416dfd:	89 45 fc             	mov    %eax,-0x4(%ebp)
  416e00:	53                   	push   %ebx
  416e01:	56                   	push   %esi
  416e02:	c7 05 70 d5 41 00 00 	movl   $0x0,0x41d570
  416e09:	00 00 00 
  416e0c:	a1 2c d0 41 00       	mov    0x41d02c,%eax
  416e11:	83 c8 01             	or     $0x1,%eax
  416e14:	a3 2c d0 41 00       	mov    %eax,0x41d02c
  416e19:	6a 0a                	push   $0xa
  416e1b:	ff 15 44 e0 41 00    	call   *0x41e044
  416e21:	85 c0                	test   %eax,%eax
  416e23:	75 07                	jne    0x416e2c
  416e25:	33 c0                	xor    %eax,%eax
  416e27:	e9 e7 02 00 00       	jmp    0x417113
  416e2c:	c7 45 f0 00 00 00 00 	movl   $0x0,-0x10(%ebp)
  416e33:	c7 45 f4 00 00 00 00 	movl   $0x0,-0xc(%ebp)
  416e3a:	c7 45 f8 00 00 00 00 	movl   $0x0,-0x8(%ebp)
  416e41:	8d 75 e0             	lea    -0x20(%ebp),%esi
  416e44:	33 c0                	xor    %eax,%eax
  416e46:	33 c9                	xor    %ecx,%ecx
  416e48:	0f a2                	cpuid
  416e4a:	89 06                	mov    %eax,(%esi)
  416e4c:	89 5e 04             	mov    %ebx,0x4(%esi)
  416e4f:	89 4e 08             	mov    %ecx,0x8(%esi)
  416e52:	89 56 0c             	mov    %edx,0xc(%esi)
  416e55:	b9 04 00 00 00       	mov    $0x4,%ecx
  416e5a:	6b d1 00             	imul   $0x0,%ecx,%edx
  416e5d:	8b 44 15 e0          	mov    -0x20(%ebp,%edx,1),%eax
  416e61:	89 45 c8             	mov    %eax,-0x38(%ebp)
  416e64:	b9 04 00 00 00       	mov    $0x4,%ecx
  416e69:	c1 e1 00             	shl    $0x0,%ecx
  416e6c:	8b 54 0d e0          	mov    -0x20(%ebp,%ecx,1),%edx
  416e70:	81 f2 47 65 6e 75    	xor    $0x756e6547,%edx
  416e76:	b8 04 00 00 00       	mov    $0x4,%eax
  416e7b:	6b c8 03             	imul   $0x3,%eax,%ecx
  416e7e:	8b 44 0d e0          	mov    -0x20(%ebp,%ecx,1),%eax
  416e82:	35 69 6e 65 49       	xor    $0x49656e69,%eax
  416e87:	0b d0                	or     %eax,%edx
  416e89:	b9 04 00 00 00       	mov    $0x4,%ecx
  416e8e:	d1 e1                	shl    %ecx
  416e90:	8b 44 0d e0          	mov    -0x20(%ebp,%ecx,1),%eax
  416e94:	35 6e 74 65 6c       	xor    $0x6c65746e,%eax
  416e99:	0b d0                	or     %eax,%edx
  416e9b:	75 09                	jne    0x416ea6
  416e9d:	c7 45 d4 01 00 00 00 	movl   $0x1,-0x2c(%ebp)
  416ea4:	eb 07                	jmp    0x416ead
  416ea6:	c7 45 d4 00 00 00 00 	movl   $0x0,-0x2c(%ebp)
  416ead:	8a 4d d4             	mov    -0x2c(%ebp),%cl
  416eb0:	88 4d df             	mov    %cl,-0x21(%ebp)
  416eb3:	8d 75 e0             	lea    -0x20(%ebp),%esi
  416eb6:	b8 01 00 00 00       	mov    $0x1,%eax
  416ebb:	33 c9                	xor    %ecx,%ecx
  416ebd:	0f a2                	cpuid
  416ebf:	89 06                	mov    %eax,(%esi)
  416ec1:	89 5e 04             	mov    %ebx,0x4(%esi)
  416ec4:	89 4e 08             	mov    %ecx,0x8(%esi)
  416ec7:	89 56 0c             	mov    %edx,0xc(%esi)
  416eca:	ba 04 00 00 00       	mov    $0x4,%edx
  416ecf:	6b c2 00             	imul   $0x0,%edx,%eax
  416ed2:	8b 4c 05 e0          	mov    -0x20(%ebp,%eax,1),%ecx
  416ed6:	89 4d d8             	mov    %ecx,-0x28(%ebp)
  416ed9:	0f b6 55 df          	movzbl -0x21(%ebp),%edx
  416edd:	85 d2                	test   %edx,%edx
  416edf:	74 6f                	je     0x416f50
  416ee1:	8b 45 d8             	mov    -0x28(%ebp),%eax
  416ee4:	25 f0 3f ff 0f       	and    $0xfff3ff0,%eax
  416ee9:	3d c0 06 01 00       	cmp    $0x106c0,%eax
  416eee:	74 53                	je     0x416f43
  416ef0:	8b 4d d8             	mov    -0x28(%ebp),%ecx
  416ef3:	81 e1 f0 3f ff 0f    	and    $0xfff3ff0,%ecx
  416ef9:	81 f9 60 06 02 00    	cmp    $0x20660,%ecx
  416eff:	74 42                	je     0x416f43
  416f01:	8b 55 d8             	mov    -0x28(%ebp),%edx
  416f04:	81 e2 f0 3f ff 0f    	and    $0xfff3ff0,%edx
  416f0a:	81 fa 70 06 02 00    	cmp    $0x20670,%edx
  416f10:	74 31                	je     0x416f43
  416f12:	8b 45 d8             	mov    -0x28(%ebp),%eax
  416f15:	25 f0 3f ff 0f       	and    $0xfff3ff0,%eax
  416f1a:	3d 50 06 03 00       	cmp    $0x30650,%eax
  416f1f:	74 22                	je     0x416f43
  416f21:	8b 4d d8             	mov    -0x28(%ebp),%ecx
  416f24:	81 e1 f0 3f ff 0f    	and    $0xfff3ff0,%ecx
  416f2a:	81 f9 60 06 03 00    	cmp    $0x30660,%ecx
  416f30:	74 11                	je     0x416f43
  416f32:	8b 55 d8             	mov    -0x28(%ebp),%edx
  416f35:	81 e2 f0 3f ff 0f    	and    $0xfff3ff0,%edx
  416f3b:	81 fa 70 06 03 00    	cmp    $0x30670,%edx
  416f41:	75 0d                	jne    0x416f50
  416f43:	a1 74 d5 41 00       	mov    0x41d574,%eax
  416f48:	83 c8 01             	or     $0x1,%eax
  416f4b:	a3 74 d5 41 00       	mov    %eax,0x41d574
  416f50:	b9 04 00 00 00       	mov    $0x4,%ecx
  416f55:	6b d1 03             	imul   $0x3,%ecx,%edx
  416f58:	b8 04 00 00 00       	mov    $0x4,%eax
  416f5d:	6b c8 00             	imul   $0x0,%eax,%ecx
  416f60:	8b 54 15 e0          	mov    -0x20(%ebp,%edx,1),%edx
  416f64:	89 54 0d f0          	mov    %edx,-0x10(%ebp,%ecx,1)
  416f68:	b8 04 00 00 00       	mov    $0x4,%eax
  416f6d:	d1 e0                	shl    %eax
  416f6f:	b9 04 00 00 00       	mov    $0x4,%ecx
  416f74:	c1 e1 00             	shl    $0x0,%ecx
  416f77:	8b 54 05 e0          	mov    -0x20(%ebp,%eax,1),%edx
  416f7b:	89 54 0d f0          	mov    %edx,-0x10(%ebp,%ecx,1)
  416f7f:	83 7d c8 07          	cmpl   $0x7,-0x38(%ebp)
  416f83:	7c 51                	jl     0x416fd6
  416f85:	8d 75 e0             	lea    -0x20(%ebp),%esi
  416f88:	b8 07 00 00 00       	mov    $0x7,%eax
  416f8d:	33 c9                	xor    %ecx,%ecx
  416f8f:	0f a2                	cpuid
  416f91:	89 06                	mov    %eax,(%esi)
  416f93:	89 5e 04             	mov    %ebx,0x4(%esi)
  416f96:	89 4e 08             	mov    %ecx,0x8(%esi)
  416f99:	89 56 0c             	mov    %edx,0xc(%esi)
  416f9c:	b8 04 00 00 00       	mov    $0x4,%eax
  416fa1:	c1 e0 00             	shl    $0x0,%eax
  416fa4:	b9 04 00 00 00       	mov    $0x4,%ecx
  416fa9:	d1 e1                	shl    %ecx
  416fab:	8b 54 05 e0          	mov    -0x20(%ebp,%eax,1),%edx
  416faf:	89 54 0d f0          	mov    %edx,-0x10(%ebp,%ecx,1)
  416fb3:	b8 04 00 00 00       	mov    $0x4,%eax
  416fb8:	c1 e0 00             	shl    $0x0,%eax
  416fbb:	8b 4c 05 e0          	mov    -0x20(%ebp,%eax,1),%ecx
  416fbf:	81 e1 00 02 00 00    	and    $0x200,%ecx
  416fc5:	74 0f                	je     0x416fd6
  416fc7:	8b 15 74 d5 41 00    	mov    0x41d574,%edx
  416fcd:	83 ca 02             	or     $0x2,%edx
  416fd0:	89 15 74 d5 41 00    	mov    %edx,0x41d574
  416fd6:	c7 05 70 d5 41 00 01 	movl   $0x1,0x41d570
  416fdd:	00 00 00 
  416fe0:	a1 2c d0 41 00       	mov    0x41d02c,%eax
  416fe5:	83 c8 02             	or     $0x2,%eax
  416fe8:	a3 2c d0 41 00       	mov    %eax,0x41d02c
  416fed:	b9 04 00 00 00       	mov    $0x4,%ecx
  416ff2:	c1 e1 00             	shl    $0x0,%ecx
  416ff5:	8b 54 0d f0          	mov    -0x10(%ebp,%ecx,1),%edx
  416ff9:	81 e2 00 00 10 00    	and    $0x100000,%edx
  416fff:	0f 84 0c 01 00 00    	je     0x417111
  417005:	c7 05 70 d5 41 00 02 	movl   $0x2,0x41d570
  41700c:	00 00 00 
  41700f:	a1 2c d0 41 00       	mov    0x41d02c,%eax
  417014:	83 c8 04             	or     $0x4,%eax
  417017:	a3 2c d0 41 00       	mov    %eax,0x41d02c
  41701c:	b9 04 00 00 00       	mov    $0x4,%ecx
  417021:	c1 e1 00             	shl    $0x0,%ecx
  417024:	8b 54 0d f0          	mov    -0x10(%ebp,%ecx,1),%edx
  417028:	81 e2 00 00 00 08    	and    $0x8000000,%edx
  41702e:	0f 84 dd 00 00 00    	je     0x417111
  417034:	b8 04 00 00 00       	mov    $0x4,%eax
  417039:	c1 e0 00             	shl    $0x0,%eax
  41703c:	8b 4c 05 f0          	mov    -0x10(%ebp,%eax,1),%ecx
  417040:	81 e1 00 00 00 10    	and    $0x10000000,%ecx
  417046:	0f 84 c5 00 00 00    	je     0x417111
  41704c:	33 c9                	xor    %ecx,%ecx
  41704e:	0f 01 d0             	xgetbv
  417051:	89 45 cc             	mov    %eax,-0x34(%ebp)
  417054:	89 55 d0             	mov    %edx,-0x30(%ebp)
  417057:	8b 55 cc             	mov    -0x34(%ebp),%edx
  41705a:	8b 45 d0             	mov    -0x30(%ebp),%eax
  41705d:	83 e2 06             	and    $0x6,%edx
  417060:	83 e0 00             	and    $0x0,%eax
  417063:	89 55 c0             	mov    %edx,-0x40(%ebp)
  417066:	89 45 c4             	mov    %eax,-0x3c(%ebp)
  417069:	83 7d c0 06          	cmpl   $0x6,-0x40(%ebp)
  41706d:	0f 85 9e 00 00 00    	jne    0x417111
  417073:	83 7d c4 00          	cmpl   $0x0,-0x3c(%ebp)
  417077:	0f 85 94 00 00 00    	jne    0x417111
  41707d:	c7 05 70 d5 41 00 03 	movl   $0x3,0x41d570
  417084:	00 00 00 
  417087:	8b 0d 2c d0 41 00    	mov    0x41d02c,%ecx
  41708d:	83 c9 08             	or     $0x8,%ecx
  417090:	89 0d 2c d0 41 00    	mov    %ecx,0x41d02c
  417096:	ba 04 00 00 00       	mov    $0x4,%edx
  41709b:	d1 e2                	shl    %edx
  41709d:	8b 44 15 f0          	mov    -0x10(%ebp,%edx,1),%eax
  4170a1:	83 e0 20             	and    $0x20,%eax
  4170a4:	74 6b                	je     0x417111
  4170a6:	c7 05 70 d5 41 00 05 	movl   $0x5,0x41d570
  4170ad:	00 00 00 
  4170b0:	8b 0d 2c d0 41 00    	mov    0x41d02c,%ecx
  4170b6:	83 c9 20             	or     $0x20,%ecx
  4170b9:	89 0d 2c d0 41 00    	mov    %ecx,0x41d02c
  4170bf:	ba 04 00 00 00       	mov    $0x4,%edx
  4170c4:	d1 e2                	shl    %edx
  4170c6:	8b 44 15 f0          	mov    -0x10(%ebp,%edx,1),%eax
  4170ca:	25 00 00 03 d0       	and    $0xd0030000,%eax
  4170cf:	3d 00 00 03 d0       	cmp    $0xd0030000,%eax
  4170d4:	75 3b                	jne    0x417111
  4170d6:	8b 4d cc             	mov    -0x34(%ebp),%ecx
  4170d9:	8b 55 d0             	mov    -0x30(%ebp),%edx
  4170dc:	81 e1 e0 00 00 00    	and    $0xe0,%ecx
  4170e2:	83 e2 00             	and    $0x0,%edx
  4170e5:	89 4d b8             	mov    %ecx,-0x48(%ebp)
  4170e8:	89 55 bc             	mov    %edx,-0x44(%ebp)
  4170eb:	81 7d b8 e0 00 00 00 	cmpl   $0xe0,-0x48(%ebp)
  4170f2:	75 1d                	jne    0x417111
  4170f4:	83 7d bc 00          	cmpl   $0x0,-0x44(%ebp)
  4170f8:	75 17                	jne    0x417111
  4170fa:	c7 05 70 d5 41 00 06 	movl   $0x6,0x41d570
  417101:	00 00 00 
  417104:	a1 2c d0 41 00       	mov    0x41d02c,%eax
  417109:	83 c8 40             	or     $0x40,%eax
  41710c:	a3 2c d0 41 00       	mov    %eax,0x41d02c
  417111:	33 c0                	xor    %eax,%eax
  417113:	5e                   	pop    %esi
  417114:	5b                   	pop    %ebx
  417115:	8b 4d fc             	mov    -0x4(%ebp),%ecx
  417118:	33 cd                	xor    %ebp,%ecx
  41711a:	e8 85 a0 ff ff       	call   0x4111a4
  41711f:	8b e5                	mov    %ebp,%esp
  417121:	5d                   	pop    %ebp
  417122:	c3                   	ret
  417123:	cc                   	int3
  417124:	cc                   	int3
  417125:	cc                   	int3
  417126:	cc                   	int3
  417127:	cc                   	int3
  417128:	cc                   	int3
  417129:	cc                   	int3
  41712a:	cc                   	int3
  41712b:	cc                   	int3
  41712c:	cc                   	int3
  41712d:	cc                   	int3
  41712e:	cc                   	int3
  41712f:	cc                   	int3
  417130:	cc                   	int3
  417131:	cc                   	int3
  417132:	cc                   	int3
  417133:	cc                   	int3
  417134:	cc                   	int3
  417135:	cc                   	int3
  417136:	cc                   	int3
  417137:	cc                   	int3
  417138:	cc                   	int3
  417139:	cc                   	int3
  41713a:	cc                   	int3
  41713b:	cc                   	int3
  41713c:	cc                   	int3
  41713d:	cc                   	int3
  41713e:	cc                   	int3
  41713f:	cc                   	int3
  417140:	cc                   	int3
  417141:	cc                   	int3
  417142:	cc                   	int3
  417143:	cc                   	int3
  417144:	cc                   	int3
  417145:	cc                   	int3
  417146:	cc                   	int3
  417147:	cc                   	int3
  417148:	cc                   	int3
  417149:	cc                   	int3
  41714a:	cc                   	int3
  41714b:	cc                   	int3
  41714c:	cc                   	int3
  41714d:	cc                   	int3
  41714e:	cc                   	int3
  41714f:	cc                   	int3
  417150:	cc                   	int3
  417151:	cc                   	int3
  417152:	cc                   	int3
  417153:	cc                   	int3
  417154:	cc                   	int3
  417155:	cc                   	int3
  417156:	cc                   	int3
  417157:	cc                   	int3
  417158:	cc                   	int3
  417159:	cc                   	int3
  41715a:	cc                   	int3
  41715b:	cc                   	int3
  41715c:	cc                   	int3
  41715d:	cc                   	int3
  41715e:	cc                   	int3
  41715f:	cc                   	int3
  417160:	cc                   	int3
  417161:	cc                   	int3
  417162:	cc                   	int3
  417163:	cc                   	int3
  417164:	cc                   	int3
  417165:	cc                   	int3
  417166:	cc                   	int3
  417167:	cc                   	int3
  417168:	cc                   	int3
  417169:	cc                   	int3
  41716a:	cc                   	int3
  41716b:	cc                   	int3
  41716c:	cc                   	int3
  41716d:	cc                   	int3
  41716e:	cc                   	int3
  41716f:	cc                   	int3
  417170:	cc                   	int3
  417171:	cc                   	int3
  417172:	cc                   	int3
  417173:	cc                   	int3
  417174:	cc                   	int3
  417175:	cc                   	int3
  417176:	cc                   	int3
  417177:	cc                   	int3
  417178:	cc                   	int3
  417179:	cc                   	int3
  41717a:	cc                   	int3
  41717b:	cc                   	int3
  41717c:	cc                   	int3
  41717d:	cc                   	int3
  41717e:	cc                   	int3
  41717f:	cc                   	int3
  417180:	cc                   	int3
  417181:	cc                   	int3
  417182:	cc                   	int3
  417183:	cc                   	int3
  417184:	cc                   	int3
  417185:	cc                   	int3
  417186:	cc                   	int3
  417187:	cc                   	int3
  417188:	cc                   	int3
  417189:	cc                   	int3
  41718a:	cc                   	int3
  41718b:	cc                   	int3
  41718c:	cc                   	int3
  41718d:	cc                   	int3
  41718e:	cc                   	int3
  41718f:	cc                   	int3
  417190:	cc                   	int3
  417191:	cc                   	int3
  417192:	cc                   	int3
  417193:	cc                   	int3
  417194:	cc                   	int3
  417195:	cc                   	int3
  417196:	cc                   	int3
  417197:	cc                   	int3
  417198:	cc                   	int3
  417199:	cc                   	int3
  41719a:	cc                   	int3
  41719b:	cc                   	int3
  41719c:	cc                   	int3
  41719d:	cc                   	int3
  41719e:	cc                   	int3
  41719f:	cc                   	int3
  4171a0:	cc                   	int3
  4171a1:	cc                   	int3
  4171a2:	cc                   	int3
  4171a3:	cc                   	int3
  4171a4:	cc                   	int3
  4171a5:	cc                   	int3
  4171a6:	cc                   	int3
  4171a7:	cc                   	int3
  4171a8:	cc                   	int3
  4171a9:	cc                   	int3
  4171aa:	cc                   	int3
  4171ab:	cc                   	int3
  4171ac:	cc                   	int3
  4171ad:	cc                   	int3
  4171ae:	cc                   	int3
  4171af:	cc                   	int3
  4171b0:	cc                   	int3
  4171b1:	cc                   	int3
  4171b2:	cc                   	int3
  4171b3:	cc                   	int3
  4171b4:	cc                   	int3
  4171b5:	cc                   	int3
  4171b6:	cc                   	int3
  4171b7:	cc                   	int3
  4171b8:	cc                   	int3
  4171b9:	cc                   	int3
  4171ba:	cc                   	int3
  4171bb:	cc                   	int3
  4171bc:	cc                   	int3
  4171bd:	cc                   	int3
  4171be:	cc                   	int3
  4171bf:	cc                   	int3
  4171c0:	cc                   	int3
  4171c1:	cc                   	int3
  4171c2:	cc                   	int3
  4171c3:	cc                   	int3
  4171c4:	cc                   	int3
  4171c5:	cc                   	int3
  4171c6:	cc                   	int3
  4171c7:	cc                   	int3
  4171c8:	cc                   	int3
  4171c9:	cc                   	int3
  4171ca:	cc                   	int3
  4171cb:	cc                   	int3
  4171cc:	cc                   	int3
  4171cd:	cc                   	int3
  4171ce:	cc                   	int3
  4171cf:	cc                   	int3
  4171d0:	cc                   	int3
  4171d1:	cc                   	int3
  4171d2:	cc                   	int3
  4171d3:	cc                   	int3
  4171d4:	cc                   	int3
  4171d5:	cc                   	int3
  4171d6:	cc                   	int3
  4171d7:	cc                   	int3
  4171d8:	cc                   	int3
  4171d9:	cc                   	int3
  4171da:	cc                   	int3
  4171db:	cc                   	int3
  4171dc:	cc                   	int3
  4171dd:	cc                   	int3
  4171de:	cc                   	int3
  4171df:	cc                   	int3
  4171e0:	cc                   	int3
  4171e1:	cc                   	int3
  4171e2:	cc                   	int3
  4171e3:	cc                   	int3
  4171e4:	cc                   	int3
  4171e5:	cc                   	int3
  4171e6:	cc                   	int3
  4171e7:	cc                   	int3
  4171e8:	cc                   	int3
  4171e9:	cc                   	int3
  4171ea:	cc                   	int3
  4171eb:	cc                   	int3
  4171ec:	cc                   	int3
  4171ed:	cc                   	int3
  4171ee:	cc                   	int3
  4171ef:	cc                   	int3
  4171f0:	55                   	push   %ebp
  4171f1:	8b ec                	mov    %esp,%ebp
  4171f3:	51                   	push   %ecx
  4171f4:	83 3d 30 d0 41 00 00 	cmpl   $0x0,0x41d030
  4171fb:	74 09                	je     0x417206
  4171fd:	c7 45 fc 01 00 00 00 	movl   $0x1,-0x4(%ebp)
  417204:	eb 07                	jmp    0x41720d
  417206:	c7 45 fc 00 00 00 00 	movl   $0x0,-0x4(%ebp)
  41720d:	8b 45 fc             	mov    -0x4(%ebp),%eax
  417210:	8b e5                	mov    %ebp,%esp
  417212:	5d                   	pop    %ebp
  417213:	c3                   	ret
  417214:	cc                   	int3
  417215:	cc                   	int3
  417216:	cc                   	int3
  417217:	cc                   	int3
  417218:	cc                   	int3
  417219:	cc                   	int3
  41721a:	cc                   	int3
  41721b:	cc                   	int3
  41721c:	cc                   	int3
  41721d:	ff 25 38 e1 41 00    	jmp    *0x41e138
  417223:	ff 25 3c e1 41 00    	jmp    *0x41e13c
  417229:	ff 25 40 e1 41 00    	jmp    *0x41e140
  41722f:	ff 25 30 e1 41 00    	jmp    *0x41e130
  417235:	ff 25 4c e1 41 00    	jmp    *0x41e14c
  41723b:	ff 25 2c e1 41 00    	jmp    *0x41e12c
  417241:	ff 25 48 e1 41 00    	jmp    *0x41e148
  417247:	ff 25 34 e1 41 00    	jmp    *0x41e134
  41724d:	ff 25 44 e1 41 00    	jmp    *0x41e144
  417253:	ff 25 10 e2 41 00    	jmp    *0x41e210
  417259:	ff 25 0c e2 41 00    	jmp    *0x41e20c
  41725f:	ff 25 08 e2 41 00    	jmp    *0x41e208
  417265:	ff 25 04 e2 41 00    	jmp    *0x41e204
  41726b:	ff 25 00 e2 41 00    	jmp    *0x41e200
  417271:	ff 25 fc e1 41 00    	jmp    *0x41e1fc
  417277:	ff 25 f8 e1 41 00    	jmp    *0x41e1f8
  41727d:	ff 25 f4 e1 41 00    	jmp    *0x41e1f4
  417283:	ff 25 f0 e1 41 00    	jmp    *0x41e1f0
  417289:	ff 25 ec e1 41 00    	jmp    *0x41e1ec
  41728f:	ff 25 e8 e1 41 00    	jmp    *0x41e1e8
  417295:	ff 25 e4 e1 41 00    	jmp    *0x41e1e4
  41729b:	ff 25 e0 e1 41 00    	jmp    *0x41e1e0
  4172a1:	ff 25 dc e1 41 00    	jmp    *0x41e1dc
  4172a7:	ff 25 d8 e1 41 00    	jmp    *0x41e1d8
  4172ad:	ff 25 1c e2 41 00    	jmp    *0x41e21c
  4172b3:	ff 25 d4 e1 41 00    	jmp    *0x41e1d4
  4172b9:	ff 25 d0 e1 41 00    	jmp    *0x41e1d0
  4172bf:	ff 25 cc e1 41 00    	jmp    *0x41e1cc
  4172c5:	ff 25 c8 e1 41 00    	jmp    *0x41e1c8
  4172cb:	ff 25 c4 e1 41 00    	jmp    *0x41e1c4
  4172d1:	ff 25 94 e1 41 00    	jmp    *0x41e194
  4172d7:	ff 25 14 e2 41 00    	jmp    *0x41e214
  4172dd:	ff 25 80 e1 41 00    	jmp    *0x41e180
  4172e3:	ff 25 84 e1 41 00    	jmp    *0x41e184
  4172e9:	ff 25 88 e1 41 00    	jmp    *0x41e188
  4172ef:	ff 25 8c e1 41 00    	jmp    *0x41e18c
  4172f5:	ff 25 90 e1 41 00    	jmp    *0x41e190
  4172fb:	ff 25 18 e2 41 00    	jmp    *0x41e218
  417301:	ff 25 98 e1 41 00    	jmp    *0x41e198
  417307:	ff 25 9c e1 41 00    	jmp    *0x41e19c
  41730d:	ff 25 a0 e1 41 00    	jmp    *0x41e1a0
  417313:	ff 25 a4 e1 41 00    	jmp    *0x41e1a4
  417319:	ff 25 a8 e1 41 00    	jmp    *0x41e1a8
  41731f:	ff 25 ac e1 41 00    	jmp    *0x41e1ac
  417325:	ff 25 b0 e1 41 00    	jmp    *0x41e1b0
  41732b:	ff 25 b4 e1 41 00    	jmp    *0x41e1b4
  417331:	ff 25 b8 e1 41 00    	jmp    *0x41e1b8
  417337:	ff 25 bc e1 41 00    	jmp    *0x41e1bc
  41733d:	ff 25 c0 e1 41 00    	jmp    *0x41e1c0
  417343:	ff 25 68 e0 41 00    	jmp    *0x41e068
  417349:	ff 25 64 e0 41 00    	jmp    *0x41e064
  41734f:	ff 25 60 e0 41 00    	jmp    *0x41e060
  417355:	ff 25 5c e0 41 00    	jmp    *0x41e05c
  41735b:	ff 25 58 e0 41 00    	jmp    *0x41e058
  417361:	ff 25 54 e0 41 00    	jmp    *0x41e054
  417367:	ff 25 50 e0 41 00    	jmp    *0x41e050
  41736d:	ff 25 4c e0 41 00    	jmp    *0x41e04c
  417373:	ff 25 48 e0 41 00    	jmp    *0x41e048
  417379:	ff 25 44 e0 41 00    	jmp    *0x41e044
  41737f:	ff 25 40 e0 41 00    	jmp    *0x41e040
  417385:	ff 25 3c e0 41 00    	jmp    *0x41e03c
  41738b:	ff 25 38 e0 41 00    	jmp    *0x41e038
  417391:	ff 25 34 e0 41 00    	jmp    *0x41e034
  417397:	ff 25 30 e0 41 00    	jmp    *0x41e030
  41739d:	ff 25 2c e0 41 00    	jmp    *0x41e02c
  4173a3:	ff 25 28 e0 41 00    	jmp    *0x41e028
  4173a9:	ff 25 24 e0 41 00    	jmp    *0x41e024
  4173af:	ff 25 20 e0 41 00    	jmp    *0x41e020
  4173b5:	ff 25 1c e0 41 00    	jmp    *0x41e01c
  4173bb:	ff 25 18 e0 41 00    	jmp    *0x41e018
  4173c1:	ff 25 14 e0 41 00    	jmp    *0x41e014
  4173c7:	ff 25 6c e0 41 00    	jmp    *0x41e06c
  4173cd:	cc                   	int3
  4173ce:	cc                   	int3
  4173cf:	cc                   	int3
  4173d0:	55                   	push   %ebp
  4173d1:	8b ec                	mov    %esp,%ebp
  4173d3:	b0 01                	mov    $0x1,%al
  4173d5:	5d                   	pop    %ebp
  4173d6:	c3                   	ret
  4173d7:	cc                   	int3
  4173d8:	cc                   	int3
  4173d9:	cc                   	int3
  4173da:	cc                   	int3
  4173db:	cc                   	int3
  4173dc:	cc                   	int3
  4173dd:	cc                   	int3
  4173de:	cc                   	int3
  4173df:	cc                   	int3
  4173e0:	55                   	push   %ebp
  4173e1:	8b ec                	mov    %esp,%ebp
  4173e3:	b0 01                	mov    $0x1,%al
  4173e5:	5d                   	pop    %ebp
  4173e6:	c3                   	ret
  4173e7:	cc                   	int3
  4173e8:	cc                   	int3
  4173e9:	cc                   	int3
  4173ea:	cc                   	int3
  4173eb:	cc                   	int3
  4173ec:	cc                   	int3
  4173ed:	cc                   	int3
  4173ee:	cc                   	int3
  4173ef:	cc                   	int3
  4173f0:	55                   	push   %ebp
  4173f1:	8b ec                	mov    %esp,%ebp
  4173f3:	b0 01                	mov    $0x1,%al
  4173f5:	5d                   	pop    %ebp
  4173f6:	c3                   	ret
  4173f7:	cc                   	int3
  4173f8:	cc                   	int3
  4173f9:	cc                   	int3
  4173fa:	cc                   	int3
  4173fb:	cc                   	int3
  4173fc:	cc                   	int3
  4173fd:	cc                   	int3
  4173fe:	cc                   	int3
  4173ff:	cc                   	int3
  417400:	55                   	push   %ebp
  417401:	8b ec                	mov    %esp,%ebp
  417403:	b0 01                	mov    $0x1,%al
  417405:	5d                   	pop    %ebp
  417406:	c3                   	ret
  417407:	cc                   	int3
  417408:	cc                   	int3
  417409:	cc                   	int3
  41740a:	cc                   	int3
  41740b:	cc                   	int3
  41740c:	cc                   	int3
  41740d:	cc                   	int3
  41740e:	cc                   	int3
  41740f:	cc                   	int3
  417410:	55                   	push   %ebp
  417411:	8b ec                	mov    %esp,%ebp
  417413:	b0 01                	mov    $0x1,%al
  417415:	5d                   	pop    %ebp
  417416:	c3                   	ret
  417417:	cc                   	int3
  417418:	cc                   	int3
  417419:	cc                   	int3
  41741a:	cc                   	int3
  41741b:	cc                   	int3
  41741c:	cc                   	int3
  41741d:	cc                   	int3
  41741e:	cc                   	int3
  41741f:	cc                   	int3
  417420:	55                   	push   %ebp
  417421:	8b ec                	mov    %esp,%ebp
  417423:	33 c0                	xor    %eax,%eax
  417425:	5d                   	pop    %ebp
  417426:	c3                   	ret
  417427:	cc                   	int3
  417428:	cc                   	int3
  417429:	cc                   	int3
  41742a:	cc                   	int3
  41742b:	cc                   	int3
  41742c:	cc                   	int3
  41742d:	cc                   	int3
  41742e:	cc                   	int3
  41742f:	cc                   	int3
  417430:	55                   	push   %ebp
  417431:	8b ec                	mov    %esp,%ebp
  417433:	83 ec 54             	sub    $0x54,%esp
  417436:	83 3d 70 d5 41 00 01 	cmpl   $0x1,0x41d570
  41743d:	7d 08                	jge    0x417447
  41743f:	8b 45 08             	mov    0x8(%ebp),%eax
  417442:	e9 19 01 00 00       	jmp    0x417560
  417447:	81 7d 08 b4 02 00 c0 	cmpl   $0xc00002b4,0x8(%ebp)
  41744e:	74 11                	je     0x417461
  417450:	81 7d 08 b5 02 00 c0 	cmpl   $0xc00002b5,0x8(%ebp)
  417457:	74 08                	je     0x417461
  417459:	8b 45 08             	mov    0x8(%ebp),%eax
  41745c:	e9 ff 00 00 00       	jmp    0x417560
  417461:	c7 45 f4 01 00 00 00 	movl   $0x1,-0xc(%ebp)
  417468:	c7 45 f0 02 00 00 00 	movl   $0x2,-0x10(%ebp)
  41746f:	c7 45 ec 04 00 00 00 	movl   $0x4,-0x14(%ebp)
  417476:	c7 45 e8 08 00 00 00 	movl   $0x8,-0x18(%ebp)
  41747d:	c7 45 e4 10 00 00 00 	movl   $0x10,-0x1c(%ebp)
  417484:	c7 45 e0 20 00 00 00 	movl   $0x20,-0x20(%ebp)
  41748b:	c7 45 dc 3f 00 00 00 	movl   $0x3f,-0x24(%ebp)
  417492:	c7 45 d8 80 00 00 00 	movl   $0x80,-0x28(%ebp)
  417499:	c7 45 d4 00 01 00 00 	movl   $0x100,-0x2c(%ebp)
  4174a0:	c7 45 d0 00 02 00 00 	movl   $0x200,-0x30(%ebp)
  4174a7:	c7 45 cc 00 04 00 00 	movl   $0x400,-0x34(%ebp)
  4174ae:	c7 45 c8 00 08 00 00 	movl   $0x800,-0x38(%ebp)
  4174b5:	c7 45 c4 00 10 00 00 	movl   $0x1000,-0x3c(%ebp)
  4174bc:	c7 45 c0 81 00 00 00 	movl   $0x81,-0x40(%ebp)
  4174c3:	c7 45 bc 02 01 00 00 	movl   $0x102,-0x44(%ebp)
  4174ca:	c7 45 b8 04 02 00 00 	movl   $0x204,-0x48(%ebp)
  4174d1:	c7 45 b4 08 04 00 00 	movl   $0x408,-0x4c(%ebp)
  4174d8:	c7 45 b0 10 08 00 00 	movl   $0x810,-0x50(%ebp)
  4174df:	c7 45 ac 20 10 00 00 	movl   $0x1020,-0x54(%ebp)
  4174e6:	0f ae 5d f8          	stmxcsr -0x8(%ebp)
  4174ea:	8b 45 f8             	mov    -0x8(%ebp),%eax
  4174ed:	83 f0 3f             	xor    $0x3f,%eax
  4174f0:	89 45 fc             	mov    %eax,-0x4(%ebp)
  4174f3:	8b 4d fc             	mov    -0x4(%ebp),%ecx
  4174f6:	81 e1 81 00 00 00    	and    $0x81,%ecx
  4174fc:	75 07                	jne    0x417505
  4174fe:	b8 90 00 00 c0       	mov    $0xc0000090,%eax
  417503:	eb 5b                	jmp    0x417560
  417505:	8b 55 fc             	mov    -0x4(%ebp),%edx
  417508:	81 e2 04 02 00 00    	and    $0x204,%edx
  41750e:	75 07                	jne    0x417517
  417510:	b8 8e 00 00 c0       	mov    $0xc000008e,%eax
  417515:	eb 49                	jmp    0x417560
  417517:	8b 45 fc             	mov    -0x4(%ebp),%eax
  41751a:	25 02 01 00 00       	and    $0x102,%eax
  41751f:	75 07                	jne    0x417528
  417521:	b8 90 00 00 c0       	mov    $0xc0000090,%eax
  417526:	eb 38                	jmp    0x417560
  417528:	8b 4d fc             	mov    -0x4(%ebp),%ecx
  41752b:	81 e1 08 04 00 00    	and    $0x408,%ecx
  417531:	75 07                	jne    0x41753a
  417533:	b8 91 00 00 c0       	mov    $0xc0000091,%eax
  417538:	eb 26                	jmp    0x417560
  41753a:	8b 55 fc             	mov    -0x4(%ebp),%edx
  41753d:	81 e2 10 08 00 00    	and    $0x810,%edx
  417543:	75 07                	jne    0x41754c
  417545:	b8 93 00 00 c0       	mov    $0xc0000093,%eax
  41754a:	eb 14                	jmp    0x417560
  41754c:	8b 45 fc             	mov    -0x4(%ebp),%eax
  41754f:	25 20 10 00 00       	and    $0x1020,%eax
  417554:	75 07                	jne    0x41755d
  417556:	b8 8f 00 00 c0       	mov    $0xc000008f,%eax
  41755b:	eb 03                	jmp    0x417560
  41755d:	8b 45 08             	mov    0x8(%ebp),%eax
  417560:	8b e5                	mov    %ebp,%esp
  417562:	5d                   	pop    %ebp
  417563:	c3                   	ret
  417564:	cc                   	int3
  417565:	cc                   	int3
  417566:	cc                   	int3
  417567:	cc                   	int3
  417568:	cc                   	int3
  417569:	cc                   	int3
  41756a:	cc                   	int3
  41756b:	cc                   	int3
  41756c:	cc                   	int3
  41756d:	cc                   	int3
  41756e:	cc                   	int3
  41756f:	cc                   	int3
  417570:	cc                   	int3
  417571:	cc                   	int3
  417572:	cc                   	int3
  417573:	cc                   	int3
  417574:	cc                   	int3
  417575:	cc                   	int3
  417576:	cc                   	int3
  417577:	cc                   	int3
  417578:	cc                   	int3
  417579:	cc                   	int3
  41757a:	cc                   	int3
  41757b:	cc                   	int3
  41757c:	cc                   	int3
  41757d:	cc                   	int3
  41757e:	cc                   	int3
  41757f:	cc                   	int3
  417580:	cc                   	int3
  417581:	cc                   	int3
  417582:	cc                   	int3
  417583:	cc                   	int3
  417584:	cc                   	int3
  417585:	cc                   	int3
  417586:	cc                   	int3
  417587:	cc                   	int3
  417588:	cc                   	int3
  417589:	cc                   	int3
  41758a:	cc                   	int3
  41758b:	cc                   	int3
  41758c:	cc                   	int3
  41758d:	cc                   	int3
  41758e:	cc                   	int3
  41758f:	cc                   	int3
  417590:	cc                   	int3
  417591:	cc                   	int3
  417592:	cc                   	int3
  417593:	cc                   	int3
  417594:	cc                   	int3
  417595:	cc                   	int3
  417596:	cc                   	int3
  417597:	cc                   	int3
  417598:	cc                   	int3
  417599:	cc                   	int3
  41759a:	cc                   	int3
  41759b:	cc                   	int3
  41759c:	cc                   	int3
  41759d:	cc                   	int3
  41759e:	cc                   	int3
  41759f:	cc                   	int3
  4175a0:	cc                   	int3
  4175a1:	cc                   	int3
  4175a2:	cc                   	int3
  4175a3:	cc                   	int3
  4175a4:	cc                   	int3
  4175a5:	cc                   	int3
  4175a6:	cc                   	int3
  4175a7:	cc                   	int3
  4175a8:	cc                   	int3
  4175a9:	cc                   	int3
  4175aa:	cc                   	int3
  4175ab:	cc                   	int3
  4175ac:	cc                   	int3
  4175ad:	cc                   	int3
  4175ae:	cc                   	int3
  4175af:	cc                   	int3
  4175b0:	cc                   	int3
  4175b1:	cc                   	int3
  4175b2:	cc                   	int3
  4175b3:	cc                   	int3
  4175b4:	cc                   	int3
  4175b5:	cc                   	int3
  4175b6:	cc                   	int3
  4175b7:	cc                   	int3
  4175b8:	cc                   	int3
  4175b9:	cc                   	int3
  4175ba:	cc                   	int3
  4175bb:	cc                   	int3
  4175bc:	cc                   	int3
  4175bd:	cc                   	int3
  4175be:	cc                   	int3
  4175bf:	cc                   	int3
  4175c0:	cc                   	int3
  4175c1:	cc                   	int3
  4175c2:	cc                   	int3
  4175c3:	cc                   	int3
  4175c4:	cc                   	int3
  4175c5:	cc                   	int3
  4175c6:	cc                   	int3
  4175c7:	cc                   	int3
  4175c8:	cc                   	int3
  4175c9:	cc                   	int3
  4175ca:	cc                   	int3
  4175cb:	cc                   	int3
  4175cc:	cc                   	int3
  4175cd:	cc                   	int3
  4175ce:	cc                   	int3
  4175cf:	cc                   	int3
  4175d0:	cc                   	int3
  4175d1:	cc                   	int3
  4175d2:	cc                   	int3
  4175d3:	cc                   	int3
  4175d4:	cc                   	int3
  4175d5:	cc                   	int3
  4175d6:	cc                   	int3
  4175d7:	cc                   	int3
  4175d8:	cc                   	int3
  4175d9:	cc                   	int3
  4175da:	cc                   	int3
  4175db:	cc                   	int3
  4175dc:	cc                   	int3
  4175dd:	cc                   	int3
  4175de:	cc                   	int3
  4175df:	cc                   	int3
  4175e0:	cc                   	int3
  4175e1:	cc                   	int3
  4175e2:	cc                   	int3
  4175e3:	cc                   	int3
  4175e4:	cc                   	int3
  4175e5:	cc                   	int3
  4175e6:	cc                   	int3
  4175e7:	cc                   	int3
  4175e8:	cc                   	int3
  4175e9:	cc                   	int3
  4175ea:	cc                   	int3
  4175eb:	cc                   	int3
  4175ec:	cc                   	int3
  4175ed:	cc                   	int3
  4175ee:	cc                   	int3
  4175ef:	cc                   	int3
  4175f0:	cc                   	int3
  4175f1:	cc                   	int3
  4175f2:	cc                   	int3
  4175f3:	cc                   	int3
  4175f4:	cc                   	int3
  4175f5:	cc                   	int3
  4175f6:	cc                   	int3
  4175f7:	cc                   	int3
  4175f8:	cc                   	int3
  4175f9:	cc                   	int3
  4175fa:	cc                   	int3
  4175fb:	cc                   	int3
  4175fc:	cc                   	int3
  4175fd:	cc                   	int3
  4175fe:	cc                   	int3
  4175ff:	cc                   	int3
  417600:	cc                   	int3
  417601:	cc                   	int3
  417602:	cc                   	int3
  417603:	cc                   	int3
  417604:	cc                   	int3
  417605:	cc                   	int3
  417606:	cc                   	int3
  417607:	cc                   	int3
  417608:	cc                   	int3
  417609:	cc                   	int3
  41760a:	cc                   	int3
  41760b:	cc                   	int3
  41760c:	cc                   	int3
  41760d:	cc                   	int3
  41760e:	cc                   	int3
  41760f:	cc                   	int3
  417610:	cc                   	int3
  417611:	cc                   	int3
  417612:	cc                   	int3
  417613:	cc                   	int3
  417614:	cc                   	int3
  417615:	cc                   	int3
  417616:	cc                   	int3
  417617:	cc                   	int3
  417618:	cc                   	int3
  417619:	cc                   	int3
  41761a:	cc                   	int3
  41761b:	cc                   	int3
  41761c:	cc                   	int3
  41761d:	cc                   	int3
  41761e:	cc                   	int3
  41761f:	cc                   	int3
  417620:	cc                   	int3
  417621:	cc                   	int3
  417622:	cc                   	int3
  417623:	cc                   	int3
  417624:	cc                   	int3
  417625:	cc                   	int3
  417626:	cc                   	int3
  417627:	cc                   	int3
  417628:	cc                   	int3
  417629:	cc                   	int3
  41762a:	cc                   	int3
  41762b:	cc                   	int3
  41762c:	cc                   	int3
  41762d:	cc                   	int3
  41762e:	cc                   	int3
  41762f:	cc                   	int3
  417630:	cc                   	int3
  417631:	cc                   	int3
  417632:	cc                   	int3
  417633:	cc                   	int3
  417634:	cc                   	int3
  417635:	cc                   	int3
  417636:	cc                   	int3
  417637:	cc                   	int3
  417638:	cc                   	int3
  417639:	cc                   	int3
  41763a:	cc                   	int3
  41763b:	cc                   	int3
  41763c:	cc                   	int3
  41763d:	cc                   	int3
  41763e:	cc                   	int3
  41763f:	cc                   	int3
  417640:	cc                   	int3
  417641:	cc                   	int3
  417642:	cc                   	int3
  417643:	cc                   	int3
  417644:	cc                   	int3
  417645:	cc                   	int3
  417646:	cc                   	int3
  417647:	cc                   	int3
  417648:	cc                   	int3
  417649:	cc                   	int3
  41764a:	cc                   	int3
  41764b:	cc                   	int3
  41764c:	cc                   	int3
  41764d:	cc                   	int3
  41764e:	cc                   	int3
  41764f:	cc                   	int3
  417650:	cc                   	int3
  417651:	cc                   	int3
  417652:	cc                   	int3
  417653:	cc                   	int3
  417654:	cc                   	int3
  417655:	cc                   	int3
  417656:	cc                   	int3
  417657:	cc                   	int3
  417658:	cc                   	int3
  417659:	cc                   	int3
  41765a:	cc                   	int3
  41765b:	cc                   	int3
  41765c:	cc                   	int3
  41765d:	cc                   	int3
  41765e:	cc                   	int3
  41765f:	cc                   	int3
  417660:	cc                   	int3
  417661:	cc                   	int3
  417662:	cc                   	int3
  417663:	cc                   	int3
  417664:	cc                   	int3
  417665:	cc                   	int3
  417666:	cc                   	int3
  417667:	cc                   	int3
  417668:	cc                   	int3
  417669:	cc                   	int3
  41766a:	cc                   	int3
  41766b:	cc                   	int3
  41766c:	cc                   	int3
  41766d:	cc                   	int3
  41766e:	cc                   	int3
  41766f:	cc                   	int3
  417670:	cc                   	int3
  417671:	cc                   	int3
  417672:	cc                   	int3
  417673:	cc                   	int3
  417674:	cc                   	int3
  417675:	cc                   	int3
  417676:	cc                   	int3
  417677:	cc                   	int3
  417678:	cc                   	int3
  417679:	cc                   	int3
  41767a:	cc                   	int3
  41767b:	cc                   	int3
  41767c:	cc                   	int3
  41767d:	cc                   	int3
  41767e:	cc                   	int3
  41767f:	cc                   	int3
  417680:	cc                   	int3
  417681:	cc                   	int3
  417682:	cc                   	int3
  417683:	cc                   	int3
  417684:	cc                   	int3
  417685:	cc                   	int3
  417686:	cc                   	int3
  417687:	cc                   	int3
  417688:	cc                   	int3
  417689:	cc                   	int3
  41768a:	cc                   	int3
  41768b:	cc                   	int3
  41768c:	cc                   	int3
  41768d:	cc                   	int3
  41768e:	cc                   	int3
  41768f:	cc                   	int3
  417690:	cc                   	int3
  417691:	cc                   	int3
  417692:	cc                   	int3
  417693:	cc                   	int3
  417694:	cc                   	int3
  417695:	cc                   	int3
  417696:	cc                   	int3
  417697:	cc                   	int3
  417698:	cc                   	int3
  417699:	cc                   	int3
  41769a:	cc                   	int3
  41769b:	cc                   	int3
  41769c:	cc                   	int3
  41769d:	cc                   	int3
  41769e:	cc                   	int3
  41769f:	cc                   	int3
  4176a0:	cc                   	int3
  4176a1:	cc                   	int3
  4176a2:	cc                   	int3
  4176a3:	cc                   	int3
  4176a4:	cc                   	int3
  4176a5:	cc                   	int3
  4176a6:	cc                   	int3
  4176a7:	cc                   	int3
  4176a8:	cc                   	int3
  4176a9:	cc                   	int3
  4176aa:	cc                   	int3
  4176ab:	cc                   	int3
  4176ac:	cc                   	int3
  4176ad:	cc                   	int3
  4176ae:	cc                   	int3
  4176af:	cc                   	int3
  4176b0:	cc                   	int3
  4176b1:	cc                   	int3
  4176b2:	cc                   	int3
  4176b3:	cc                   	int3
  4176b4:	cc                   	int3
  4176b5:	cc                   	int3
  4176b6:	cc                   	int3
  4176b7:	cc                   	int3
  4176b8:	cc                   	int3
  4176b9:	cc                   	int3
  4176ba:	cc                   	int3
  4176bb:	cc                   	int3
  4176bc:	cc                   	int3
  4176bd:	cc                   	int3
  4176be:	cc                   	int3
  4176bf:	cc                   	int3
  4176c0:	cc                   	int3
  4176c1:	cc                   	int3
  4176c2:	cc                   	int3
  4176c3:	cc                   	int3
  4176c4:	cc                   	int3
  4176c5:	cc                   	int3
  4176c6:	cc                   	int3
  4176c7:	cc                   	int3
  4176c8:	cc                   	int3
  4176c9:	cc                   	int3
  4176ca:	cc                   	int3
  4176cb:	cc                   	int3
  4176cc:	cc                   	int3
  4176cd:	cc                   	int3
  4176ce:	cc                   	int3
  4176cf:	cc                   	int3
  4176d0:	cc                   	int3
  4176d1:	cc                   	int3
  4176d2:	cc                   	int3
  4176d3:	cc                   	int3
  4176d4:	cc                   	int3
  4176d5:	cc                   	int3
  4176d6:	cc                   	int3
  4176d7:	cc                   	int3
  4176d8:	cc                   	int3
  4176d9:	cc                   	int3
  4176da:	cc                   	int3
  4176db:	cc                   	int3
  4176dc:	cc                   	int3
  4176dd:	cc                   	int3
  4176de:	cc                   	int3
  4176df:	cc                   	int3
  4176e0:	cc                   	int3
  4176e1:	cc                   	int3
  4176e2:	cc                   	int3
  4176e3:	cc                   	int3
  4176e4:	cc                   	int3
  4176e5:	cc                   	int3
  4176e6:	cc                   	int3
  4176e7:	cc                   	int3
  4176e8:	cc                   	int3
  4176e9:	cc                   	int3
  4176ea:	cc                   	int3
  4176eb:	cc                   	int3
  4176ec:	cc                   	int3
  4176ed:	cc                   	int3
  4176ee:	cc                   	int3
  4176ef:	cc                   	int3
  4176f0:	cc                   	int3
  4176f1:	cc                   	int3
  4176f2:	cc                   	int3
  4176f3:	cc                   	int3
  4176f4:	cc                   	int3
  4176f5:	cc                   	int3
  4176f6:	cc                   	int3
  4176f7:	cc                   	int3
  4176f8:	cc                   	int3
  4176f9:	cc                   	int3
  4176fa:	cc                   	int3
  4176fb:	cc                   	int3
  4176fc:	cc                   	int3
  4176fd:	cc                   	int3
  4176fe:	cc                   	int3
  4176ff:	cc                   	int3
  417700:	cc                   	int3
  417701:	cc                   	int3
  417702:	cc                   	int3
  417703:	cc                   	int3
  417704:	cc                   	int3
  417705:	cc                   	int3
  417706:	cc                   	int3
  417707:	cc                   	int3
  417708:	cc                   	int3
  417709:	cc                   	int3
  41770a:	cc                   	int3
  41770b:	cc                   	int3
  41770c:	cc                   	int3
  41770d:	cc                   	int3
  41770e:	cc                   	int3
  41770f:	cc                   	int3
  417710:	cc                   	int3
  417711:	cc                   	int3
  417712:	cc                   	int3
  417713:	cc                   	int3
  417714:	cc                   	int3
  417715:	cc                   	int3
  417716:	cc                   	int3
  417717:	cc                   	int3
  417718:	cc                   	int3
  417719:	cc                   	int3
  41771a:	cc                   	int3
  41771b:	cc                   	int3
  41771c:	cc                   	int3
  41771d:	cc                   	int3
  41771e:	cc                   	int3
  41771f:	cc                   	int3
  417720:	cc                   	int3
  417721:	cc                   	int3
  417722:	cc                   	int3
  417723:	cc                   	int3
  417724:	cc                   	int3
  417725:	cc                   	int3
  417726:	cc                   	int3
  417727:	cc                   	int3
  417728:	cc                   	int3
  417729:	cc                   	int3
  41772a:	cc                   	int3
  41772b:	cc                   	int3
  41772c:	cc                   	int3
  41772d:	cc                   	int3
  41772e:	cc                   	int3
  41772f:	cc                   	int3
  417730:	cc                   	int3
  417731:	cc                   	int3
  417732:	cc                   	int3
  417733:	cc                   	int3
  417734:	cc                   	int3
  417735:	cc                   	int3
  417736:	cc                   	int3
  417737:	cc                   	int3
  417738:	cc                   	int3
  417739:	cc                   	int3
  41773a:	cc                   	int3
  41773b:	cc                   	int3
  41773c:	cc                   	int3
  41773d:	cc                   	int3
  41773e:	cc                   	int3
  41773f:	cc                   	int3
  417740:	cc                   	int3
  417741:	cc                   	int3
  417742:	cc                   	int3
  417743:	cc                   	int3
  417744:	cc                   	int3
  417745:	cc                   	int3
  417746:	cc                   	int3
  417747:	cc                   	int3
  417748:	cc                   	int3
  417749:	cc                   	int3
  41774a:	cc                   	int3
  41774b:	cc                   	int3
  41774c:	cc                   	int3
  41774d:	cc                   	int3
  41774e:	cc                   	int3
  41774f:	cc                   	int3
  417750:	cc                   	int3
  417751:	cc                   	int3
  417752:	cc                   	int3
  417753:	cc                   	int3
  417754:	cc                   	int3
  417755:	cc                   	int3
  417756:	cc                   	int3
  417757:	cc                   	int3
  417758:	cc                   	int3
  417759:	cc                   	int3
  41775a:	cc                   	int3
  41775b:	cc                   	int3
  41775c:	cc                   	int3
  41775d:	cc                   	int3
  41775e:	cc                   	int3
  41775f:	cc                   	int3
  417760:	cc                   	int3
  417761:	cc                   	int3
  417762:	cc                   	int3
  417763:	cc                   	int3
  417764:	cc                   	int3
  417765:	cc                   	int3
  417766:	cc                   	int3
  417767:	cc                   	int3
  417768:	cc                   	int3
  417769:	cc                   	int3
  41776a:	cc                   	int3
  41776b:	cc                   	int3
  41776c:	cc                   	int3
  41776d:	cc                   	int3
  41776e:	cc                   	int3
  41776f:	cc                   	int3
  417770:	cc                   	int3
  417771:	cc                   	int3
  417772:	cc                   	int3
  417773:	cc                   	int3
  417774:	cc                   	int3
  417775:	cc                   	int3
  417776:	cc                   	int3
  417777:	cc                   	int3
  417778:	cc                   	int3
  417779:	cc                   	int3
  41777a:	cc                   	int3
  41777b:	cc                   	int3
  41777c:	cc                   	int3
  41777d:	cc                   	int3
  41777e:	cc                   	int3
  41777f:	cc                   	int3
  417780:	cc                   	int3
  417781:	cc                   	int3
  417782:	cc                   	int3
  417783:	cc                   	int3
  417784:	cc                   	int3
  417785:	cc                   	int3
  417786:	cc                   	int3
  417787:	cc                   	int3
  417788:	cc                   	int3
  417789:	cc                   	int3
  41778a:	cc                   	int3
  41778b:	cc                   	int3
  41778c:	cc                   	int3
  41778d:	cc                   	int3
  41778e:	cc                   	int3
  41778f:	cc                   	int3
  417790:	cc                   	int3
  417791:	cc                   	int3
  417792:	cc                   	int3
  417793:	cc                   	int3
  417794:	cc                   	int3
  417795:	cc                   	int3
  417796:	cc                   	int3
  417797:	cc                   	int3
  417798:	cc                   	int3
  417799:	cc                   	int3
  41779a:	cc                   	int3
  41779b:	cc                   	int3
  41779c:	cc                   	int3
  41779d:	cc                   	int3
  41779e:	cc                   	int3
  41779f:	cc                   	int3
  4177a0:	cc                   	int3
  4177a1:	cc                   	int3
  4177a2:	cc                   	int3
  4177a3:	cc                   	int3
  4177a4:	cc                   	int3
  4177a5:	cc                   	int3
  4177a6:	cc                   	int3
  4177a7:	cc                   	int3
  4177a8:	cc                   	int3
  4177a9:	cc                   	int3
  4177aa:	cc                   	int3
  4177ab:	cc                   	int3
  4177ac:	cc                   	int3
  4177ad:	cc                   	int3
  4177ae:	cc                   	int3
  4177af:	cc                   	int3
  4177b0:	cc                   	int3
  4177b1:	cc                   	int3
  4177b2:	cc                   	int3
  4177b3:	cc                   	int3
  4177b4:	cc                   	int3
  4177b5:	cc                   	int3
  4177b6:	cc                   	int3
  4177b7:	cc                   	int3
  4177b8:	cc                   	int3
  4177b9:	cc                   	int3
  4177ba:	cc                   	int3
  4177bb:	cc                   	int3
  4177bc:	cc                   	int3
  4177bd:	cc                   	int3
  4177be:	cc                   	int3
  4177bf:	cc                   	int3
  4177c0:	cc                   	int3
  4177c1:	cc                   	int3
  4177c2:	cc                   	int3
  4177c3:	cc                   	int3
  4177c4:	cc                   	int3
  4177c5:	cc                   	int3
  4177c6:	cc                   	int3
  4177c7:	cc                   	int3
  4177c8:	cc                   	int3
  4177c9:	cc                   	int3
  4177ca:	cc                   	int3
  4177cb:	cc                   	int3
  4177cc:	cc                   	int3
  4177cd:	cc                   	int3
  4177ce:	cc                   	int3
  4177cf:	cc                   	int3
  4177d0:	cc                   	int3
  4177d1:	cc                   	int3
  4177d2:	cc                   	int3
  4177d3:	cc                   	int3
  4177d4:	cc                   	int3
  4177d5:	cc                   	int3
  4177d6:	cc                   	int3
  4177d7:	cc                   	int3
  4177d8:	cc                   	int3
  4177d9:	cc                   	int3
  4177da:	cc                   	int3
  4177db:	cc                   	int3
  4177dc:	cc                   	int3
  4177dd:	cc                   	int3
  4177de:	cc                   	int3
  4177df:	cc                   	int3
  4177e0:	cc                   	int3
  4177e1:	cc                   	int3
  4177e2:	cc                   	int3
  4177e3:	cc                   	int3
  4177e4:	cc                   	int3
  4177e5:	cc                   	int3
  4177e6:	cc                   	int3
  4177e7:	cc                   	int3
  4177e8:	cc                   	int3
  4177e9:	cc                   	int3
  4177ea:	cc                   	int3
  4177eb:	cc                   	int3
  4177ec:	cc                   	int3
  4177ed:	cc                   	int3
  4177ee:	cc                   	int3
  4177ef:	cc                   	int3
  4177f0:	cc                   	int3
  4177f1:	cc                   	int3
  4177f2:	cc                   	int3
  4177f3:	cc                   	int3
  4177f4:	cc                   	int3
  4177f5:	cc                   	int3
  4177f6:	cc                   	int3
  4177f7:	cc                   	int3
  4177f8:	cc                   	int3
  4177f9:	cc                   	int3
  4177fa:	cc                   	int3
  4177fb:	cc                   	int3
  4177fc:	cc                   	int3
  4177fd:	cc                   	int3
  4177fe:	cc                   	int3
  4177ff:	cc                   	int3
  417800:	cc                   	int3
  417801:	cc                   	int3
  417802:	cc                   	int3
  417803:	cc                   	int3
  417804:	cc                   	int3
  417805:	cc                   	int3
  417806:	cc                   	int3
  417807:	cc                   	int3
  417808:	cc                   	int3
  417809:	cc                   	int3
  41780a:	cc                   	int3
  41780b:	cc                   	int3
  41780c:	cc                   	int3
  41780d:	cc                   	int3
  41780e:	cc                   	int3
  41780f:	cc                   	int3
  417810:	cc                   	int3
  417811:	cc                   	int3
  417812:	cc                   	int3
  417813:	cc                   	int3
  417814:	cc                   	int3
  417815:	cc                   	int3
  417816:	cc                   	int3
  417817:	cc                   	int3
  417818:	cc                   	int3
  417819:	cc                   	int3
  41781a:	cc                   	int3
  41781b:	cc                   	int3
  41781c:	cc                   	int3
  41781d:	cc                   	int3
  41781e:	cc                   	int3
  41781f:	cc                   	int3
  417820:	cc                   	int3
  417821:	cc                   	int3
  417822:	cc                   	int3
  417823:	cc                   	int3
  417824:	cc                   	int3
  417825:	cc                   	int3
  417826:	cc                   	int3
  417827:	cc                   	int3
  417828:	cc                   	int3
  417829:	cc                   	int3
  41782a:	cc                   	int3
  41782b:	cc                   	int3
  41782c:	cc                   	int3
  41782d:	cc                   	int3
  41782e:	cc                   	int3
  41782f:	cc                   	int3
  417830:	cc                   	int3
  417831:	cc                   	int3
  417832:	cc                   	int3
  417833:	cc                   	int3
  417834:	cc                   	int3
  417835:	cc                   	int3
  417836:	cc                   	int3
  417837:	cc                   	int3
  417838:	cc                   	int3
  417839:	cc                   	int3
  41783a:	cc                   	int3
  41783b:	cc                   	int3
  41783c:	cc                   	int3
  41783d:	cc                   	int3
  41783e:	cc                   	int3
  41783f:	cc                   	int3
  417840:	cc                   	int3
  417841:	cc                   	int3
  417842:	cc                   	int3
  417843:	cc                   	int3
  417844:	cc                   	int3
  417845:	cc                   	int3
  417846:	cc                   	int3
  417847:	cc                   	int3
  417848:	cc                   	int3
  417849:	cc                   	int3
  41784a:	cc                   	int3
  41784b:	cc                   	int3
  41784c:	cc                   	int3
  41784d:	cc                   	int3
  41784e:	cc                   	int3
  41784f:	cc                   	int3
  417850:	cc                   	int3
  417851:	cc                   	int3
  417852:	cc                   	int3
  417853:	cc                   	int3
  417854:	cc                   	int3
  417855:	cc                   	int3
  417856:	cc                   	int3
  417857:	cc                   	int3
  417858:	cc                   	int3
  417859:	cc                   	int3
  41785a:	cc                   	int3
  41785b:	cc                   	int3
  41785c:	cc                   	int3
  41785d:	cc                   	int3
  41785e:	cc                   	int3
  41785f:	cc                   	int3
  417860:	cc                   	int3
  417861:	cc                   	int3
  417862:	cc                   	int3
  417863:	cc                   	int3
  417864:	cc                   	int3
  417865:	cc                   	int3
  417866:	cc                   	int3
  417867:	cc                   	int3
  417868:	cc                   	int3
  417869:	cc                   	int3
  41786a:	cc                   	int3
  41786b:	cc                   	int3
  41786c:	cc                   	int3
  41786d:	cc                   	int3
  41786e:	cc                   	int3
  41786f:	cc                   	int3
  417870:	cc                   	int3
  417871:	cc                   	int3
  417872:	cc                   	int3
  417873:	cc                   	int3
  417874:	cc                   	int3
  417875:	cc                   	int3
  417876:	cc                   	int3
  417877:	cc                   	int3
  417878:	cc                   	int3
  417879:	cc                   	int3
  41787a:	cc                   	int3
  41787b:	cc                   	int3
  41787c:	cc                   	int3
  41787d:	cc                   	int3
  41787e:	cc                   	int3
  41787f:	cc                   	int3
  417880:	cc                   	int3
  417881:	cc                   	int3
  417882:	cc                   	int3
  417883:	cc                   	int3
  417884:	cc                   	int3
  417885:	cc                   	int3
  417886:	cc                   	int3
  417887:	cc                   	int3
  417888:	cc                   	int3
  417889:	cc                   	int3
  41788a:	cc                   	int3
  41788b:	cc                   	int3
  41788c:	cc                   	int3
  41788d:	cc                   	int3
  41788e:	cc                   	int3
  41788f:	cc                   	int3
  417890:	cc                   	int3
  417891:	cc                   	int3
  417892:	cc                   	int3
  417893:	cc                   	int3
  417894:	cc                   	int3
  417895:	cc                   	int3
  417896:	cc                   	int3
  417897:	cc                   	int3
  417898:	cc                   	int3
  417899:	cc                   	int3
  41789a:	cc                   	int3
  41789b:	cc                   	int3
  41789c:	cc                   	int3
  41789d:	cc                   	int3
  41789e:	cc                   	int3
  41789f:	cc                   	int3
  4178a0:	cc                   	int3
  4178a1:	cc                   	int3
  4178a2:	cc                   	int3
  4178a3:	cc                   	int3
  4178a4:	cc                   	int3
  4178a5:	cc                   	int3
  4178a6:	cc                   	int3
  4178a7:	cc                   	int3
  4178a8:	cc                   	int3
  4178a9:	cc                   	int3
  4178aa:	cc                   	int3
  4178ab:	cc                   	int3
  4178ac:	cc                   	int3
  4178ad:	cc                   	int3
  4178ae:	cc                   	int3
  4178af:	cc                   	int3
  4178b0:	cc                   	int3
  4178b1:	cc                   	int3
  4178b2:	cc                   	int3
  4178b3:	cc                   	int3
  4178b4:	cc                   	int3
  4178b5:	cc                   	int3
  4178b6:	cc                   	int3
  4178b7:	cc                   	int3
  4178b8:	cc                   	int3
  4178b9:	cc                   	int3
  4178ba:	cc                   	int3
  4178bb:	cc                   	int3
  4178bc:	cc                   	int3
  4178bd:	cc                   	int3
  4178be:	cc                   	int3
  4178bf:	cc                   	int3
  4178c0:	cc                   	int3
  4178c1:	cc                   	int3
  4178c2:	cc                   	int3
  4178c3:	cc                   	int3
  4178c4:	cc                   	int3
  4178c5:	cc                   	int3
  4178c6:	cc                   	int3
  4178c7:	cc                   	int3
  4178c8:	cc                   	int3
  4178c9:	cc                   	int3
  4178ca:	cc                   	int3
  4178cb:	cc                   	int3
  4178cc:	cc                   	int3
  4178cd:	cc                   	int3
  4178ce:	cc                   	int3
  4178cf:	cc                   	int3
  4178d0:	cc                   	int3
  4178d1:	cc                   	int3
  4178d2:	cc                   	int3
  4178d3:	cc                   	int3
  4178d4:	cc                   	int3
  4178d5:	cc                   	int3
  4178d6:	cc                   	int3
  4178d7:	cc                   	int3
  4178d8:	cc                   	int3
  4178d9:	cc                   	int3
  4178da:	cc                   	int3
  4178db:	cc                   	int3
  4178dc:	cc                   	int3
  4178dd:	cc                   	int3
  4178de:	cc                   	int3
  4178df:	cc                   	int3
  4178e0:	cc                   	int3
  4178e1:	cc                   	int3
  4178e2:	cc                   	int3
  4178e3:	cc                   	int3
  4178e4:	cc                   	int3
  4178e5:	cc                   	int3
  4178e6:	cc                   	int3
  4178e7:	cc                   	int3
  4178e8:	cc                   	int3
  4178e9:	cc                   	int3
  4178ea:	cc                   	int3
  4178eb:	cc                   	int3
  4178ec:	cc                   	int3
  4178ed:	cc                   	int3
  4178ee:	cc                   	int3
  4178ef:	cc                   	int3
  4178f0:	cc                   	int3
  4178f1:	cc                   	int3
  4178f2:	cc                   	int3
  4178f3:	cc                   	int3
  4178f4:	cc                   	int3
  4178f5:	cc                   	int3
  4178f6:	cc                   	int3
  4178f7:	cc                   	int3
  4178f8:	cc                   	int3
  4178f9:	cc                   	int3
  4178fa:	cc                   	int3
  4178fb:	cc                   	int3
  4178fc:	cc                   	int3
  4178fd:	cc                   	int3
  4178fe:	cc                   	int3
  4178ff:	cc                   	int3
  417900:	cc                   	int3
  417901:	cc                   	int3
  417902:	cc                   	int3
  417903:	cc                   	int3
  417904:	cc                   	int3
  417905:	cc                   	int3
  417906:	cc                   	int3
  417907:	cc                   	int3
  417908:	cc                   	int3
  417909:	cc                   	int3
  41790a:	cc                   	int3
  41790b:	cc                   	int3
  41790c:	cc                   	int3
  41790d:	cc                   	int3
  41790e:	cc                   	int3
  41790f:	cc                   	int3
  417910:	cc                   	int3
  417911:	cc                   	int3
  417912:	cc                   	int3
  417913:	cc                   	int3
  417914:	cc                   	int3
  417915:	cc                   	int3
  417916:	cc                   	int3
  417917:	cc                   	int3
  417918:	cc                   	int3
  417919:	cc                   	int3
  41791a:	cc                   	int3
  41791b:	cc                   	int3
  41791c:	cc                   	int3
  41791d:	cc                   	int3
  41791e:	cc                   	int3
  41791f:	cc                   	int3
  417920:	cc                   	int3
  417921:	cc                   	int3
  417922:	cc                   	int3
  417923:	cc                   	int3
  417924:	cc                   	int3
  417925:	cc                   	int3
  417926:	cc                   	int3
  417927:	cc                   	int3
  417928:	cc                   	int3
  417929:	cc                   	int3
  41792a:	cc                   	int3
  41792b:	cc                   	int3
  41792c:	cc                   	int3
  41792d:	cc                   	int3
  41792e:	cc                   	int3
  41792f:	cc                   	int3
  417930:	cc                   	int3
  417931:	cc                   	int3
  417932:	cc                   	int3
  417933:	cc                   	int3
  417934:	cc                   	int3
  417935:	cc                   	int3
  417936:	cc                   	int3
  417937:	cc                   	int3
  417938:	cc                   	int3
  417939:	cc                   	int3
  41793a:	cc                   	int3
  41793b:	cc                   	int3
  41793c:	cc                   	int3
  41793d:	cc                   	int3
  41793e:	cc                   	int3
  41793f:	cc                   	int3
  417940:	cc                   	int3
  417941:	cc                   	int3
  417942:	cc                   	int3
  417943:	cc                   	int3
  417944:	cc                   	int3
  417945:	cc                   	int3
  417946:	cc                   	int3
  417947:	cc                   	int3
  417948:	cc                   	int3
  417949:	cc                   	int3
  41794a:	cc                   	int3
  41794b:	cc                   	int3
  41794c:	cc                   	int3
  41794d:	cc                   	int3
  41794e:	cc                   	int3
  41794f:	cc                   	int3
  417950:	cc                   	int3
  417951:	cc                   	int3
  417952:	cc                   	int3
  417953:	cc                   	int3
  417954:	cc                   	int3
  417955:	cc                   	int3
  417956:	cc                   	int3
  417957:	cc                   	int3
  417958:	cc                   	int3
  417959:	cc                   	int3
  41795a:	cc                   	int3
  41795b:	cc                   	int3
  41795c:	cc                   	int3
  41795d:	cc                   	int3
  41795e:	cc                   	int3
  41795f:	cc                   	int3
  417960:	cc                   	int3
  417961:	cc                   	int3
  417962:	cc                   	int3
  417963:	cc                   	int3
  417964:	cc                   	int3
  417965:	cc                   	int3
  417966:	cc                   	int3
  417967:	cc                   	int3
  417968:	cc                   	int3
  417969:	cc                   	int3
  41796a:	cc                   	int3
  41796b:	cc                   	int3
  41796c:	cc                   	int3
  41796d:	cc                   	int3
  41796e:	cc                   	int3
  41796f:	cc                   	int3
  417970:	cc                   	int3
  417971:	cc                   	int3
  417972:	cc                   	int3
  417973:	cc                   	int3
  417974:	cc                   	int3
  417975:	cc                   	int3
  417976:	cc                   	int3
  417977:	cc                   	int3
  417978:	cc                   	int3
  417979:	cc                   	int3
  41797a:	cc                   	int3
  41797b:	cc                   	int3
  41797c:	cc                   	int3
  41797d:	cc                   	int3
  41797e:	cc                   	int3
  41797f:	cc                   	int3
  417980:	cc                   	int3
  417981:	cc                   	int3
  417982:	cc                   	int3
  417983:	cc                   	int3
  417984:	cc                   	int3
  417985:	cc                   	int3
  417986:	cc                   	int3
  417987:	cc                   	int3
  417988:	cc                   	int3
  417989:	cc                   	int3
  41798a:	cc                   	int3
  41798b:	cc                   	int3
  41798c:	cc                   	int3
  41798d:	cc                   	int3
  41798e:	cc                   	int3
  41798f:	cc                   	int3
  417990:	cc                   	int3
  417991:	cc                   	int3
  417992:	cc                   	int3
  417993:	cc                   	int3
  417994:	cc                   	int3
  417995:	cc                   	int3
  417996:	cc                   	int3
  417997:	cc                   	int3
  417998:	cc                   	int3
  417999:	cc                   	int3
  41799a:	cc                   	int3
  41799b:	cc                   	int3
  41799c:	cc                   	int3
  41799d:	cc                   	int3
  41799e:	cc                   	int3
  41799f:	cc                   	int3
  4179a0:	cc                   	int3
  4179a1:	cc                   	int3
  4179a2:	cc                   	int3
  4179a3:	cc                   	int3
  4179a4:	cc                   	int3
  4179a5:	cc                   	int3
  4179a6:	cc                   	int3
  4179a7:	cc                   	int3
  4179a8:	cc                   	int3
  4179a9:	cc                   	int3
  4179aa:	cc                   	int3
  4179ab:	cc                   	int3
  4179ac:	cc                   	int3
  4179ad:	cc                   	int3
  4179ae:	cc                   	int3
  4179af:	cc                   	int3
  4179b0:	cc                   	int3
  4179b1:	cc                   	int3
  4179b2:	cc                   	int3
  4179b3:	cc                   	int3
  4179b4:	cc                   	int3
  4179b5:	cc                   	int3
  4179b6:	cc                   	int3
  4179b7:	cc                   	int3
  4179b8:	cc                   	int3
  4179b9:	cc                   	int3
  4179ba:	cc                   	int3
  4179bb:	cc                   	int3
  4179bc:	cc                   	int3
  4179bd:	cc                   	int3
  4179be:	cc                   	int3
  4179bf:	cc                   	int3
  4179c0:	cc                   	int3
  4179c1:	cc                   	int3
  4179c2:	cc                   	int3
  4179c3:	cc                   	int3
  4179c4:	cc                   	int3
  4179c5:	cc                   	int3
  4179c6:	cc                   	int3
  4179c7:	cc                   	int3
  4179c8:	cc                   	int3
  4179c9:	cc                   	int3
  4179ca:	cc                   	int3
  4179cb:	cc                   	int3
  4179cc:	cc                   	int3
  4179cd:	cc                   	int3
  4179ce:	cc                   	int3
  4179cf:	cc                   	int3
  4179d0:	cc                   	int3
  4179d1:	cc                   	int3
  4179d2:	cc                   	int3
  4179d3:	cc                   	int3
  4179d4:	cc                   	int3
  4179d5:	cc                   	int3
  4179d6:	cc                   	int3
  4179d7:	cc                   	int3
  4179d8:	cc                   	int3
  4179d9:	cc                   	int3
  4179da:	cc                   	int3
  4179db:	cc                   	int3
  4179dc:	cc                   	int3
  4179dd:	cc                   	int3
  4179de:	cc                   	int3
  4179df:	cc                   	int3
  4179e0:	cc                   	int3
  4179e1:	cc                   	int3
  4179e2:	cc                   	int3
  4179e3:	cc                   	int3
  4179e4:	cc                   	int3
  4179e5:	cc                   	int3
  4179e6:	cc                   	int3
  4179e7:	cc                   	int3
  4179e8:	cc                   	int3
  4179e9:	cc                   	int3
  4179ea:	cc                   	int3
  4179eb:	cc                   	int3
  4179ec:	cc                   	int3
  4179ed:	cc                   	int3
  4179ee:	cc                   	int3
  4179ef:	cc                   	int3
  4179f0:	cc                   	int3
  4179f1:	cc                   	int3
  4179f2:	cc                   	int3
  4179f3:	cc                   	int3
  4179f4:	cc                   	int3
  4179f5:	cc                   	int3
  4179f6:	cc                   	int3
  4179f7:	cc                   	int3
  4179f8:	cc                   	int3
  4179f9:	cc                   	int3
  4179fa:	cc                   	int3
  4179fb:	cc                   	int3
  4179fc:	cc                   	int3
  4179fd:	cc                   	int3
  4179fe:	cc                   	int3
  4179ff:	cc                   	int3
  417a00:	cc                   	int3
  417a01:	cc                   	int3
  417a02:	cc                   	int3
  417a03:	cc                   	int3
  417a04:	cc                   	int3
  417a05:	cc                   	int3
  417a06:	cc                   	int3
  417a07:	cc                   	int3
  417a08:	cc                   	int3
  417a09:	cc                   	int3
  417a0a:	cc                   	int3
  417a0b:	cc                   	int3
  417a0c:	cc                   	int3
  417a0d:	cc                   	int3
  417a0e:	cc                   	int3
  417a0f:	cc                   	int3
  417a10:	cc                   	int3
  417a11:	cc                   	int3
  417a12:	cc                   	int3
  417a13:	cc                   	int3
  417a14:	cc                   	int3
  417a15:	cc                   	int3
  417a16:	cc                   	int3
  417a17:	cc                   	int3
  417a18:	cc                   	int3
  417a19:	cc                   	int3
  417a1a:	cc                   	int3
  417a1b:	cc                   	int3
  417a1c:	cc                   	int3
  417a1d:	cc                   	int3
  417a1e:	cc                   	int3
  417a1f:	cc                   	int3
  417a20:	cc                   	int3
  417a21:	cc                   	int3
  417a22:	cc                   	int3
  417a23:	cc                   	int3
  417a24:	cc                   	int3
  417a25:	cc                   	int3
  417a26:	cc                   	int3
  417a27:	cc                   	int3
  417a28:	cc                   	int3
  417a29:	cc                   	int3
  417a2a:	cc                   	int3
  417a2b:	cc                   	int3
  417a2c:	cc                   	int3
  417a2d:	cc                   	int3
  417a2e:	cc                   	int3
  417a2f:	cc                   	int3
  417a30:	cc                   	int3
  417a31:	cc                   	int3
  417a32:	cc                   	int3
  417a33:	cc                   	int3
  417a34:	cc                   	int3
  417a35:	cc                   	int3
  417a36:	cc                   	int3
  417a37:	cc                   	int3
  417a38:	cc                   	int3
  417a39:	cc                   	int3
  417a3a:	cc                   	int3
  417a3b:	cc                   	int3
  417a3c:	cc                   	int3
  417a3d:	cc                   	int3
  417a3e:	cc                   	int3
  417a3f:	cc                   	int3
  417a40:	cc                   	int3
  417a41:	cc                   	int3
  417a42:	cc                   	int3
  417a43:	cc                   	int3
  417a44:	cc                   	int3
  417a45:	cc                   	int3
  417a46:	cc                   	int3
  417a47:	cc                   	int3
  417a48:	cc                   	int3
  417a49:	cc                   	int3
  417a4a:	cc                   	int3
  417a4b:	cc                   	int3
  417a4c:	cc                   	int3
  417a4d:	cc                   	int3
  417a4e:	cc                   	int3
  417a4f:	cc                   	int3
  417a50:	cc                   	int3
  417a51:	cc                   	int3
  417a52:	cc                   	int3
  417a53:	cc                   	int3
  417a54:	cc                   	int3
  417a55:	cc                   	int3
  417a56:	cc                   	int3
  417a57:	cc                   	int3
  417a58:	cc                   	int3
  417a59:	cc                   	int3
  417a5a:	cc                   	int3
  417a5b:	cc                   	int3
  417a5c:	cc                   	int3
  417a5d:	cc                   	int3
  417a5e:	cc                   	int3
  417a5f:	cc                   	int3
  417a60:	cc                   	int3
  417a61:	cc                   	int3
  417a62:	cc                   	int3
  417a63:	cc                   	int3
  417a64:	cc                   	int3
  417a65:	cc                   	int3
  417a66:	cc                   	int3
  417a67:	cc                   	int3
  417a68:	cc                   	int3
  417a69:	cc                   	int3
  417a6a:	cc                   	int3
  417a6b:	cc                   	int3
  417a6c:	cc                   	int3
  417a6d:	cc                   	int3
  417a6e:	cc                   	int3
  417a6f:	cc                   	int3
  417a70:	cc                   	int3
  417a71:	cc                   	int3
  417a72:	cc                   	int3
  417a73:	cc                   	int3
  417a74:	cc                   	int3
  417a75:	cc                   	int3
  417a76:	cc                   	int3
  417a77:	cc                   	int3
  417a78:	cc                   	int3
  417a79:	cc                   	int3
  417a7a:	cc                   	int3
  417a7b:	cc                   	int3
  417a7c:	cc                   	int3
  417a7d:	cc                   	int3
  417a7e:	cc                   	int3
  417a7f:	cc                   	int3
  417a80:	cc                   	int3
  417a81:	cc                   	int3
  417a82:	cc                   	int3
  417a83:	cc                   	int3
  417a84:	cc                   	int3
  417a85:	cc                   	int3
  417a86:	cc                   	int3
  417a87:	cc                   	int3
  417a88:	cc                   	int3
  417a89:	cc                   	int3
  417a8a:	cc                   	int3
  417a8b:	cc                   	int3
  417a8c:	cc                   	int3
  417a8d:	cc                   	int3
  417a8e:	cc                   	int3
  417a8f:	cc                   	int3
  417a90:	cc                   	int3
  417a91:	cc                   	int3
  417a92:	cc                   	int3
  417a93:	cc                   	int3
  417a94:	cc                   	int3
  417a95:	cc                   	int3
  417a96:	cc                   	int3
  417a97:	cc                   	int3
  417a98:	cc                   	int3
  417a99:	cc                   	int3
  417a9a:	cc                   	int3
  417a9b:	cc                   	int3
  417a9c:	cc                   	int3
  417a9d:	cc                   	int3
  417a9e:	cc                   	int3
  417a9f:	cc                   	int3
  417aa0:	cc                   	int3
  417aa1:	cc                   	int3
  417aa2:	cc                   	int3
  417aa3:	cc                   	int3
  417aa4:	cc                   	int3
  417aa5:	cc                   	int3
  417aa6:	cc                   	int3
  417aa7:	cc                   	int3
  417aa8:	cc                   	int3
  417aa9:	cc                   	int3
  417aaa:	cc                   	int3
  417aab:	cc                   	int3
  417aac:	cc                   	int3
  417aad:	cc                   	int3
  417aae:	cc                   	int3
  417aaf:	cc                   	int3
  417ab0:	cc                   	int3
  417ab1:	cc                   	int3
  417ab2:	cc                   	int3
  417ab3:	cc                   	int3
  417ab4:	cc                   	int3
  417ab5:	cc                   	int3
  417ab6:	cc                   	int3
  417ab7:	cc                   	int3
  417ab8:	cc                   	int3
  417ab9:	cc                   	int3
  417aba:	cc                   	int3
  417abb:	cc                   	int3
  417abc:	cc                   	int3
  417abd:	cc                   	int3
  417abe:	cc                   	int3
  417abf:	cc                   	int3
  417ac0:	cc                   	int3
  417ac1:	cc                   	int3
  417ac2:	cc                   	int3
  417ac3:	cc                   	int3
  417ac4:	cc                   	int3
  417ac5:	cc                   	int3
  417ac6:	cc                   	int3
  417ac7:	cc                   	int3
  417ac8:	cc                   	int3
  417ac9:	cc                   	int3
  417aca:	cc                   	int3
  417acb:	cc                   	int3
  417acc:	cc                   	int3
  417acd:	cc                   	int3
  417ace:	cc                   	int3
  417acf:	cc                   	int3
  417ad0:	cc                   	int3
  417ad1:	cc                   	int3
  417ad2:	cc                   	int3
  417ad3:	cc                   	int3
  417ad4:	cc                   	int3
  417ad5:	cc                   	int3
  417ad6:	cc                   	int3
  417ad7:	cc                   	int3
  417ad8:	cc                   	int3
  417ad9:	cc                   	int3
  417ada:	cc                   	int3
  417adb:	cc                   	int3
  417adc:	cc                   	int3
  417add:	cc                   	int3
  417ade:	cc                   	int3
  417adf:	cc                   	int3
  417ae0:	cc                   	int3
  417ae1:	cc                   	int3
  417ae2:	cc                   	int3
  417ae3:	cc                   	int3
  417ae4:	cc                   	int3
  417ae5:	cc                   	int3
  417ae6:	cc                   	int3
  417ae7:	cc                   	int3
  417ae8:	cc                   	int3
  417ae9:	cc                   	int3
  417aea:	cc                   	int3
  417aeb:	cc                   	int3
  417aec:	cc                   	int3
  417aed:	cc                   	int3
  417aee:	cc                   	int3
  417aef:	cc                   	int3
  417af0:	cc                   	int3
  417af1:	cc                   	int3
  417af2:	cc                   	int3
  417af3:	cc                   	int3
  417af4:	cc                   	int3
  417af5:	cc                   	int3
  417af6:	cc                   	int3
  417af7:	cc                   	int3
  417af8:	cc                   	int3
  417af9:	cc                   	int3
  417afa:	cc                   	int3
  417afb:	cc                   	int3
  417afc:	cc                   	int3
  417afd:	cc                   	int3
  417afe:	cc                   	int3
  417aff:	cc                   	int3
  417b00:	cc                   	int3
  417b01:	cc                   	int3
  417b02:	cc                   	int3
  417b03:	cc                   	int3
  417b04:	cc                   	int3
  417b05:	cc                   	int3
  417b06:	cc                   	int3
  417b07:	cc                   	int3
  417b08:	cc                   	int3
  417b09:	cc                   	int3
  417b0a:	cc                   	int3
  417b0b:	cc                   	int3
  417b0c:	cc                   	int3
  417b0d:	cc                   	int3
  417b0e:	cc                   	int3
  417b0f:	cc                   	int3
  417b10:	cc                   	int3
  417b11:	cc                   	int3
  417b12:	cc                   	int3
  417b13:	cc                   	int3
  417b14:	cc                   	int3
  417b15:	cc                   	int3
  417b16:	cc                   	int3
  417b17:	cc                   	int3
  417b18:	cc                   	int3
  417b19:	cc                   	int3
  417b1a:	cc                   	int3
  417b1b:	cc                   	int3
  417b1c:	cc                   	int3
  417b1d:	cc                   	int3
  417b1e:	cc                   	int3
  417b1f:	cc                   	int3
  417b20:	cc                   	int3
  417b21:	cc                   	int3
  417b22:	cc                   	int3
  417b23:	cc                   	int3
  417b24:	cc                   	int3
  417b25:	cc                   	int3
  417b26:	cc                   	int3
  417b27:	cc                   	int3
  417b28:	cc                   	int3
  417b29:	cc                   	int3
  417b2a:	cc                   	int3
  417b2b:	cc                   	int3
  417b2c:	cc                   	int3
  417b2d:	cc                   	int3
  417b2e:	cc                   	int3
  417b2f:	cc                   	int3
  417b30:	cc                   	int3
  417b31:	cc                   	int3
  417b32:	cc                   	int3
  417b33:	cc                   	int3
  417b34:	cc                   	int3
  417b35:	cc                   	int3
  417b36:	cc                   	int3
  417b37:	cc                   	int3
  417b38:	cc                   	int3
  417b39:	cc                   	int3
  417b3a:	cc                   	int3
  417b3b:	cc                   	int3
  417b3c:	cc                   	int3
  417b3d:	cc                   	int3
  417b3e:	cc                   	int3
  417b3f:	cc                   	int3
  417b40:	cc                   	int3
  417b41:	cc                   	int3
  417b42:	cc                   	int3
  417b43:	cc                   	int3
  417b44:	cc                   	int3
  417b45:	cc                   	int3
  417b46:	cc                   	int3
  417b47:	cc                   	int3
  417b48:	cc                   	int3
  417b49:	cc                   	int3
  417b4a:	cc                   	int3
  417b4b:	cc                   	int3
  417b4c:	cc                   	int3
  417b4d:	cc                   	int3
  417b4e:	cc                   	int3
  417b4f:	cc                   	int3
  417b50:	cc                   	int3
  417b51:	cc                   	int3
  417b52:	cc                   	int3
  417b53:	cc                   	int3
  417b54:	cc                   	int3
  417b55:	cc                   	int3
  417b56:	cc                   	int3
  417b57:	cc                   	int3
  417b58:	cc                   	int3
  417b59:	cc                   	int3
  417b5a:	cc                   	int3
  417b5b:	cc                   	int3
  417b5c:	cc                   	int3
  417b5d:	cc                   	int3
  417b5e:	cc                   	int3
  417b5f:	cc                   	int3
  417b60:	cc                   	int3
  417b61:	cc                   	int3
  417b62:	cc                   	int3
  417b63:	cc                   	int3
  417b64:	cc                   	int3
  417b65:	cc                   	int3
  417b66:	cc                   	int3
  417b67:	cc                   	int3
  417b68:	cc                   	int3
  417b69:	cc                   	int3
  417b6a:	cc                   	int3
  417b6b:	cc                   	int3
  417b6c:	cc                   	int3
  417b6d:	cc                   	int3
  417b6e:	cc                   	int3
  417b6f:	cc                   	int3
  417b70:	cc                   	int3
  417b71:	cc                   	int3
  417b72:	cc                   	int3
  417b73:	cc                   	int3
  417b74:	cc                   	int3
  417b75:	cc                   	int3
  417b76:	cc                   	int3
  417b77:	cc                   	int3
  417b78:	cc                   	int3
  417b79:	cc                   	int3
  417b7a:	cc                   	int3
  417b7b:	cc                   	int3
  417b7c:	cc                   	int3
  417b7d:	cc                   	int3
  417b7e:	cc                   	int3
  417b7f:	cc                   	int3
  417b80:	cc                   	int3
  417b81:	cc                   	int3
  417b82:	cc                   	int3
  417b83:	cc                   	int3
  417b84:	cc                   	int3
  417b85:	cc                   	int3
  417b86:	cc                   	int3
  417b87:	cc                   	int3
  417b88:	cc                   	int3
  417b89:	cc                   	int3
  417b8a:	cc                   	int3
  417b8b:	cc                   	int3
  417b8c:	cc                   	int3
  417b8d:	cc                   	int3
  417b8e:	cc                   	int3
  417b8f:	cc                   	int3
  417b90:	cc                   	int3
  417b91:	cc                   	int3
  417b92:	cc                   	int3
  417b93:	cc                   	int3
  417b94:	cc                   	int3
  417b95:	cc                   	int3
  417b96:	cc                   	int3
  417b97:	cc                   	int3
  417b98:	cc                   	int3
  417b99:	cc                   	int3
  417b9a:	cc                   	int3
  417b9b:	cc                   	int3
  417b9c:	cc                   	int3
  417b9d:	cc                   	int3
  417b9e:	cc                   	int3
  417b9f:	cc                   	int3
  417ba0:	cc                   	int3
  417ba1:	cc                   	int3
  417ba2:	cc                   	int3
  417ba3:	cc                   	int3
  417ba4:	cc                   	int3
  417ba5:	cc                   	int3
  417ba6:	cc                   	int3
  417ba7:	cc                   	int3
  417ba8:	cc                   	int3
  417ba9:	cc                   	int3
  417baa:	cc                   	int3
  417bab:	cc                   	int3
  417bac:	cc                   	int3
  417bad:	cc                   	int3
  417bae:	cc                   	int3
  417baf:	cc                   	int3
  417bb0:	cc                   	int3
  417bb1:	cc                   	int3
  417bb2:	cc                   	int3
  417bb3:	cc                   	int3
  417bb4:	cc                   	int3
  417bb5:	cc                   	int3
  417bb6:	cc                   	int3
  417bb7:	cc                   	int3
  417bb8:	cc                   	int3
  417bb9:	cc                   	int3
  417bba:	cc                   	int3
  417bbb:	cc                   	int3
  417bbc:	cc                   	int3
  417bbd:	cc                   	int3
  417bbe:	cc                   	int3
  417bbf:	cc                   	int3
  417bc0:	cc                   	int3
  417bc1:	cc                   	int3
  417bc2:	cc                   	int3
  417bc3:	cc                   	int3
  417bc4:	cc                   	int3
  417bc5:	cc                   	int3
  417bc6:	cc                   	int3
  417bc7:	cc                   	int3
  417bc8:	cc                   	int3
  417bc9:	cc                   	int3
  417bca:	cc                   	int3
  417bcb:	cc                   	int3
  417bcc:	cc                   	int3
  417bcd:	cc                   	int3
  417bce:	cc                   	int3
  417bcf:	cc                   	int3
  417bd0:	cc                   	int3
  417bd1:	cc                   	int3
  417bd2:	cc                   	int3
  417bd3:	cc                   	int3
  417bd4:	cc                   	int3
  417bd5:	cc                   	int3
  417bd6:	cc                   	int3
  417bd7:	cc                   	int3
  417bd8:	cc                   	int3
  417bd9:	cc                   	int3
  417bda:	cc                   	int3
  417bdb:	cc                   	int3
  417bdc:	cc                   	int3
  417bdd:	cc                   	int3
  417bde:	cc                   	int3
  417bdf:	cc                   	int3
  417be0:	cc                   	int3
  417be1:	cc                   	int3
  417be2:	cc                   	int3
  417be3:	cc                   	int3
  417be4:	cc                   	int3
  417be5:	cc                   	int3
  417be6:	cc                   	int3
  417be7:	cc                   	int3
  417be8:	cc                   	int3
  417be9:	cc                   	int3
  417bea:	cc                   	int3
  417beb:	cc                   	int3
  417bec:	cc                   	int3
  417bed:	cc                   	int3
  417bee:	cc                   	int3
  417bef:	cc                   	int3
  417bf0:	cc                   	int3
  417bf1:	cc                   	int3
  417bf2:	cc                   	int3
  417bf3:	cc                   	int3
  417bf4:	cc                   	int3
  417bf5:	cc                   	int3
  417bf6:	cc                   	int3
  417bf7:	cc                   	int3
  417bf8:	cc                   	int3
  417bf9:	cc                   	int3
  417bfa:	cc                   	int3
  417bfb:	cc                   	int3
  417bfc:	cc                   	int3
  417bfd:	cc                   	int3
  417bfe:	cc                   	int3
  417bff:	cc                   	int3
  417c00:	cc                   	int3
  417c01:	cc                   	int3
  417c02:	cc                   	int3
  417c03:	cc                   	int3
  417c04:	cc                   	int3
  417c05:	cc                   	int3
  417c06:	cc                   	int3
  417c07:	cc                   	int3
  417c08:	cc                   	int3
  417c09:	cc                   	int3
  417c0a:	cc                   	int3
  417c0b:	cc                   	int3
  417c0c:	cc                   	int3
  417c0d:	cc                   	int3
  417c0e:	cc                   	int3
  417c0f:	cc                   	int3
  417c10:	cc                   	int3
  417c11:	cc                   	int3
  417c12:	cc                   	int3
  417c13:	cc                   	int3
  417c14:	cc                   	int3
  417c15:	cc                   	int3
  417c16:	cc                   	int3
  417c17:	cc                   	int3
  417c18:	cc                   	int3
  417c19:	cc                   	int3
  417c1a:	cc                   	int3
  417c1b:	cc                   	int3
  417c1c:	cc                   	int3
  417c1d:	cc                   	int3
  417c1e:	cc                   	int3
  417c1f:	cc                   	int3
  417c20:	cc                   	int3
  417c21:	cc                   	int3
  417c22:	cc                   	int3
  417c23:	cc                   	int3
  417c24:	cc                   	int3
  417c25:	cc                   	int3
  417c26:	cc                   	int3
  417c27:	cc                   	int3
  417c28:	cc                   	int3
  417c29:	cc                   	int3
  417c2a:	cc                   	int3
  417c2b:	cc                   	int3
  417c2c:	cc                   	int3
  417c2d:	cc                   	int3
  417c2e:	cc                   	int3
  417c2f:	cc                   	int3
  417c30:	cc                   	int3
  417c31:	cc                   	int3
  417c32:	cc                   	int3
  417c33:	cc                   	int3
  417c34:	cc                   	int3
  417c35:	cc                   	int3
  417c36:	cc                   	int3
  417c37:	cc                   	int3
  417c38:	cc                   	int3
  417c39:	cc                   	int3
  417c3a:	cc                   	int3
  417c3b:	cc                   	int3
  417c3c:	cc                   	int3
  417c3d:	cc                   	int3
  417c3e:	cc                   	int3
  417c3f:	cc                   	int3
  417c40:	cc                   	int3
  417c41:	cc                   	int3
  417c42:	cc                   	int3
  417c43:	cc                   	int3
  417c44:	cc                   	int3
  417c45:	cc                   	int3
  417c46:	cc                   	int3
  417c47:	cc                   	int3
  417c48:	cc                   	int3
  417c49:	cc                   	int3
  417c4a:	cc                   	int3
  417c4b:	cc                   	int3
  417c4c:	cc                   	int3
  417c4d:	cc                   	int3
  417c4e:	cc                   	int3
  417c4f:	cc                   	int3
  417c50:	cc                   	int3
  417c51:	cc                   	int3
  417c52:	cc                   	int3
  417c53:	cc                   	int3
  417c54:	cc                   	int3
  417c55:	cc                   	int3
  417c56:	cc                   	int3
  417c57:	cc                   	int3
  417c58:	cc                   	int3
  417c59:	cc                   	int3
  417c5a:	cc                   	int3
  417c5b:	cc                   	int3
  417c5c:	cc                   	int3
  417c5d:	cc                   	int3
  417c5e:	cc                   	int3
  417c5f:	cc                   	int3
  417c60:	cc                   	int3
  417c61:	cc                   	int3
  417c62:	cc                   	int3
  417c63:	cc                   	int3
  417c64:	cc                   	int3
  417c65:	cc                   	int3
  417c66:	cc                   	int3
  417c67:	cc                   	int3
  417c68:	cc                   	int3
  417c69:	cc                   	int3
  417c6a:	cc                   	int3
  417c6b:	cc                   	int3
  417c6c:	cc                   	int3
  417c6d:	cc                   	int3
  417c6e:	cc                   	int3
  417c6f:	cc                   	int3
  417c70:	cc                   	int3
  417c71:	cc                   	int3
  417c72:	cc                   	int3
  417c73:	cc                   	int3
  417c74:	cc                   	int3
  417c75:	cc                   	int3
  417c76:	cc                   	int3
  417c77:	cc                   	int3
  417c78:	cc                   	int3
  417c79:	cc                   	int3
  417c7a:	cc                   	int3
  417c7b:	cc                   	int3
  417c7c:	cc                   	int3
  417c7d:	cc                   	int3
  417c7e:	cc                   	int3
  417c7f:	cc                   	int3
  417c80:	cc                   	int3
  417c81:	cc                   	int3
  417c82:	cc                   	int3
  417c83:	cc                   	int3
  417c84:	cc                   	int3
  417c85:	cc                   	int3
  417c86:	cc                   	int3
  417c87:	cc                   	int3
  417c88:	cc                   	int3
  417c89:	cc                   	int3
  417c8a:	cc                   	int3
  417c8b:	cc                   	int3
  417c8c:	cc                   	int3
  417c8d:	cc                   	int3
  417c8e:	cc                   	int3
  417c8f:	cc                   	int3
  417c90:	cc                   	int3
  417c91:	cc                   	int3
  417c92:	cc                   	int3
  417c93:	cc                   	int3
  417c94:	cc                   	int3
  417c95:	cc                   	int3
  417c96:	cc                   	int3
  417c97:	cc                   	int3
  417c98:	cc                   	int3
  417c99:	cc                   	int3
  417c9a:	cc                   	int3
  417c9b:	cc                   	int3
  417c9c:	cc                   	int3
  417c9d:	cc                   	int3
  417c9e:	cc                   	int3
  417c9f:	cc                   	int3
  417ca0:	cc                   	int3
  417ca1:	cc                   	int3
  417ca2:	cc                   	int3
  417ca3:	cc                   	int3
  417ca4:	cc                   	int3
  417ca5:	cc                   	int3
  417ca6:	cc                   	int3
  417ca7:	cc                   	int3
  417ca8:	cc                   	int3
  417ca9:	cc                   	int3
  417caa:	cc                   	int3
  417cab:	cc                   	int3
  417cac:	cc                   	int3
  417cad:	cc                   	int3
  417cae:	cc                   	int3
  417caf:	cc                   	int3
  417cb0:	cc                   	int3
  417cb1:	cc                   	int3
  417cb2:	cc                   	int3
  417cb3:	cc                   	int3
  417cb4:	cc                   	int3
  417cb5:	cc                   	int3
  417cb6:	cc                   	int3
  417cb7:	cc                   	int3
  417cb8:	cc                   	int3
  417cb9:	cc                   	int3
  417cba:	cc                   	int3
  417cbb:	cc                   	int3
  417cbc:	cc                   	int3
  417cbd:	cc                   	int3
  417cbe:	cc                   	int3
  417cbf:	cc                   	int3
  417cc0:	cc                   	int3
  417cc1:	cc                   	int3
  417cc2:	cc                   	int3
  417cc3:	cc                   	int3
  417cc4:	cc                   	int3
  417cc5:	cc                   	int3
  417cc6:	cc                   	int3
  417cc7:	cc                   	int3
  417cc8:	cc                   	int3
  417cc9:	cc                   	int3
  417cca:	cc                   	int3
  417ccb:	cc                   	int3
  417ccc:	cc                   	int3
  417ccd:	cc                   	int3
  417cce:	cc                   	int3
  417ccf:	cc                   	int3
  417cd0:	cc                   	int3
  417cd1:	cc                   	int3
  417cd2:	cc                   	int3
  417cd3:	cc                   	int3
  417cd4:	cc                   	int3
  417cd5:	cc                   	int3
  417cd6:	cc                   	int3
  417cd7:	cc                   	int3
  417cd8:	cc                   	int3
  417cd9:	cc                   	int3
  417cda:	cc                   	int3
  417cdb:	cc                   	int3
  417cdc:	cc                   	int3
  417cdd:	cc                   	int3
  417cde:	cc                   	int3
  417cdf:	cc                   	int3
  417ce0:	cc                   	int3
  417ce1:	cc                   	int3
  417ce2:	cc                   	int3
  417ce3:	cc                   	int3
  417ce4:	cc                   	int3
  417ce5:	cc                   	int3
  417ce6:	cc                   	int3
  417ce7:	cc                   	int3
  417ce8:	cc                   	int3
  417ce9:	cc                   	int3
  417cea:	cc                   	int3
  417ceb:	cc                   	int3
  417cec:	cc                   	int3
  417ced:	cc                   	int3
  417cee:	cc                   	int3
  417cef:	cc                   	int3
  417cf0:	cc                   	int3
  417cf1:	cc                   	int3
  417cf2:	cc                   	int3
  417cf3:	cc                   	int3
  417cf4:	cc                   	int3
  417cf5:	cc                   	int3
  417cf6:	cc                   	int3
  417cf7:	cc                   	int3
  417cf8:	cc                   	int3
  417cf9:	cc                   	int3
  417cfa:	cc                   	int3
  417cfb:	cc                   	int3
  417cfc:	cc                   	int3
  417cfd:	cc                   	int3
  417cfe:	cc                   	int3
  417cff:	cc                   	int3
  417d00:	cc                   	int3
  417d01:	cc                   	int3
  417d02:	cc                   	int3
  417d03:	cc                   	int3
  417d04:	cc                   	int3
  417d05:	cc                   	int3
  417d06:	cc                   	int3
  417d07:	cc                   	int3
  417d08:	cc                   	int3
  417d09:	cc                   	int3
  417d0a:	cc                   	int3
  417d0b:	cc                   	int3
  417d0c:	cc                   	int3
  417d0d:	cc                   	int3
  417d0e:	cc                   	int3
  417d0f:	cc                   	int3
  417d10:	cc                   	int3
  417d11:	cc                   	int3
  417d12:	cc                   	int3
  417d13:	cc                   	int3
  417d14:	cc                   	int3
  417d15:	cc                   	int3
  417d16:	cc                   	int3
  417d17:	cc                   	int3
  417d18:	cc                   	int3
  417d19:	cc                   	int3
  417d1a:	cc                   	int3
  417d1b:	cc                   	int3
  417d1c:	cc                   	int3
  417d1d:	cc                   	int3
  417d1e:	cc                   	int3
  417d1f:	cc                   	int3
  417d20:	cc                   	int3
  417d21:	cc                   	int3
  417d22:	cc                   	int3
  417d23:	cc                   	int3
  417d24:	cc                   	int3
  417d25:	cc                   	int3
  417d26:	cc                   	int3
  417d27:	cc                   	int3
  417d28:	cc                   	int3
  417d29:	cc                   	int3
  417d2a:	cc                   	int3
  417d2b:	cc                   	int3
  417d2c:	cc                   	int3
  417d2d:	cc                   	int3
  417d2e:	cc                   	int3
  417d2f:	cc                   	int3
  417d30:	cc                   	int3
  417d31:	cc                   	int3
  417d32:	cc                   	int3
  417d33:	cc                   	int3
  417d34:	cc                   	int3
  417d35:	cc                   	int3
  417d36:	cc                   	int3
  417d37:	cc                   	int3
  417d38:	cc                   	int3
  417d39:	cc                   	int3
  417d3a:	cc                   	int3
  417d3b:	cc                   	int3
  417d3c:	cc                   	int3
  417d3d:	cc                   	int3
  417d3e:	cc                   	int3
  417d3f:	cc                   	int3
  417d40:	cc                   	int3
  417d41:	cc                   	int3
  417d42:	cc                   	int3
  417d43:	cc                   	int3
  417d44:	cc                   	int3
  417d45:	cc                   	int3
  417d46:	cc                   	int3
  417d47:	cc                   	int3
  417d48:	cc                   	int3
  417d49:	cc                   	int3
  417d4a:	cc                   	int3
  417d4b:	cc                   	int3
  417d4c:	cc                   	int3
  417d4d:	cc                   	int3
  417d4e:	cc                   	int3
  417d4f:	cc                   	int3
  417d50:	cc                   	int3
  417d51:	cc                   	int3
  417d52:	cc                   	int3
  417d53:	cc                   	int3
  417d54:	cc                   	int3
  417d55:	cc                   	int3
  417d56:	cc                   	int3
  417d57:	cc                   	int3
  417d58:	cc                   	int3
  417d59:	cc                   	int3
  417d5a:	cc                   	int3
  417d5b:	cc                   	int3
  417d5c:	cc                   	int3
  417d5d:	cc                   	int3
  417d5e:	cc                   	int3
  417d5f:	cc                   	int3
  417d60:	cc                   	int3
  417d61:	cc                   	int3
  417d62:	cc                   	int3
  417d63:	cc                   	int3
  417d64:	cc                   	int3
  417d65:	cc                   	int3
  417d66:	cc                   	int3
  417d67:	cc                   	int3
  417d68:	cc                   	int3
  417d69:	cc                   	int3
  417d6a:	cc                   	int3
  417d6b:	cc                   	int3
  417d6c:	cc                   	int3
  417d6d:	cc                   	int3
  417d6e:	cc                   	int3
  417d6f:	cc                   	int3
  417d70:	cc                   	int3
  417d71:	cc                   	int3
  417d72:	cc                   	int3
  417d73:	cc                   	int3
  417d74:	cc                   	int3
  417d75:	cc                   	int3
  417d76:	cc                   	int3
  417d77:	cc                   	int3
  417d78:	cc                   	int3
  417d79:	cc                   	int3
  417d7a:	cc                   	int3
  417d7b:	cc                   	int3
  417d7c:	cc                   	int3
  417d7d:	cc                   	int3
  417d7e:	cc                   	int3
  417d7f:	cc                   	int3
  417d80:	cc                   	int3
  417d81:	cc                   	int3
  417d82:	cc                   	int3
  417d83:	cc                   	int3
  417d84:	cc                   	int3
  417d85:	cc                   	int3
  417d86:	cc                   	int3
  417d87:	cc                   	int3
  417d88:	cc                   	int3
  417d89:	cc                   	int3
  417d8a:	cc                   	int3
  417d8b:	cc                   	int3
  417d8c:	cc                   	int3
  417d8d:	cc                   	int3
  417d8e:	cc                   	int3
  417d8f:	cc                   	int3
  417d90:	cc                   	int3
  417d91:	cc                   	int3
  417d92:	cc                   	int3
  417d93:	cc                   	int3
  417d94:	cc                   	int3
  417d95:	cc                   	int3
  417d96:	cc                   	int3
  417d97:	cc                   	int3
  417d98:	cc                   	int3
  417d99:	cc                   	int3
  417d9a:	cc                   	int3
  417d9b:	cc                   	int3
  417d9c:	cc                   	int3
  417d9d:	cc                   	int3
  417d9e:	cc                   	int3
  417d9f:	cc                   	int3
  417da0:	cc                   	int3
  417da1:	cc                   	int3
  417da2:	cc                   	int3
  417da3:	cc                   	int3
  417da4:	cc                   	int3
  417da5:	cc                   	int3
  417da6:	cc                   	int3
  417da7:	cc                   	int3
  417da8:	cc                   	int3
  417da9:	cc                   	int3
  417daa:	cc                   	int3
  417dab:	cc                   	int3
  417dac:	cc                   	int3
  417dad:	cc                   	int3
  417dae:	cc                   	int3
  417daf:	cc                   	int3
  417db0:	cc                   	int3
  417db1:	cc                   	int3
  417db2:	cc                   	int3
  417db3:	cc                   	int3
  417db4:	cc                   	int3
  417db5:	cc                   	int3
  417db6:	cc                   	int3
  417db7:	cc                   	int3
  417db8:	cc                   	int3
  417db9:	cc                   	int3
  417dba:	cc                   	int3
  417dbb:	cc                   	int3
  417dbc:	cc                   	int3
  417dbd:	cc                   	int3
  417dbe:	cc                   	int3
  417dbf:	cc                   	int3
  417dc0:	cc                   	int3
  417dc1:	cc                   	int3
  417dc2:	cc                   	int3
  417dc3:	cc                   	int3
  417dc4:	cc                   	int3
  417dc5:	cc                   	int3
  417dc6:	cc                   	int3
  417dc7:	cc                   	int3
  417dc8:	cc                   	int3
  417dc9:	cc                   	int3
  417dca:	cc                   	int3
  417dcb:	cc                   	int3
  417dcc:	cc                   	int3
  417dcd:	cc                   	int3
  417dce:	cc                   	int3
  417dcf:	cc                   	int3
  417dd0:	cc                   	int3
  417dd1:	cc                   	int3
  417dd2:	cc                   	int3
  417dd3:	cc                   	int3
  417dd4:	cc                   	int3
  417dd5:	cc                   	int3
  417dd6:	cc                   	int3
  417dd7:	cc                   	int3
  417dd8:	cc                   	int3
  417dd9:	cc                   	int3
  417dda:	cc                   	int3
  417ddb:	cc                   	int3
  417ddc:	cc                   	int3
  417ddd:	cc                   	int3
  417dde:	cc                   	int3
  417ddf:	cc                   	int3
  417de0:	cc                   	int3
  417de1:	cc                   	int3
  417de2:	cc                   	int3
  417de3:	cc                   	int3
  417de4:	cc                   	int3
  417de5:	cc                   	int3
  417de6:	cc                   	int3
  417de7:	cc                   	int3
  417de8:	cc                   	int3
  417de9:	cc                   	int3
  417dea:	cc                   	int3
  417deb:	cc                   	int3
  417dec:	cc                   	int3
  417ded:	cc                   	int3
  417dee:	cc                   	int3
  417def:	cc                   	int3
  417df0:	cc                   	int3
  417df1:	cc                   	int3
  417df2:	cc                   	int3
  417df3:	cc                   	int3
  417df4:	cc                   	int3
  417df5:	cc                   	int3
  417df6:	cc                   	int3
  417df7:	cc                   	int3
  417df8:	cc                   	int3
  417df9:	cc                   	int3
  417dfa:	cc                   	int3
  417dfb:	cc                   	int3
  417dfc:	cc                   	int3
  417dfd:	cc                   	int3
  417dfe:	cc                   	int3
  417dff:	cc                   	int3
  417e00:	cc                   	int3
  417e01:	cc                   	int3
  417e02:	cc                   	int3
  417e03:	cc                   	int3
  417e04:	cc                   	int3
  417e05:	cc                   	int3
  417e06:	cc                   	int3
  417e07:	cc                   	int3
  417e08:	cc                   	int3
  417e09:	cc                   	int3
  417e0a:	cc                   	int3
  417e0b:	cc                   	int3
  417e0c:	cc                   	int3
  417e0d:	cc                   	int3
  417e0e:	cc                   	int3
  417e0f:	cc                   	int3
  417e10:	cc                   	int3
  417e11:	cc                   	int3
  417e12:	cc                   	int3
  417e13:	cc                   	int3
  417e14:	cc                   	int3
  417e15:	cc                   	int3
  417e16:	cc                   	int3
  417e17:	cc                   	int3
  417e18:	cc                   	int3
  417e19:	cc                   	int3
  417e1a:	cc                   	int3
  417e1b:	cc                   	int3
  417e1c:	cc                   	int3
  417e1d:	cc                   	int3
  417e1e:	cc                   	int3
  417e1f:	cc                   	int3
  417e20:	cc                   	int3
  417e21:	cc                   	int3
  417e22:	cc                   	int3
  417e23:	cc                   	int3
  417e24:	cc                   	int3
  417e25:	cc                   	int3
  417e26:	cc                   	int3
  417e27:	cc                   	int3
  417e28:	cc                   	int3
  417e29:	cc                   	int3
  417e2a:	cc                   	int3
  417e2b:	cc                   	int3
  417e2c:	cc                   	int3
  417e2d:	cc                   	int3
  417e2e:	cc                   	int3
  417e2f:	cc                   	int3
  417e30:	cc                   	int3
  417e31:	cc                   	int3
  417e32:	cc                   	int3
  417e33:	cc                   	int3
  417e34:	cc                   	int3
  417e35:	cc                   	int3
  417e36:	cc                   	int3
  417e37:	cc                   	int3
  417e38:	cc                   	int3
  417e39:	cc                   	int3
  417e3a:	cc                   	int3
  417e3b:	cc                   	int3
  417e3c:	cc                   	int3
  417e3d:	cc                   	int3
  417e3e:	cc                   	int3
  417e3f:	cc                   	int3
  417e40:	cc                   	int3
  417e41:	cc                   	int3
  417e42:	cc                   	int3
  417e43:	cc                   	int3
  417e44:	cc                   	int3
  417e45:	cc                   	int3
  417e46:	cc                   	int3
  417e47:	cc                   	int3
  417e48:	cc                   	int3
  417e49:	cc                   	int3
  417e4a:	cc                   	int3
  417e4b:	cc                   	int3
  417e4c:	cc                   	int3
  417e4d:	cc                   	int3
  417e4e:	cc                   	int3
  417e4f:	cc                   	int3
  417e50:	cc                   	int3
  417e51:	cc                   	int3
  417e52:	cc                   	int3
  417e53:	cc                   	int3
  417e54:	cc                   	int3
  417e55:	cc                   	int3
  417e56:	cc                   	int3
  417e57:	cc                   	int3
  417e58:	cc                   	int3
  417e59:	cc                   	int3
  417e5a:	cc                   	int3
  417e5b:	cc                   	int3
  417e5c:	cc                   	int3
  417e5d:	cc                   	int3
  417e5e:	cc                   	int3
  417e5f:	cc                   	int3
  417e60:	cc                   	int3
  417e61:	cc                   	int3
  417e62:	cc                   	int3
  417e63:	cc                   	int3
  417e64:	cc                   	int3
  417e65:	cc                   	int3
  417e66:	cc                   	int3
  417e67:	cc                   	int3
  417e68:	cc                   	int3
  417e69:	cc                   	int3
  417e6a:	cc                   	int3
  417e6b:	cc                   	int3
  417e6c:	cc                   	int3
  417e6d:	cc                   	int3
  417e6e:	cc                   	int3
  417e6f:	cc                   	int3
  417e70:	cc                   	int3
  417e71:	cc                   	int3
  417e72:	cc                   	int3
  417e73:	cc                   	int3
  417e74:	cc                   	int3
  417e75:	cc                   	int3
  417e76:	cc                   	int3
  417e77:	cc                   	int3
  417e78:	cc                   	int3
  417e79:	cc                   	int3
  417e7a:	cc                   	int3
  417e7b:	cc                   	int3
  417e7c:	cc                   	int3
  417e7d:	cc                   	int3
  417e7e:	cc                   	int3
  417e7f:	cc                   	int3
  417e80:	cc                   	int3
  417e81:	cc                   	int3
  417e82:	cc                   	int3
  417e83:	cc                   	int3
  417e84:	cc                   	int3
  417e85:	cc                   	int3
  417e86:	cc                   	int3
  417e87:	cc                   	int3
  417e88:	cc                   	int3
  417e89:	cc                   	int3
  417e8a:	cc                   	int3
  417e8b:	cc                   	int3
  417e8c:	cc                   	int3
  417e8d:	cc                   	int3
  417e8e:	cc                   	int3
  417e8f:	cc                   	int3
  417e90:	cc                   	int3
  417e91:	cc                   	int3
  417e92:	cc                   	int3
  417e93:	cc                   	int3
  417e94:	cc                   	int3
  417e95:	cc                   	int3
  417e96:	cc                   	int3
  417e97:	cc                   	int3
  417e98:	cc                   	int3
  417e99:	cc                   	int3
  417e9a:	cc                   	int3
  417e9b:	cc                   	int3
  417e9c:	cc                   	int3
  417e9d:	cc                   	int3
  417e9e:	cc                   	int3
  417e9f:	cc                   	int3
  417ea0:	cc                   	int3
  417ea1:	cc                   	int3
  417ea2:	cc                   	int3
  417ea3:	cc                   	int3
  417ea4:	cc                   	int3
  417ea5:	cc                   	int3
  417ea6:	cc                   	int3
  417ea7:	cc                   	int3
  417ea8:	cc                   	int3
  417ea9:	cc                   	int3
  417eaa:	cc                   	int3
  417eab:	cc                   	int3
  417eac:	cc                   	int3
  417ead:	cc                   	int3
  417eae:	cc                   	int3
  417eaf:	cc                   	int3
  417eb0:	cc                   	int3
  417eb1:	cc                   	int3
  417eb2:	cc                   	int3
  417eb3:	cc                   	int3
  417eb4:	cc                   	int3
  417eb5:	cc                   	int3
  417eb6:	cc                   	int3
  417eb7:	cc                   	int3
  417eb8:	cc                   	int3
  417eb9:	cc                   	int3
  417eba:	cc                   	int3
  417ebb:	cc                   	int3
  417ebc:	cc                   	int3
  417ebd:	cc                   	int3
  417ebe:	cc                   	int3
  417ebf:	cc                   	int3
  417ec0:	cc                   	int3
  417ec1:	cc                   	int3
  417ec2:	cc                   	int3
  417ec3:	cc                   	int3
  417ec4:	cc                   	int3
  417ec5:	cc                   	int3
  417ec6:	cc                   	int3
  417ec7:	cc                   	int3
  417ec8:	cc                   	int3
  417ec9:	cc                   	int3
  417eca:	cc                   	int3
  417ecb:	cc                   	int3
  417ecc:	cc                   	int3
  417ecd:	cc                   	int3
  417ece:	cc                   	int3
  417ecf:	cc                   	int3
  417ed0:	cc                   	int3
  417ed1:	cc                   	int3
  417ed2:	cc                   	int3
  417ed3:	cc                   	int3
  417ed4:	cc                   	int3
  417ed5:	cc                   	int3
  417ed6:	cc                   	int3
  417ed7:	cc                   	int3
  417ed8:	cc                   	int3
  417ed9:	cc                   	int3
  417eda:	cc                   	int3
  417edb:	cc                   	int3
  417edc:	cc                   	int3
  417edd:	cc                   	int3
  417ede:	cc                   	int3
  417edf:	cc                   	int3
  417ee0:	cc                   	int3
  417ee1:	cc                   	int3
  417ee2:	cc                   	int3
  417ee3:	cc                   	int3
  417ee4:	cc                   	int3
  417ee5:	cc                   	int3
  417ee6:	cc                   	int3
  417ee7:	cc                   	int3
  417ee8:	cc                   	int3
  417ee9:	cc                   	int3
  417eea:	cc                   	int3
  417eeb:	cc                   	int3
  417eec:	cc                   	int3
  417eed:	cc                   	int3
  417eee:	cc                   	int3
  417eef:	cc                   	int3
  417ef0:	cc                   	int3
  417ef1:	cc                   	int3
  417ef2:	cc                   	int3
  417ef3:	cc                   	int3
  417ef4:	cc                   	int3
  417ef5:	cc                   	int3
  417ef6:	cc                   	int3
  417ef7:	cc                   	int3
  417ef8:	cc                   	int3
  417ef9:	cc                   	int3
  417efa:	cc                   	int3
  417efb:	cc                   	int3
  417efc:	cc                   	int3
  417efd:	cc                   	int3
  417efe:	cc                   	int3
  417eff:	cc                   	int3
  417f00:	cc                   	int3
  417f01:	cc                   	int3
  417f02:	cc                   	int3
  417f03:	cc                   	int3
  417f04:	cc                   	int3
  417f05:	cc                   	int3
  417f06:	cc                   	int3
  417f07:	cc                   	int3
  417f08:	cc                   	int3
  417f09:	cc                   	int3
  417f0a:	cc                   	int3
  417f0b:	cc                   	int3
  417f0c:	cc                   	int3
  417f0d:	cc                   	int3
  417f0e:	cc                   	int3
  417f0f:	cc                   	int3
  417f10:	cc                   	int3
  417f11:	cc                   	int3
  417f12:	cc                   	int3
  417f13:	cc                   	int3
  417f14:	cc                   	int3
  417f15:	cc                   	int3
  417f16:	cc                   	int3
  417f17:	cc                   	int3
  417f18:	cc                   	int3
  417f19:	cc                   	int3
  417f1a:	cc                   	int3
  417f1b:	cc                   	int3
  417f1c:	cc                   	int3
  417f1d:	cc                   	int3
  417f1e:	cc                   	int3
  417f1f:	cc                   	int3
  417f20:	cc                   	int3
  417f21:	cc                   	int3
  417f22:	cc                   	int3
  417f23:	cc                   	int3
  417f24:	cc                   	int3
  417f25:	cc                   	int3
  417f26:	cc                   	int3
  417f27:	cc                   	int3
  417f28:	cc                   	int3
  417f29:	cc                   	int3
  417f2a:	cc                   	int3
  417f2b:	cc                   	int3
  417f2c:	cc                   	int3
  417f2d:	cc                   	int3
  417f2e:	cc                   	int3
  417f2f:	cc                   	int3
  417f30:	cc                   	int3
  417f31:	cc                   	int3
  417f32:	cc                   	int3
  417f33:	cc                   	int3
  417f34:	cc                   	int3
  417f35:	cc                   	int3
  417f36:	cc                   	int3
  417f37:	cc                   	int3
  417f38:	cc                   	int3
  417f39:	cc                   	int3
  417f3a:	cc                   	int3
  417f3b:	cc                   	int3
  417f3c:	cc                   	int3
  417f3d:	cc                   	int3
  417f3e:	cc                   	int3
  417f3f:	cc                   	int3
  417f40:	cc                   	int3
  417f41:	cc                   	int3
  417f42:	cc                   	int3
  417f43:	cc                   	int3
  417f44:	cc                   	int3
  417f45:	cc                   	int3
  417f46:	cc                   	int3
  417f47:	cc                   	int3
  417f48:	cc                   	int3
  417f49:	cc                   	int3
  417f4a:	cc                   	int3
  417f4b:	cc                   	int3
  417f4c:	cc                   	int3
  417f4d:	cc                   	int3
  417f4e:	cc                   	int3
  417f4f:	cc                   	int3
  417f50:	cc                   	int3
  417f51:	cc                   	int3
  417f52:	cc                   	int3
  417f53:	cc                   	int3
  417f54:	cc                   	int3
  417f55:	cc                   	int3
  417f56:	cc                   	int3
  417f57:	cc                   	int3
  417f58:	cc                   	int3
  417f59:	cc                   	int3
  417f5a:	cc                   	int3
  417f5b:	cc                   	int3
  417f5c:	cc                   	int3
  417f5d:	cc                   	int3
  417f5e:	cc                   	int3
  417f5f:	cc                   	int3
  417f60:	cc                   	int3
  417f61:	cc                   	int3
  417f62:	cc                   	int3
  417f63:	cc                   	int3
  417f64:	cc                   	int3
  417f65:	cc                   	int3
  417f66:	cc                   	int3
  417f67:	cc                   	int3
  417f68:	cc                   	int3
  417f69:	cc                   	int3
  417f6a:	cc                   	int3
  417f6b:	cc                   	int3
  417f6c:	cc                   	int3
  417f6d:	cc                   	int3
  417f6e:	cc                   	int3
  417f6f:	cc                   	int3
  417f70:	cc                   	int3
  417f71:	cc                   	int3
  417f72:	cc                   	int3
  417f73:	cc                   	int3
  417f74:	cc                   	int3
  417f75:	cc                   	int3
  417f76:	cc                   	int3
  417f77:	cc                   	int3
  417f78:	cc                   	int3
  417f79:	cc                   	int3
  417f7a:	cc                   	int3
  417f7b:	cc                   	int3
  417f7c:	cc                   	int3
  417f7d:	cc                   	int3
  417f7e:	cc                   	int3
  417f7f:	cc                   	int3
  417f80:	cc                   	int3
  417f81:	cc                   	int3
  417f82:	cc                   	int3
  417f83:	cc                   	int3
  417f84:	cc                   	int3
  417f85:	cc                   	int3
  417f86:	cc                   	int3
  417f87:	cc                   	int3
  417f88:	cc                   	int3
  417f89:	cc                   	int3
  417f8a:	cc                   	int3
  417f8b:	cc                   	int3
  417f8c:	cc                   	int3
  417f8d:	cc                   	int3
  417f8e:	cc                   	int3
  417f8f:	cc                   	int3
  417f90:	cc                   	int3
  417f91:	cc                   	int3
  417f92:	cc                   	int3
  417f93:	cc                   	int3
  417f94:	cc                   	int3
  417f95:	cc                   	int3
  417f96:	cc                   	int3
  417f97:	cc                   	int3
  417f98:	cc                   	int3
  417f99:	cc                   	int3
  417f9a:	cc                   	int3
  417f9b:	cc                   	int3
  417f9c:	cc                   	int3
  417f9d:	cc                   	int3
  417f9e:	cc                   	int3
  417f9f:	cc                   	int3
  417fa0:	cc                   	int3
  417fa1:	cc                   	int3
  417fa2:	cc                   	int3
  417fa3:	cc                   	int3
  417fa4:	cc                   	int3
  417fa5:	cc                   	int3
  417fa6:	cc                   	int3
  417fa7:	cc                   	int3
  417fa8:	cc                   	int3
  417fa9:	cc                   	int3
  417faa:	cc                   	int3
  417fab:	cc                   	int3
  417fac:	cc                   	int3
  417fad:	cc                   	int3
  417fae:	cc                   	int3
  417faf:	cc                   	int3
  417fb0:	cc                   	int3
  417fb1:	cc                   	int3
  417fb2:	cc                   	int3
  417fb3:	cc                   	int3
  417fb4:	cc                   	int3
  417fb5:	cc                   	int3
  417fb6:	cc                   	int3
  417fb7:	cc                   	int3
  417fb8:	cc                   	int3
  417fb9:	cc                   	int3
  417fba:	cc                   	int3
  417fbb:	cc                   	int3
  417fbc:	cc                   	int3
  417fbd:	cc                   	int3
  417fbe:	cc                   	int3
  417fbf:	cc                   	int3
  417fc0:	cc                   	int3
  417fc1:	cc                   	int3
  417fc2:	cc                   	int3
  417fc3:	cc                   	int3
  417fc4:	cc                   	int3
  417fc5:	cc                   	int3
  417fc6:	cc                   	int3
  417fc7:	cc                   	int3
  417fc8:	cc                   	int3
  417fc9:	cc                   	int3
  417fca:	cc                   	int3
  417fcb:	cc                   	int3
  417fcc:	cc                   	int3
  417fcd:	cc                   	int3
  417fce:	cc                   	int3
  417fcf:	cc                   	int3
  417fd0:	cc                   	int3
  417fd1:	cc                   	int3
  417fd2:	cc                   	int3
  417fd3:	cc                   	int3
  417fd4:	cc                   	int3
  417fd5:	cc                   	int3
  417fd6:	cc                   	int3
  417fd7:	cc                   	int3
  417fd8:	cc                   	int3
  417fd9:	cc                   	int3
  417fda:	cc                   	int3
  417fdb:	cc                   	int3
  417fdc:	cc                   	int3
  417fdd:	cc                   	int3
  417fde:	cc                   	int3
  417fdf:	cc                   	int3
  417fe0:	cc                   	int3
  417fe1:	cc                   	int3
  417fe2:	cc                   	int3
  417fe3:	cc                   	int3
  417fe4:	cc                   	int3
  417fe5:	cc                   	int3
  417fe6:	cc                   	int3
  417fe7:	cc                   	int3
  417fe8:	cc                   	int3
  417fe9:	cc                   	int3
  417fea:	cc                   	int3
  417feb:	cc                   	int3
  417fec:	cc                   	int3
  417fed:	cc                   	int3
  417fee:	cc                   	int3
  417fef:	cc                   	int3
  417ff0:	cc                   	int3
  417ff1:	cc                   	int3
  417ff2:	cc                   	int3
  417ff3:	cc                   	int3
  417ff4:	cc                   	int3
  417ff5:	cc                   	int3
  417ff6:	cc                   	int3
  417ff7:	cc                   	int3
  417ff8:	cc                   	int3
  417ff9:	cc                   	int3
  417ffa:	cc                   	int3
  417ffb:	cc                   	int3
  417ffc:	cc                   	int3
  417ffd:	cc                   	int3
  417ffe:	cc                   	int3
  417fff:	cc                   	int3
  418000:	cc                   	int3
  418001:	cc                   	int3
  418002:	cc                   	int3
  418003:	cc                   	int3
  418004:	cc                   	int3
  418005:	cc                   	int3
  418006:	cc                   	int3
  418007:	cc                   	int3
  418008:	cc                   	int3
  418009:	cc                   	int3
  41800a:	cc                   	int3
  41800b:	cc                   	int3
  41800c:	cc                   	int3
  41800d:	cc                   	int3
  41800e:	cc                   	int3
  41800f:	cc                   	int3
  418010:	cc                   	int3
  418011:	cc                   	int3
  418012:	cc                   	int3
  418013:	cc                   	int3
  418014:	cc                   	int3
  418015:	cc                   	int3
  418016:	cc                   	int3
  418017:	cc                   	int3
  418018:	cc                   	int3
  418019:	cc                   	int3
  41801a:	cc                   	int3
  41801b:	cc                   	int3
  41801c:	cc                   	int3
  41801d:	cc                   	int3
  41801e:	cc                   	int3
  41801f:	cc                   	int3
  418020:	cc                   	int3
  418021:	cc                   	int3
  418022:	cc                   	int3
  418023:	cc                   	int3
  418024:	cc                   	int3
  418025:	cc                   	int3
  418026:	cc                   	int3
  418027:	cc                   	int3
  418028:	cc                   	int3
  418029:	cc                   	int3
  41802a:	cc                   	int3
  41802b:	cc                   	int3
  41802c:	cc                   	int3
  41802d:	cc                   	int3
  41802e:	cc                   	int3
  41802f:	cc                   	int3
  418030:	cc                   	int3
  418031:	cc                   	int3
  418032:	cc                   	int3
  418033:	cc                   	int3
  418034:	cc                   	int3
  418035:	cc                   	int3
  418036:	cc                   	int3
  418037:	cc                   	int3
  418038:	cc                   	int3
  418039:	cc                   	int3
  41803a:	cc                   	int3
  41803b:	cc                   	int3
  41803c:	cc                   	int3
  41803d:	cc                   	int3
  41803e:	cc                   	int3
  41803f:	cc                   	int3
  418040:	cc                   	int3
  418041:	cc                   	int3
  418042:	cc                   	int3
  418043:	cc                   	int3
  418044:	cc                   	int3
  418045:	cc                   	int3
  418046:	cc                   	int3
  418047:	cc                   	int3
  418048:	cc                   	int3
  418049:	cc                   	int3
  41804a:	cc                   	int3
  41804b:	cc                   	int3
  41804c:	cc                   	int3
  41804d:	cc                   	int3
  41804e:	cc                   	int3
  41804f:	cc                   	int3
  418050:	cc                   	int3
  418051:	cc                   	int3
  418052:	cc                   	int3
  418053:	cc                   	int3
  418054:	cc                   	int3
  418055:	cc                   	int3
  418056:	cc                   	int3
  418057:	cc                   	int3
  418058:	cc                   	int3
  418059:	cc                   	int3
  41805a:	cc                   	int3
  41805b:	cc                   	int3
  41805c:	cc                   	int3
  41805d:	cc                   	int3
  41805e:	cc                   	int3
  41805f:	cc                   	int3
  418060:	cc                   	int3
  418061:	cc                   	int3
  418062:	cc                   	int3
  418063:	cc                   	int3
  418064:	cc                   	int3
  418065:	cc                   	int3
  418066:	cc                   	int3
  418067:	cc                   	int3
  418068:	cc                   	int3
  418069:	cc                   	int3
  41806a:	cc                   	int3
  41806b:	cc                   	int3
  41806c:	cc                   	int3
  41806d:	cc                   	int3
  41806e:	cc                   	int3
  41806f:	cc                   	int3
  418070:	cc                   	int3
  418071:	cc                   	int3
  418072:	cc                   	int3
  418073:	cc                   	int3
  418074:	cc                   	int3
  418075:	cc                   	int3
  418076:	cc                   	int3
  418077:	cc                   	int3
  418078:	cc                   	int3
  418079:	cc                   	int3
  41807a:	cc                   	int3
  41807b:	cc                   	int3
  41807c:	cc                   	int3
  41807d:	cc                   	int3
  41807e:	cc                   	int3
  41807f:	cc                   	int3
  418080:	cc                   	int3
  418081:	cc                   	int3
  418082:	cc                   	int3
  418083:	cc                   	int3
  418084:	cc                   	int3
  418085:	cc                   	int3
  418086:	cc                   	int3
  418087:	cc                   	int3
  418088:	cc                   	int3
  418089:	cc                   	int3
  41808a:	cc                   	int3
  41808b:	cc                   	int3
  41808c:	cc                   	int3
  41808d:	cc                   	int3
  41808e:	cc                   	int3
  41808f:	cc                   	int3
  418090:	cc                   	int3
  418091:	cc                   	int3
  418092:	cc                   	int3
  418093:	cc                   	int3
  418094:	cc                   	int3
  418095:	cc                   	int3
  418096:	cc                   	int3
  418097:	cc                   	int3
  418098:	cc                   	int3
  418099:	cc                   	int3
  41809a:	cc                   	int3
  41809b:	cc                   	int3
  41809c:	cc                   	int3
  41809d:	cc                   	int3
  41809e:	cc                   	int3
  41809f:	cc                   	int3
  4180a0:	cc                   	int3
  4180a1:	cc                   	int3
  4180a2:	cc                   	int3
  4180a3:	cc                   	int3
  4180a4:	cc                   	int3
  4180a5:	cc                   	int3
  4180a6:	cc                   	int3
  4180a7:	cc                   	int3
  4180a8:	cc                   	int3
  4180a9:	cc                   	int3
  4180aa:	cc                   	int3
  4180ab:	cc                   	int3
  4180ac:	cc                   	int3
  4180ad:	cc                   	int3
  4180ae:	cc                   	int3
  4180af:	cc                   	int3
  4180b0:	cc                   	int3
  4180b1:	cc                   	int3
  4180b2:	cc                   	int3
  4180b3:	cc                   	int3
  4180b4:	cc                   	int3
  4180b5:	cc                   	int3
  4180b6:	cc                   	int3
  4180b7:	cc                   	int3
  4180b8:	cc                   	int3
  4180b9:	cc                   	int3
  4180ba:	cc                   	int3
  4180bb:	cc                   	int3
  4180bc:	cc                   	int3
  4180bd:	cc                   	int3
  4180be:	cc                   	int3
  4180bf:	cc                   	int3
  4180c0:	cc                   	int3
  4180c1:	cc                   	int3
  4180c2:	cc                   	int3
  4180c3:	cc                   	int3
  4180c4:	cc                   	int3
  4180c5:	cc                   	int3
  4180c6:	cc                   	int3
  4180c7:	cc                   	int3
  4180c8:	cc                   	int3
  4180c9:	cc                   	int3
  4180ca:	cc                   	int3
  4180cb:	cc                   	int3
  4180cc:	cc                   	int3
  4180cd:	cc                   	int3
  4180ce:	cc                   	int3
  4180cf:	cc                   	int3
  4180d0:	cc                   	int3
  4180d1:	cc                   	int3
  4180d2:	cc                   	int3
  4180d3:	cc                   	int3
  4180d4:	cc                   	int3
  4180d5:	cc                   	int3
  4180d6:	cc                   	int3
  4180d7:	cc                   	int3
  4180d8:	cc                   	int3
  4180d9:	cc                   	int3
  4180da:	cc                   	int3
  4180db:	cc                   	int3
  4180dc:	cc                   	int3
  4180dd:	cc                   	int3
  4180de:	cc                   	int3
  4180df:	cc                   	int3
  4180e0:	cc                   	int3
  4180e1:	cc                   	int3
  4180e2:	cc                   	int3
  4180e3:	cc                   	int3
  4180e4:	cc                   	int3
  4180e5:	cc                   	int3
  4180e6:	cc                   	int3
  4180e7:	cc                   	int3
  4180e8:	cc                   	int3
  4180e9:	cc                   	int3
  4180ea:	cc                   	int3
  4180eb:	cc                   	int3
  4180ec:	cc                   	int3
  4180ed:	cc                   	int3
  4180ee:	cc                   	int3
  4180ef:	cc                   	int3
  4180f0:	cc                   	int3
  4180f1:	cc                   	int3
  4180f2:	cc                   	int3
  4180f3:	cc                   	int3
  4180f4:	cc                   	int3
  4180f5:	cc                   	int3
  4180f6:	cc                   	int3
  4180f7:	cc                   	int3
  4180f8:	cc                   	int3
  4180f9:	cc                   	int3
  4180fa:	cc                   	int3
  4180fb:	cc                   	int3
  4180fc:	cc                   	int3
  4180fd:	cc                   	int3
  4180fe:	cc                   	int3
  4180ff:	cc                   	int3
  418100:	cc                   	int3
  418101:	cc                   	int3
  418102:	cc                   	int3
  418103:	cc                   	int3
  418104:	cc                   	int3
  418105:	cc                   	int3
  418106:	cc                   	int3
  418107:	cc                   	int3
  418108:	cc                   	int3
  418109:	cc                   	int3
  41810a:	cc                   	int3
  41810b:	cc                   	int3
  41810c:	cc                   	int3
  41810d:	cc                   	int3
  41810e:	cc                   	int3
  41810f:	cc                   	int3
  418110:	cc                   	int3
  418111:	cc                   	int3
  418112:	cc                   	int3
  418113:	cc                   	int3
  418114:	cc                   	int3
  418115:	cc                   	int3
  418116:	cc                   	int3
  418117:	cc                   	int3
  418118:	cc                   	int3
  418119:	cc                   	int3
  41811a:	cc                   	int3
  41811b:	cc                   	int3
  41811c:	cc                   	int3
  41811d:	cc                   	int3
  41811e:	cc                   	int3
  41811f:	cc                   	int3
  418120:	cc                   	int3
  418121:	cc                   	int3
  418122:	cc                   	int3
  418123:	cc                   	int3
  418124:	cc                   	int3
  418125:	cc                   	int3
  418126:	cc                   	int3
  418127:	cc                   	int3
  418128:	cc                   	int3
  418129:	cc                   	int3
  41812a:	cc                   	int3
  41812b:	cc                   	int3
  41812c:	cc                   	int3
  41812d:	cc                   	int3
  41812e:	cc                   	int3
  41812f:	cc                   	int3
  418130:	cc                   	int3
  418131:	cc                   	int3
  418132:	cc                   	int3
  418133:	cc                   	int3
  418134:	cc                   	int3
  418135:	cc                   	int3
  418136:	cc                   	int3
  418137:	cc                   	int3
  418138:	cc                   	int3
  418139:	cc                   	int3
  41813a:	cc                   	int3
  41813b:	cc                   	int3
  41813c:	cc                   	int3
  41813d:	cc                   	int3
  41813e:	cc                   	int3
  41813f:	cc                   	int3
  418140:	cc                   	int3
  418141:	cc                   	int3
  418142:	cc                   	int3
  418143:	cc                   	int3
  418144:	cc                   	int3
  418145:	cc                   	int3
  418146:	cc                   	int3
  418147:	cc                   	int3
  418148:	cc                   	int3
  418149:	cc                   	int3
  41814a:	cc                   	int3
  41814b:	cc                   	int3
  41814c:	cc                   	int3
  41814d:	cc                   	int3
  41814e:	cc                   	int3
  41814f:	cc                   	int3
  418150:	cc                   	int3
  418151:	cc                   	int3
  418152:	cc                   	int3
  418153:	cc                   	int3
  418154:	cc                   	int3
  418155:	cc                   	int3
  418156:	cc                   	int3
  418157:	cc                   	int3
  418158:	cc                   	int3
  418159:	cc                   	int3
  41815a:	cc                   	int3
  41815b:	cc                   	int3
  41815c:	cc                   	int3
  41815d:	cc                   	int3
  41815e:	cc                   	int3
  41815f:	cc                   	int3
  418160:	cc                   	int3
  418161:	cc                   	int3
  418162:	cc                   	int3
  418163:	cc                   	int3
  418164:	cc                   	int3
  418165:	cc                   	int3
  418166:	cc                   	int3
  418167:	cc                   	int3
  418168:	cc                   	int3
  418169:	cc                   	int3
  41816a:	cc                   	int3
  41816b:	cc                   	int3
  41816c:	cc                   	int3
  41816d:	cc                   	int3
  41816e:	cc                   	int3
  41816f:	cc                   	int3
  418170:	cc                   	int3
  418171:	cc                   	int3
  418172:	cc                   	int3
  418173:	cc                   	int3
  418174:	cc                   	int3
  418175:	cc                   	int3
  418176:	cc                   	int3
  418177:	cc                   	int3
  418178:	cc                   	int3
  418179:	cc                   	int3
  41817a:	cc                   	int3
  41817b:	cc                   	int3
  41817c:	cc                   	int3
  41817d:	cc                   	int3
  41817e:	cc                   	int3
  41817f:	cc                   	int3
  418180:	cc                   	int3
  418181:	cc                   	int3
  418182:	cc                   	int3
  418183:	cc                   	int3
  418184:	cc                   	int3
  418185:	cc                   	int3
  418186:	cc                   	int3
  418187:	cc                   	int3
  418188:	cc                   	int3
  418189:	cc                   	int3
  41818a:	cc                   	int3
  41818b:	cc                   	int3
  41818c:	cc                   	int3
  41818d:	cc                   	int3
  41818e:	cc                   	int3
  41818f:	cc                   	int3
  418190:	cc                   	int3
  418191:	cc                   	int3
  418192:	cc                   	int3
  418193:	cc                   	int3
  418194:	cc                   	int3
  418195:	cc                   	int3
  418196:	cc                   	int3
  418197:	cc                   	int3
  418198:	cc                   	int3
  418199:	cc                   	int3
  41819a:	cc                   	int3
  41819b:	cc                   	int3
  41819c:	cc                   	int3
  41819d:	cc                   	int3
  41819e:	cc                   	int3
  41819f:	cc                   	int3
  4181a0:	cc                   	int3
  4181a1:	cc                   	int3
  4181a2:	cc                   	int3
  4181a3:	cc                   	int3
  4181a4:	cc                   	int3
  4181a5:	cc                   	int3
  4181a6:	cc                   	int3
  4181a7:	cc                   	int3
  4181a8:	cc                   	int3
  4181a9:	cc                   	int3
  4181aa:	cc                   	int3
  4181ab:	cc                   	int3
  4181ac:	cc                   	int3
  4181ad:	cc                   	int3
  4181ae:	cc                   	int3
  4181af:	cc                   	int3
  4181b0:	cc                   	int3
  4181b1:	cc                   	int3
  4181b2:	cc                   	int3
  4181b3:	cc                   	int3
  4181b4:	cc                   	int3
  4181b5:	cc                   	int3
  4181b6:	cc                   	int3
  4181b7:	cc                   	int3
  4181b8:	cc                   	int3
  4181b9:	cc                   	int3
  4181ba:	cc                   	int3
  4181bb:	cc                   	int3
  4181bc:	cc                   	int3
  4181bd:	cc                   	int3
  4181be:	cc                   	int3
  4181bf:	cc                   	int3
  4181c0:	cc                   	int3
  4181c1:	cc                   	int3
  4181c2:	cc                   	int3
  4181c3:	cc                   	int3
  4181c4:	cc                   	int3
  4181c5:	cc                   	int3
  4181c6:	cc                   	int3
  4181c7:	cc                   	int3
  4181c8:	cc                   	int3
  4181c9:	cc                   	int3
  4181ca:	cc                   	int3
  4181cb:	cc                   	int3
  4181cc:	cc                   	int3
  4181cd:	cc                   	int3
  4181ce:	cc                   	int3
  4181cf:	cc                   	int3
  4181d0:	cc                   	int3
  4181d1:	cc                   	int3
  4181d2:	cc                   	int3
  4181d3:	cc                   	int3
  4181d4:	cc                   	int3
  4181d5:	cc                   	int3
  4181d6:	cc                   	int3
  4181d7:	cc                   	int3
  4181d8:	cc                   	int3
  4181d9:	cc                   	int3
  4181da:	cc                   	int3
  4181db:	cc                   	int3
  4181dc:	cc                   	int3
  4181dd:	cc                   	int3
  4181de:	cc                   	int3
  4181df:	cc                   	int3
  4181e0:	cc                   	int3
  4181e1:	cc                   	int3
  4181e2:	cc                   	int3
  4181e3:	cc                   	int3
  4181e4:	cc                   	int3
  4181e5:	cc                   	int3
  4181e6:	cc                   	int3
  4181e7:	cc                   	int3
  4181e8:	cc                   	int3
  4181e9:	cc                   	int3
  4181ea:	cc                   	int3
  4181eb:	cc                   	int3
  4181ec:	cc                   	int3
  4181ed:	cc                   	int3
  4181ee:	cc                   	int3
  4181ef:	cc                   	int3
  4181f0:	cc                   	int3
  4181f1:	cc                   	int3
  4181f2:	cc                   	int3
  4181f3:	cc                   	int3
  4181f4:	cc                   	int3
  4181f5:	cc                   	int3
  4181f6:	cc                   	int3
  4181f7:	cc                   	int3
  4181f8:	cc                   	int3
  4181f9:	cc                   	int3
  4181fa:	cc                   	int3
  4181fb:	cc                   	int3
  4181fc:	cc                   	int3
  4181fd:	cc                   	int3
  4181fe:	cc                   	int3
  4181ff:	cc                   	int3
  418200:	cc                   	int3
  418201:	cc                   	int3
  418202:	cc                   	int3
  418203:	cc                   	int3
  418204:	cc                   	int3
  418205:	cc                   	int3
  418206:	cc                   	int3
  418207:	cc                   	int3
  418208:	cc                   	int3
  418209:	cc                   	int3
  41820a:	cc                   	int3
  41820b:	cc                   	int3
  41820c:	cc                   	int3
  41820d:	cc                   	int3
  41820e:	cc                   	int3
  41820f:	cc                   	int3
  418210:	cc                   	int3
  418211:	cc                   	int3
  418212:	cc                   	int3
  418213:	cc                   	int3
  418214:	cc                   	int3
  418215:	cc                   	int3
  418216:	cc                   	int3
  418217:	cc                   	int3
  418218:	cc                   	int3
  418219:	cc                   	int3
  41821a:	cc                   	int3
  41821b:	cc                   	int3
  41821c:	cc                   	int3
  41821d:	cc                   	int3
  41821e:	cc                   	int3
  41821f:	cc                   	int3
  418220:	cc                   	int3
  418221:	cc                   	int3
  418222:	cc                   	int3
  418223:	cc                   	int3
  418224:	cc                   	int3
  418225:	cc                   	int3
  418226:	cc                   	int3
  418227:	cc                   	int3
  418228:	cc                   	int3
  418229:	cc                   	int3
  41822a:	cc                   	int3
  41822b:	cc                   	int3
  41822c:	cc                   	int3
  41822d:	cc                   	int3
  41822e:	cc                   	int3
  41822f:	cc                   	int3
  418230:	cc                   	int3
  418231:	cc                   	int3
  418232:	cc                   	int3
  418233:	cc                   	int3
  418234:	cc                   	int3
  418235:	cc                   	int3
  418236:	cc                   	int3
  418237:	cc                   	int3
  418238:	cc                   	int3
  418239:	cc                   	int3
  41823a:	cc                   	int3
  41823b:	cc                   	int3
  41823c:	cc                   	int3
  41823d:	cc                   	int3
  41823e:	cc                   	int3
  41823f:	cc                   	int3
  418240:	cc                   	int3
  418241:	cc                   	int3
  418242:	cc                   	int3
  418243:	cc                   	int3
  418244:	cc                   	int3
  418245:	cc                   	int3
  418246:	cc                   	int3
  418247:	cc                   	int3
  418248:	cc                   	int3
  418249:	cc                   	int3
  41824a:	cc                   	int3
  41824b:	cc                   	int3
  41824c:	cc                   	int3
  41824d:	cc                   	int3
  41824e:	cc                   	int3
  41824f:	cc                   	int3
  418250:	cc                   	int3
  418251:	cc                   	int3
  418252:	cc                   	int3
  418253:	cc                   	int3
  418254:	cc                   	int3
  418255:	cc                   	int3
  418256:	cc                   	int3
  418257:	cc                   	int3
  418258:	cc                   	int3
  418259:	cc                   	int3
  41825a:	cc                   	int3
  41825b:	cc                   	int3
  41825c:	cc                   	int3
  41825d:	cc                   	int3
  41825e:	cc                   	int3
  41825f:	cc                   	int3
  418260:	cc                   	int3
  418261:	cc                   	int3
  418262:	cc                   	int3
  418263:	cc                   	int3
  418264:	cc                   	int3
  418265:	cc                   	int3
  418266:	cc                   	int3
  418267:	cc                   	int3
  418268:	cc                   	int3
  418269:	cc                   	int3
  41826a:	cc                   	int3
  41826b:	cc                   	int3
  41826c:	cc                   	int3
  41826d:	cc                   	int3
  41826e:	cc                   	int3
  41826f:	cc                   	int3
  418270:	cc                   	int3
  418271:	cc                   	int3
  418272:	cc                   	int3
  418273:	cc                   	int3
  418274:	cc                   	int3
  418275:	cc                   	int3
  418276:	cc                   	int3
  418277:	cc                   	int3
  418278:	cc                   	int3
  418279:	cc                   	int3
  41827a:	cc                   	int3
  41827b:	cc                   	int3
  41827c:	cc                   	int3
  41827d:	cc                   	int3
  41827e:	cc                   	int3
  41827f:	cc                   	int3
  418280:	cc                   	int3
  418281:	cc                   	int3
  418282:	cc                   	int3
  418283:	cc                   	int3
  418284:	cc                   	int3
  418285:	cc                   	int3
  418286:	cc                   	int3
  418287:	cc                   	int3
  418288:	cc                   	int3
  418289:	cc                   	int3
  41828a:	cc                   	int3
  41828b:	cc                   	int3
  41828c:	cc                   	int3
  41828d:	cc                   	int3
  41828e:	cc                   	int3
  41828f:	cc                   	int3
  418290:	cc                   	int3
  418291:	cc                   	int3
  418292:	cc                   	int3
  418293:	cc                   	int3
  418294:	cc                   	int3
  418295:	cc                   	int3
  418296:	cc                   	int3
  418297:	cc                   	int3
  418298:	cc                   	int3
  418299:	cc                   	int3
  41829a:	cc                   	int3
  41829b:	cc                   	int3
  41829c:	cc                   	int3
  41829d:	cc                   	int3
  41829e:	cc                   	int3
  41829f:	cc                   	int3
  4182a0:	cc                   	int3
  4182a1:	cc                   	int3
  4182a2:	cc                   	int3
  4182a3:	cc                   	int3
  4182a4:	cc                   	int3
  4182a5:	cc                   	int3
  4182a6:	cc                   	int3
  4182a7:	cc                   	int3
  4182a8:	cc                   	int3
  4182a9:	cc                   	int3
  4182aa:	cc                   	int3
  4182ab:	cc                   	int3
  4182ac:	cc                   	int3
  4182ad:	cc                   	int3
  4182ae:	cc                   	int3
  4182af:	cc                   	int3
  4182b0:	cc                   	int3
  4182b1:	cc                   	int3
  4182b2:	cc                   	int3
  4182b3:	cc                   	int3
  4182b4:	cc                   	int3
  4182b5:	cc                   	int3
  4182b6:	cc                   	int3
  4182b7:	cc                   	int3
  4182b8:	cc                   	int3
  4182b9:	cc                   	int3
  4182ba:	cc                   	int3
  4182bb:	cc                   	int3
  4182bc:	cc                   	int3
  4182bd:	cc                   	int3
  4182be:	cc                   	int3
  4182bf:	cc                   	int3
  4182c0:	cc                   	int3
  4182c1:	cc                   	int3
  4182c2:	cc                   	int3
  4182c3:	cc                   	int3
  4182c4:	cc                   	int3
  4182c5:	cc                   	int3
  4182c6:	cc                   	int3
  4182c7:	cc                   	int3
  4182c8:	cc                   	int3
  4182c9:	cc                   	int3
  4182ca:	cc                   	int3
  4182cb:	cc                   	int3
  4182cc:	cc                   	int3
  4182cd:	cc                   	int3
  4182ce:	cc                   	int3
  4182cf:	cc                   	int3
  4182d0:	cc                   	int3
  4182d1:	cc                   	int3
  4182d2:	cc                   	int3
  4182d3:	cc                   	int3
  4182d4:	cc                   	int3
  4182d5:	cc                   	int3
  4182d6:	cc                   	int3
  4182d7:	cc                   	int3
  4182d8:	cc                   	int3
  4182d9:	cc                   	int3
  4182da:	cc                   	int3
  4182db:	cc                   	int3
  4182dc:	cc                   	int3
  4182dd:	cc                   	int3
  4182de:	cc                   	int3
  4182df:	cc                   	int3
  4182e0:	cc                   	int3
  4182e1:	cc                   	int3
  4182e2:	cc                   	int3
  4182e3:	cc                   	int3
  4182e4:	cc                   	int3
  4182e5:	cc                   	int3
  4182e6:	cc                   	int3
  4182e7:	cc                   	int3
  4182e8:	cc                   	int3
  4182e9:	cc                   	int3
  4182ea:	cc                   	int3
  4182eb:	cc                   	int3
  4182ec:	cc                   	int3
  4182ed:	cc                   	int3
  4182ee:	cc                   	int3
  4182ef:	cc                   	int3
  4182f0:	cc                   	int3
  4182f1:	cc                   	int3
  4182f2:	cc                   	int3
  4182f3:	cc                   	int3
  4182f4:	cc                   	int3
  4182f5:	cc                   	int3
  4182f6:	cc                   	int3
  4182f7:	cc                   	int3
  4182f8:	cc                   	int3
  4182f9:	cc                   	int3
  4182fa:	cc                   	int3
  4182fb:	cc                   	int3
  4182fc:	cc                   	int3
  4182fd:	cc                   	int3
  4182fe:	cc                   	int3
  4182ff:	cc                   	int3
  418300:	cc                   	int3
  418301:	cc                   	int3
  418302:	cc                   	int3
  418303:	cc                   	int3
  418304:	cc                   	int3
  418305:	cc                   	int3
  418306:	cc                   	int3
  418307:	cc                   	int3
  418308:	cc                   	int3
  418309:	cc                   	int3
  41830a:	cc                   	int3
  41830b:	cc                   	int3
  41830c:	cc                   	int3
  41830d:	cc                   	int3
  41830e:	cc                   	int3
  41830f:	cc                   	int3
  418310:	cc                   	int3
  418311:	cc                   	int3
  418312:	cc                   	int3
  418313:	cc                   	int3
  418314:	cc                   	int3
  418315:	cc                   	int3
  418316:	cc                   	int3
  418317:	cc                   	int3
  418318:	cc                   	int3
  418319:	cc                   	int3
  41831a:	cc                   	int3
  41831b:	cc                   	int3
  41831c:	cc                   	int3
  41831d:	cc                   	int3
  41831e:	cc                   	int3
  41831f:	cc                   	int3
  418320:	cc                   	int3
  418321:	cc                   	int3
  418322:	cc                   	int3
  418323:	cc                   	int3
  418324:	cc                   	int3
  418325:	cc                   	int3
  418326:	cc                   	int3
  418327:	cc                   	int3
  418328:	cc                   	int3
  418329:	cc                   	int3
  41832a:	cc                   	int3
  41832b:	cc                   	int3
  41832c:	cc                   	int3
  41832d:	cc                   	int3
  41832e:	cc                   	int3
  41832f:	cc                   	int3
  418330:	cc                   	int3
  418331:	cc                   	int3
  418332:	cc                   	int3
  418333:	cc                   	int3
  418334:	cc                   	int3
  418335:	cc                   	int3
  418336:	cc                   	int3
  418337:	cc                   	int3
  418338:	cc                   	int3
  418339:	cc                   	int3
  41833a:	cc                   	int3
  41833b:	cc                   	int3
  41833c:	cc                   	int3
  41833d:	cc                   	int3
  41833e:	cc                   	int3
  41833f:	cc                   	int3
  418340:	cc                   	int3
  418341:	cc                   	int3
  418342:	cc                   	int3
  418343:	cc                   	int3
  418344:	cc                   	int3
  418345:	cc                   	int3
  418346:	cc                   	int3
  418347:	cc                   	int3
  418348:	cc                   	int3
  418349:	cc                   	int3
  41834a:	cc                   	int3
  41834b:	cc                   	int3
  41834c:	cc                   	int3
  41834d:	cc                   	int3
  41834e:	cc                   	int3
  41834f:	cc                   	int3
  418350:	cc                   	int3
  418351:	cc                   	int3
  418352:	cc                   	int3
  418353:	cc                   	int3
  418354:	cc                   	int3
  418355:	cc                   	int3
  418356:	cc                   	int3
  418357:	cc                   	int3
  418358:	cc                   	int3
  418359:	cc                   	int3
  41835a:	cc                   	int3
  41835b:	cc                   	int3
  41835c:	cc                   	int3
  41835d:	cc                   	int3
  41835e:	cc                   	int3
  41835f:	cc                   	int3
  418360:	cc                   	int3
  418361:	cc                   	int3
  418362:	cc                   	int3
  418363:	cc                   	int3
  418364:	cc                   	int3
  418365:	cc                   	int3
  418366:	cc                   	int3
  418367:	cc                   	int3
  418368:	cc                   	int3
  418369:	cc                   	int3
  41836a:	cc                   	int3
  41836b:	cc                   	int3
  41836c:	cc                   	int3
  41836d:	cc                   	int3
  41836e:	cc                   	int3
  41836f:	cc                   	int3
  418370:	cc                   	int3
  418371:	cc                   	int3
  418372:	cc                   	int3
  418373:	cc                   	int3
  418374:	cc                   	int3
  418375:	cc                   	int3
  418376:	cc                   	int3
  418377:	cc                   	int3
  418378:	cc                   	int3
  418379:	cc                   	int3
  41837a:	cc                   	int3
  41837b:	cc                   	int3
  41837c:	cc                   	int3
  41837d:	cc                   	int3
  41837e:	cc                   	int3
  41837f:	cc                   	int3
  418380:	cc                   	int3
  418381:	cc                   	int3
  418382:	cc                   	int3
  418383:	cc                   	int3
  418384:	cc                   	int3
  418385:	cc                   	int3
  418386:	cc                   	int3
  418387:	cc                   	int3
  418388:	cc                   	int3
  418389:	cc                   	int3
  41838a:	cc                   	int3
  41838b:	cc                   	int3
  41838c:	cc                   	int3
  41838d:	cc                   	int3
  41838e:	cc                   	int3
  41838f:	cc                   	int3
  418390:	cc                   	int3
  418391:	cc                   	int3
  418392:	cc                   	int3
  418393:	cc                   	int3
  418394:	cc                   	int3
  418395:	cc                   	int3
  418396:	cc                   	int3
  418397:	cc                   	int3
  418398:	cc                   	int3
  418399:	cc                   	int3
  41839a:	cc                   	int3
  41839b:	cc                   	int3
  41839c:	cc                   	int3
  41839d:	cc                   	int3
  41839e:	cc                   	int3
  41839f:	cc                   	int3
  4183a0:	cc                   	int3
  4183a1:	cc                   	int3
  4183a2:	cc                   	int3
  4183a3:	cc                   	int3
  4183a4:	cc                   	int3
  4183a5:	cc                   	int3
  4183a6:	cc                   	int3
  4183a7:	cc                   	int3
  4183a8:	cc                   	int3
  4183a9:	cc                   	int3
  4183aa:	cc                   	int3
  4183ab:	cc                   	int3
  4183ac:	cc                   	int3
  4183ad:	cc                   	int3
  4183ae:	cc                   	int3
  4183af:	cc                   	int3
  4183b0:	cc                   	int3
  4183b1:	cc                   	int3
  4183b2:	cc                   	int3
  4183b3:	cc                   	int3
  4183b4:	cc                   	int3
  4183b5:	cc                   	int3
  4183b6:	cc                   	int3
  4183b7:	cc                   	int3
  4183b8:	cc                   	int3
  4183b9:	cc                   	int3
  4183ba:	cc                   	int3
  4183bb:	cc                   	int3
  4183bc:	cc                   	int3
  4183bd:	cc                   	int3
  4183be:	cc                   	int3
  4183bf:	cc                   	int3
  4183c0:	cc                   	int3
  4183c1:	cc                   	int3
  4183c2:	cc                   	int3
  4183c3:	cc                   	int3
  4183c4:	cc                   	int3
  4183c5:	cc                   	int3
  4183c6:	cc                   	int3
  4183c7:	cc                   	int3
  4183c8:	cc                   	int3
  4183c9:	cc                   	int3
  4183ca:	cc                   	int3
  4183cb:	cc                   	int3
  4183cc:	cc                   	int3
  4183cd:	cc                   	int3
  4183ce:	cc                   	int3
  4183cf:	cc                   	int3
  4183d0:	cc                   	int3
  4183d1:	cc                   	int3
  4183d2:	cc                   	int3
  4183d3:	cc                   	int3
  4183d4:	cc                   	int3
  4183d5:	cc                   	int3
  4183d6:	cc                   	int3
  4183d7:	cc                   	int3
  4183d8:	cc                   	int3
  4183d9:	cc                   	int3
  4183da:	cc                   	int3
  4183db:	cc                   	int3
  4183dc:	cc                   	int3
  4183dd:	cc                   	int3
  4183de:	cc                   	int3
  4183df:	cc                   	int3
  4183e0:	cc                   	int3
  4183e1:	cc                   	int3
  4183e2:	cc                   	int3
  4183e3:	cc                   	int3
  4183e4:	cc                   	int3
  4183e5:	cc                   	int3
  4183e6:	cc                   	int3
  4183e7:	cc                   	int3
  4183e8:	cc                   	int3
  4183e9:	cc                   	int3
  4183ea:	cc                   	int3
  4183eb:	cc                   	int3
  4183ec:	cc                   	int3
  4183ed:	cc                   	int3
  4183ee:	cc                   	int3
  4183ef:	cc                   	int3
  4183f0:	cc                   	int3
  4183f1:	cc                   	int3
  4183f2:	cc                   	int3
  4183f3:	cc                   	int3
  4183f4:	cc                   	int3
  4183f5:	cc                   	int3
  4183f6:	cc                   	int3
  4183f7:	cc                   	int3
  4183f8:	cc                   	int3
  4183f9:	cc                   	int3
  4183fa:	cc                   	int3
  4183fb:	cc                   	int3
  4183fc:	cc                   	int3
  4183fd:	cc                   	int3
  4183fe:	cc                   	int3
  4183ff:	cc                   	int3
  418400:	cc                   	int3
  418401:	cc                   	int3
  418402:	cc                   	int3
  418403:	cc                   	int3
  418404:	cc                   	int3
  418405:	cc                   	int3
  418406:	cc                   	int3
  418407:	cc                   	int3
  418408:	cc                   	int3
  418409:	cc                   	int3
  41840a:	cc                   	int3
  41840b:	cc                   	int3
  41840c:	cc                   	int3
  41840d:	cc                   	int3
  41840e:	cc                   	int3
  41840f:	cc                   	int3
  418410:	cc                   	int3
  418411:	cc                   	int3
  418412:	cc                   	int3
  418413:	cc                   	int3
  418414:	cc                   	int3
  418415:	cc                   	int3
  418416:	cc                   	int3
  418417:	cc                   	int3
  418418:	cc                   	int3
  418419:	cc                   	int3
  41841a:	cc                   	int3
  41841b:	cc                   	int3
  41841c:	cc                   	int3
  41841d:	cc                   	int3
  41841e:	cc                   	int3
  41841f:	cc                   	int3
  418420:	cc                   	int3
  418421:	cc                   	int3
  418422:	cc                   	int3
  418423:	cc                   	int3
  418424:	cc                   	int3
  418425:	cc                   	int3
  418426:	cc                   	int3
  418427:	cc                   	int3
  418428:	cc                   	int3
  418429:	cc                   	int3
  41842a:	cc                   	int3
  41842b:	cc                   	int3
  41842c:	cc                   	int3
  41842d:	cc                   	int3
  41842e:	cc                   	int3
  41842f:	cc                   	int3
  418430:	cc                   	int3
  418431:	cc                   	int3
  418432:	cc                   	int3
  418433:	cc                   	int3
  418434:	cc                   	int3
  418435:	cc                   	int3
  418436:	cc                   	int3
  418437:	cc                   	int3
  418438:	cc                   	int3
  418439:	cc                   	int3
  41843a:	cc                   	int3
  41843b:	cc                   	int3
  41843c:	cc                   	int3
  41843d:	cc                   	int3
  41843e:	cc                   	int3
  41843f:	cc                   	int3
  418440:	cc                   	int3
  418441:	cc                   	int3
  418442:	cc                   	int3
  418443:	cc                   	int3
  418444:	cc                   	int3
  418445:	cc                   	int3
  418446:	cc                   	int3
  418447:	cc                   	int3
  418448:	cc                   	int3
  418449:	cc                   	int3
  41844a:	cc                   	int3
  41844b:	cc                   	int3
  41844c:	cc                   	int3
  41844d:	cc                   	int3
  41844e:	cc                   	int3
  41844f:	cc                   	int3
  418450:	cc                   	int3
  418451:	cc                   	int3
  418452:	cc                   	int3
  418453:	cc                   	int3
  418454:	cc                   	int3
  418455:	cc                   	int3
  418456:	cc                   	int3
  418457:	cc                   	int3
  418458:	cc                   	int3
  418459:	cc                   	int3
  41845a:	cc                   	int3
  41845b:	cc                   	int3
  41845c:	cc                   	int3
  41845d:	cc                   	int3
  41845e:	cc                   	int3
  41845f:	cc                   	int3
  418460:	cc                   	int3
  418461:	cc                   	int3
  418462:	cc                   	int3
  418463:	cc                   	int3
  418464:	cc                   	int3
  418465:	cc                   	int3
  418466:	cc                   	int3
  418467:	cc                   	int3
  418468:	cc                   	int3
  418469:	cc                   	int3
  41846a:	cc                   	int3
  41846b:	cc                   	int3
  41846c:	cc                   	int3
  41846d:	cc                   	int3
  41846e:	cc                   	int3
  41846f:	cc                   	int3
  418470:	cc                   	int3
  418471:	cc                   	int3
  418472:	cc                   	int3
  418473:	cc                   	int3
  418474:	cc                   	int3
  418475:	cc                   	int3
  418476:	cc                   	int3
  418477:	cc                   	int3
  418478:	cc                   	int3
  418479:	cc                   	int3
  41847a:	cc                   	int3
  41847b:	cc                   	int3
  41847c:	cc                   	int3
  41847d:	cc                   	int3
  41847e:	cc                   	int3
  41847f:	cc                   	int3
  418480:	cc                   	int3
  418481:	cc                   	int3
  418482:	cc                   	int3
  418483:	cc                   	int3
  418484:	cc                   	int3
  418485:	cc                   	int3
  418486:	cc                   	int3
  418487:	cc                   	int3
  418488:	cc                   	int3
  418489:	cc                   	int3
  41848a:	cc                   	int3
  41848b:	cc                   	int3
  41848c:	cc                   	int3
  41848d:	cc                   	int3
  41848e:	cc                   	int3
  41848f:	cc                   	int3
  418490:	cc                   	int3
  418491:	cc                   	int3
  418492:	cc                   	int3
  418493:	cc                   	int3
  418494:	cc                   	int3
  418495:	cc                   	int3
  418496:	cc                   	int3
  418497:	cc                   	int3
  418498:	cc                   	int3
  418499:	cc                   	int3
  41849a:	cc                   	int3
  41849b:	cc                   	int3
  41849c:	cc                   	int3
  41849d:	cc                   	int3
  41849e:	cc                   	int3
  41849f:	cc                   	int3
  4184a0:	cc                   	int3
  4184a1:	cc                   	int3
  4184a2:	cc                   	int3
  4184a3:	cc                   	int3
  4184a4:	cc                   	int3
  4184a5:	cc                   	int3
  4184a6:	cc                   	int3
  4184a7:	cc                   	int3
  4184a8:	cc                   	int3
  4184a9:	cc                   	int3
  4184aa:	cc                   	int3
  4184ab:	cc                   	int3
  4184ac:	cc                   	int3
  4184ad:	cc                   	int3
  4184ae:	cc                   	int3
  4184af:	cc                   	int3
  4184b0:	cc                   	int3
  4184b1:	cc                   	int3
  4184b2:	cc                   	int3
  4184b3:	cc                   	int3
  4184b4:	cc                   	int3
  4184b5:	cc                   	int3
  4184b6:	cc                   	int3
  4184b7:	cc                   	int3
  4184b8:	cc                   	int3
  4184b9:	cc                   	int3
  4184ba:	cc                   	int3
  4184bb:	cc                   	int3
  4184bc:	cc                   	int3
  4184bd:	cc                   	int3
  4184be:	cc                   	int3
  4184bf:	cc                   	int3
  4184c0:	cc                   	int3
  4184c1:	cc                   	int3
  4184c2:	cc                   	int3
  4184c3:	cc                   	int3
  4184c4:	cc                   	int3
  4184c5:	cc                   	int3
  4184c6:	cc                   	int3
  4184c7:	cc                   	int3
  4184c8:	cc                   	int3
  4184c9:	cc                   	int3
  4184ca:	cc                   	int3
  4184cb:	cc                   	int3
  4184cc:	cc                   	int3
  4184cd:	cc                   	int3
  4184ce:	cc                   	int3
  4184cf:	cc                   	int3
  4184d0:	cc                   	int3
  4184d1:	cc                   	int3
  4184d2:	cc                   	int3
  4184d3:	cc                   	int3
  4184d4:	cc                   	int3
  4184d5:	cc                   	int3
  4184d6:	cc                   	int3
  4184d7:	cc                   	int3
  4184d8:	cc                   	int3
  4184d9:	cc                   	int3
  4184da:	cc                   	int3
  4184db:	cc                   	int3
  4184dc:	cc                   	int3
  4184dd:	cc                   	int3
  4184de:	cc                   	int3
  4184df:	cc                   	int3
  4184e0:	cc                   	int3
  4184e1:	cc                   	int3
  4184e2:	cc                   	int3
  4184e3:	cc                   	int3
  4184e4:	cc                   	int3
  4184e5:	cc                   	int3
  4184e6:	cc                   	int3
  4184e7:	cc                   	int3
  4184e8:	cc                   	int3
  4184e9:	cc                   	int3
  4184ea:	cc                   	int3
  4184eb:	cc                   	int3
  4184ec:	cc                   	int3
  4184ed:	cc                   	int3
  4184ee:	cc                   	int3
  4184ef:	cc                   	int3
  4184f0:	cc                   	int3
  4184f1:	cc                   	int3
  4184f2:	cc                   	int3
  4184f3:	cc                   	int3
  4184f4:	cc                   	int3
  4184f5:	cc                   	int3
  4184f6:	cc                   	int3
  4184f7:	cc                   	int3
  4184f8:	cc                   	int3
  4184f9:	cc                   	int3
  4184fa:	cc                   	int3
  4184fb:	cc                   	int3
  4184fc:	cc                   	int3
  4184fd:	cc                   	int3
  4184fe:	cc                   	int3
  4184ff:	cc                   	int3
  418500:	cc                   	int3
  418501:	cc                   	int3
  418502:	cc                   	int3
  418503:	cc                   	int3
  418504:	cc                   	int3
  418505:	cc                   	int3
  418506:	cc                   	int3
  418507:	cc                   	int3
  418508:	cc                   	int3
  418509:	cc                   	int3
  41850a:	cc                   	int3
  41850b:	cc                   	int3
  41850c:	cc                   	int3
  41850d:	cc                   	int3
  41850e:	cc                   	int3
  41850f:	cc                   	int3
  418510:	cc                   	int3
  418511:	cc                   	int3
  418512:	cc                   	int3
  418513:	cc                   	int3
  418514:	cc                   	int3
  418515:	cc                   	int3
  418516:	cc                   	int3
  418517:	cc                   	int3
  418518:	cc                   	int3
  418519:	cc                   	int3
  41851a:	cc                   	int3
  41851b:	cc                   	int3
  41851c:	cc                   	int3
  41851d:	cc                   	int3
  41851e:	cc                   	int3
  41851f:	cc                   	int3
  418520:	cc                   	int3
  418521:	cc                   	int3
  418522:	cc                   	int3
  418523:	cc                   	int3
  418524:	cc                   	int3
  418525:	cc                   	int3
  418526:	cc                   	int3
  418527:	cc                   	int3
  418528:	cc                   	int3
  418529:	cc                   	int3
  41852a:	cc                   	int3
  41852b:	cc                   	int3
  41852c:	cc                   	int3
  41852d:	cc                   	int3
  41852e:	cc                   	int3
  41852f:	cc                   	int3
  418530:	cc                   	int3
  418531:	cc                   	int3
  418532:	cc                   	int3
  418533:	cc                   	int3
  418534:	cc                   	int3
  418535:	cc                   	int3
  418536:	cc                   	int3
  418537:	cc                   	int3
  418538:	cc                   	int3
  418539:	cc                   	int3
  41853a:	cc                   	int3
  41853b:	cc                   	int3
  41853c:	cc                   	int3
  41853d:	cc                   	int3
  41853e:	cc                   	int3
  41853f:	cc                   	int3
  418540:	cc                   	int3
  418541:	cc                   	int3
  418542:	cc                   	int3
  418543:	cc                   	int3
  418544:	cc                   	int3
  418545:	cc                   	int3
  418546:	cc                   	int3
  418547:	cc                   	int3
  418548:	cc                   	int3
  418549:	cc                   	int3
  41854a:	cc                   	int3
  41854b:	cc                   	int3
  41854c:	cc                   	int3
  41854d:	cc                   	int3
  41854e:	cc                   	int3
  41854f:	cc                   	int3
  418550:	cc                   	int3
  418551:	cc                   	int3
  418552:	cc                   	int3
  418553:	cc                   	int3
  418554:	cc                   	int3
  418555:	cc                   	int3
  418556:	cc                   	int3
  418557:	cc                   	int3
  418558:	cc                   	int3
  418559:	cc                   	int3
  41855a:	cc                   	int3
  41855b:	cc                   	int3
  41855c:	cc                   	int3
  41855d:	cc                   	int3
  41855e:	cc                   	int3
  41855f:	cc                   	int3
  418560:	cc                   	int3
  418561:	cc                   	int3
  418562:	cc                   	int3
  418563:	cc                   	int3
  418564:	cc                   	int3
  418565:	cc                   	int3
  418566:	cc                   	int3
  418567:	cc                   	int3
  418568:	cc                   	int3
  418569:	cc                   	int3
  41856a:	cc                   	int3
  41856b:	cc                   	int3
  41856c:	cc                   	int3
  41856d:	cc                   	int3
  41856e:	cc                   	int3
  41856f:	cc                   	int3
  418570:	cc                   	int3
  418571:	cc                   	int3
  418572:	cc                   	int3
  418573:	cc                   	int3
  418574:	cc                   	int3
  418575:	cc                   	int3
  418576:	cc                   	int3
  418577:	cc                   	int3
  418578:	cc                   	int3
  418579:	cc                   	int3
  41857a:	cc                   	int3
  41857b:	cc                   	int3
  41857c:	cc                   	int3
  41857d:	cc                   	int3
  41857e:	cc                   	int3
  41857f:	cc                   	int3
  418580:	cc                   	int3
  418581:	cc                   	int3
  418582:	cc                   	int3
  418583:	cc                   	int3
  418584:	cc                   	int3
  418585:	cc                   	int3
  418586:	cc                   	int3
  418587:	cc                   	int3
  418588:	cc                   	int3
  418589:	cc                   	int3
  41858a:	cc                   	int3
  41858b:	cc                   	int3
  41858c:	cc                   	int3
  41858d:	cc                   	int3
  41858e:	cc                   	int3
  41858f:	cc                   	int3
  418590:	cc                   	int3
  418591:	cc                   	int3
  418592:	cc                   	int3
  418593:	cc                   	int3
  418594:	cc                   	int3
  418595:	cc                   	int3
  418596:	cc                   	int3
  418597:	cc                   	int3
  418598:	cc                   	int3
  418599:	cc                   	int3
  41859a:	cc                   	int3
  41859b:	cc                   	int3
  41859c:	cc                   	int3
  41859d:	cc                   	int3
  41859e:	cc                   	int3
  41859f:	cc                   	int3
  4185a0:	cc                   	int3
  4185a1:	cc                   	int3
  4185a2:	cc                   	int3
  4185a3:	cc                   	int3
  4185a4:	cc                   	int3
  4185a5:	cc                   	int3
  4185a6:	cc                   	int3
  4185a7:	cc                   	int3
  4185a8:	cc                   	int3
  4185a9:	cc                   	int3
  4185aa:	cc                   	int3
  4185ab:	cc                   	int3
  4185ac:	cc                   	int3
  4185ad:	cc                   	int3
  4185ae:	cc                   	int3
  4185af:	cc                   	int3
  4185b0:	cc                   	int3
  4185b1:	cc                   	int3
  4185b2:	cc                   	int3
  4185b3:	cc                   	int3
  4185b4:	cc                   	int3
  4185b5:	cc                   	int3
  4185b6:	cc                   	int3
  4185b7:	cc                   	int3
  4185b8:	cc                   	int3
  4185b9:	cc                   	int3
  4185ba:	cc                   	int3
  4185bb:	cc                   	int3
  4185bc:	cc                   	int3
  4185bd:	cc                   	int3
  4185be:	cc                   	int3
  4185bf:	cc                   	int3
  4185c0:	cc                   	int3
  4185c1:	cc                   	int3
  4185c2:	cc                   	int3
  4185c3:	cc                   	int3
  4185c4:	cc                   	int3
  4185c5:	cc                   	int3
  4185c6:	cc                   	int3
  4185c7:	cc                   	int3
  4185c8:	cc                   	int3
  4185c9:	cc                   	int3
  4185ca:	cc                   	int3
  4185cb:	cc                   	int3
  4185cc:	cc                   	int3
  4185cd:	cc                   	int3
  4185ce:	cc                   	int3
  4185cf:	cc                   	int3
  4185d0:	cc                   	int3
  4185d1:	cc                   	int3
  4185d2:	cc                   	int3
  4185d3:	cc                   	int3
  4185d4:	cc                   	int3
  4185d5:	cc                   	int3
  4185d6:	cc                   	int3
  4185d7:	cc                   	int3
  4185d8:	cc                   	int3
  4185d9:	cc                   	int3
  4185da:	cc                   	int3
  4185db:	cc                   	int3
  4185dc:	cc                   	int3
  4185dd:	cc                   	int3
  4185de:	cc                   	int3
  4185df:	cc                   	int3
  4185e0:	cc                   	int3
  4185e1:	cc                   	int3
  4185e2:	cc                   	int3
  4185e3:	cc                   	int3
  4185e4:	cc                   	int3
  4185e5:	cc                   	int3
  4185e6:	cc                   	int3
  4185e7:	cc                   	int3
  4185e8:	cc                   	int3
  4185e9:	cc                   	int3
  4185ea:	cc                   	int3
  4185eb:	cc                   	int3
  4185ec:	cc                   	int3
  4185ed:	cc                   	int3
  4185ee:	cc                   	int3
  4185ef:	cc                   	int3
  4185f0:	cc                   	int3
  4185f1:	cc                   	int3
  4185f2:	cc                   	int3
  4185f3:	cc                   	int3
  4185f4:	cc                   	int3
  4185f5:	cc                   	int3
  4185f6:	cc                   	int3
  4185f7:	cc                   	int3
  4185f8:	cc                   	int3
  4185f9:	cc                   	int3
  4185fa:	cc                   	int3
  4185fb:	cc                   	int3
  4185fc:	cc                   	int3
  4185fd:	cc                   	int3
  4185fe:	cc                   	int3
  4185ff:	cc                   	int3
  418600:	cc                   	int3
  418601:	cc                   	int3
  418602:	cc                   	int3
  418603:	cc                   	int3
  418604:	cc                   	int3
  418605:	cc                   	int3
  418606:	cc                   	int3
  418607:	cc                   	int3
  418608:	cc                   	int3
  418609:	cc                   	int3
  41860a:	cc                   	int3
  41860b:	cc                   	int3
  41860c:	cc                   	int3
  41860d:	cc                   	int3
  41860e:	cc                   	int3
  41860f:	cc                   	int3
  418610:	cc                   	int3
  418611:	cc                   	int3
  418612:	cc                   	int3
  418613:	cc                   	int3
  418614:	cc                   	int3
  418615:	cc                   	int3
  418616:	cc                   	int3
  418617:	cc                   	int3
  418618:	cc                   	int3
  418619:	cc                   	int3
  41861a:	cc                   	int3
  41861b:	cc                   	int3
  41861c:	cc                   	int3
  41861d:	cc                   	int3
  41861e:	cc                   	int3
  41861f:	cc                   	int3
  418620:	cc                   	int3
  418621:	cc                   	int3
  418622:	cc                   	int3
  418623:	cc                   	int3
  418624:	cc                   	int3
  418625:	cc                   	int3
  418626:	cc                   	int3
  418627:	cc                   	int3
  418628:	cc                   	int3
  418629:	cc                   	int3
  41862a:	cc                   	int3
  41862b:	cc                   	int3
  41862c:	cc                   	int3
  41862d:	cc                   	int3
  41862e:	cc                   	int3
  41862f:	cc                   	int3
  418630:	cc                   	int3
  418631:	cc                   	int3
  418632:	cc                   	int3
  418633:	cc                   	int3
  418634:	cc                   	int3
  418635:	cc                   	int3
  418636:	cc                   	int3
  418637:	cc                   	int3
  418638:	cc                   	int3
  418639:	cc                   	int3
  41863a:	cc                   	int3
  41863b:	cc                   	int3
  41863c:	cc                   	int3
  41863d:	cc                   	int3
  41863e:	cc                   	int3
  41863f:	cc                   	int3
  418640:	cc                   	int3
  418641:	cc                   	int3
  418642:	cc                   	int3
  418643:	cc                   	int3
  418644:	cc                   	int3
  418645:	cc                   	int3
  418646:	cc                   	int3
  418647:	cc                   	int3
  418648:	cc                   	int3
  418649:	cc                   	int3
  41864a:	cc                   	int3
  41864b:	cc                   	int3
  41864c:	cc                   	int3
  41864d:	cc                   	int3
  41864e:	cc                   	int3
  41864f:	cc                   	int3
  418650:	cc                   	int3
  418651:	cc                   	int3
  418652:	cc                   	int3
  418653:	cc                   	int3
  418654:	cc                   	int3
  418655:	cc                   	int3
  418656:	cc                   	int3
  418657:	cc                   	int3
  418658:	cc                   	int3
  418659:	cc                   	int3
  41865a:	cc                   	int3
  41865b:	cc                   	int3
  41865c:	cc                   	int3
  41865d:	cc                   	int3
  41865e:	cc                   	int3
  41865f:	cc                   	int3
  418660:	cc                   	int3
  418661:	cc                   	int3
  418662:	cc                   	int3
  418663:	cc                   	int3
  418664:	cc                   	int3
  418665:	cc                   	int3
  418666:	cc                   	int3
  418667:	cc                   	int3
  418668:	cc                   	int3
  418669:	cc                   	int3
  41866a:	cc                   	int3
  41866b:	cc                   	int3
  41866c:	cc                   	int3
  41866d:	cc                   	int3
  41866e:	cc                   	int3
  41866f:	cc                   	int3
  418670:	cc                   	int3
  418671:	cc                   	int3
  418672:	cc                   	int3
  418673:	cc                   	int3
  418674:	cc                   	int3
  418675:	cc                   	int3
  418676:	cc                   	int3
  418677:	cc                   	int3
  418678:	cc                   	int3
  418679:	cc                   	int3
  41867a:	cc                   	int3
  41867b:	cc                   	int3
  41867c:	cc                   	int3
  41867d:	cc                   	int3
  41867e:	cc                   	int3
  41867f:	cc                   	int3
  418680:	cc                   	int3
  418681:	cc                   	int3
  418682:	cc                   	int3
  418683:	cc                   	int3
  418684:	cc                   	int3
  418685:	cc                   	int3
  418686:	cc                   	int3
  418687:	cc                   	int3
  418688:	cc                   	int3
  418689:	cc                   	int3
  41868a:	cc                   	int3
  41868b:	cc                   	int3
  41868c:	cc                   	int3
  41868d:	cc                   	int3
  41868e:	cc                   	int3
  41868f:	cc                   	int3
  418690:	cc                   	int3
  418691:	cc                   	int3
  418692:	cc                   	int3
  418693:	cc                   	int3
  418694:	cc                   	int3
  418695:	cc                   	int3
  418696:	cc                   	int3
  418697:	cc                   	int3
  418698:	cc                   	int3
  418699:	cc                   	int3
  41869a:	cc                   	int3
  41869b:	cc                   	int3
  41869c:	cc                   	int3
  41869d:	cc                   	int3
  41869e:	cc                   	int3
  41869f:	cc                   	int3
  4186a0:	cc                   	int3
  4186a1:	cc                   	int3
  4186a2:	cc                   	int3
  4186a3:	cc                   	int3
  4186a4:	cc                   	int3
  4186a5:	cc                   	int3
  4186a6:	cc                   	int3
  4186a7:	cc                   	int3
  4186a8:	cc                   	int3
  4186a9:	cc                   	int3
  4186aa:	cc                   	int3
  4186ab:	cc                   	int3
  4186ac:	cc                   	int3
  4186ad:	cc                   	int3
  4186ae:	cc                   	int3
  4186af:	cc                   	int3
  4186b0:	cc                   	int3
  4186b1:	cc                   	int3
  4186b2:	cc                   	int3
  4186b3:	cc                   	int3
  4186b4:	cc                   	int3
  4186b5:	cc                   	int3
  4186b6:	cc                   	int3
  4186b7:	cc                   	int3
  4186b8:	cc                   	int3
  4186b9:	cc                   	int3
  4186ba:	cc                   	int3
  4186bb:	cc                   	int3
  4186bc:	cc                   	int3
  4186bd:	cc                   	int3
  4186be:	cc                   	int3
  4186bf:	cc                   	int3
  4186c0:	cc                   	int3
  4186c1:	cc                   	int3
  4186c2:	cc                   	int3
  4186c3:	cc                   	int3
  4186c4:	cc                   	int3
  4186c5:	cc                   	int3
  4186c6:	cc                   	int3
  4186c7:	cc                   	int3
  4186c8:	cc                   	int3
  4186c9:	cc                   	int3
  4186ca:	cc                   	int3
  4186cb:	cc                   	int3
  4186cc:	cc                   	int3
  4186cd:	cc                   	int3
  4186ce:	cc                   	int3
  4186cf:	cc                   	int3
  4186d0:	cc                   	int3
  4186d1:	cc                   	int3
  4186d2:	cc                   	int3
  4186d3:	cc                   	int3
  4186d4:	cc                   	int3
  4186d5:	cc                   	int3
  4186d6:	cc                   	int3
  4186d7:	cc                   	int3
  4186d8:	cc                   	int3
  4186d9:	cc                   	int3
  4186da:	cc                   	int3
  4186db:	cc                   	int3
  4186dc:	cc                   	int3
  4186dd:	cc                   	int3
  4186de:	cc                   	int3
  4186df:	cc                   	int3
  4186e0:	cc                   	int3
  4186e1:	cc                   	int3
  4186e2:	cc                   	int3
  4186e3:	cc                   	int3
  4186e4:	cc                   	int3
  4186e5:	cc                   	int3
  4186e6:	cc                   	int3
  4186e7:	cc                   	int3
  4186e8:	cc                   	int3
  4186e9:	cc                   	int3
  4186ea:	cc                   	int3
  4186eb:	cc                   	int3
  4186ec:	cc                   	int3
  4186ed:	cc                   	int3
  4186ee:	cc                   	int3
  4186ef:	cc                   	int3
  4186f0:	cc                   	int3
  4186f1:	cc                   	int3
  4186f2:	cc                   	int3
  4186f3:	cc                   	int3
  4186f4:	cc                   	int3
  4186f5:	cc                   	int3
  4186f6:	cc                   	int3
  4186f7:	cc                   	int3
  4186f8:	cc                   	int3
  4186f9:	cc                   	int3
  4186fa:	cc                   	int3
  4186fb:	cc                   	int3
  4186fc:	cc                   	int3
  4186fd:	cc                   	int3
  4186fe:	cc                   	int3
  4186ff:	cc                   	int3
  418700:	cc                   	int3
  418701:	cc                   	int3
  418702:	cc                   	int3
  418703:	cc                   	int3
  418704:	cc                   	int3
  418705:	cc                   	int3
  418706:	cc                   	int3
  418707:	cc                   	int3
  418708:	cc                   	int3
  418709:	cc                   	int3
  41870a:	cc                   	int3
  41870b:	cc                   	int3
  41870c:	cc                   	int3
  41870d:	cc                   	int3
  41870e:	cc                   	int3
  41870f:	cc                   	int3
  418710:	cc                   	int3
  418711:	cc                   	int3
  418712:	cc                   	int3
  418713:	cc                   	int3
  418714:	cc                   	int3
  418715:	cc                   	int3
  418716:	cc                   	int3
  418717:	cc                   	int3
  418718:	cc                   	int3
  418719:	cc                   	int3
  41871a:	cc                   	int3
  41871b:	cc                   	int3
  41871c:	cc                   	int3
  41871d:	cc                   	int3
  41871e:	cc                   	int3
  41871f:	cc                   	int3
  418720:	cc                   	int3
  418721:	cc                   	int3
  418722:	cc                   	int3
  418723:	cc                   	int3
  418724:	cc                   	int3
  418725:	cc                   	int3
  418726:	cc                   	int3
  418727:	cc                   	int3
  418728:	cc                   	int3
  418729:	cc                   	int3
  41872a:	cc                   	int3
  41872b:	cc                   	int3
  41872c:	cc                   	int3
  41872d:	cc                   	int3
  41872e:	cc                   	int3
  41872f:	cc                   	int3
  418730:	cc                   	int3
  418731:	cc                   	int3
  418732:	cc                   	int3
  418733:	cc                   	int3
  418734:	cc                   	int3
  418735:	cc                   	int3
  418736:	cc                   	int3
  418737:	cc                   	int3
  418738:	cc                   	int3
  418739:	cc                   	int3
  41873a:	cc                   	int3
  41873b:	cc                   	int3
  41873c:	cc                   	int3
  41873d:	cc                   	int3
  41873e:	cc                   	int3
  41873f:	cc                   	int3
  418740:	cc                   	int3
  418741:	cc                   	int3
  418742:	cc                   	int3
  418743:	cc                   	int3
  418744:	cc                   	int3
  418745:	cc                   	int3
  418746:	cc                   	int3
  418747:	cc                   	int3
  418748:	cc                   	int3
  418749:	cc                   	int3
  41874a:	cc                   	int3
  41874b:	cc                   	int3
  41874c:	cc                   	int3
  41874d:	cc                   	int3
  41874e:	cc                   	int3
  41874f:	cc                   	int3
  418750:	cc                   	int3
  418751:	cc                   	int3
  418752:	cc                   	int3
  418753:	cc                   	int3
  418754:	cc                   	int3
  418755:	cc                   	int3
  418756:	cc                   	int3
  418757:	cc                   	int3
  418758:	cc                   	int3
  418759:	cc                   	int3
  41875a:	cc                   	int3
  41875b:	cc                   	int3
  41875c:	cc                   	int3
  41875d:	cc                   	int3
  41875e:	cc                   	int3
  41875f:	cc                   	int3
  418760:	cc                   	int3
  418761:	cc                   	int3
  418762:	cc                   	int3
  418763:	cc                   	int3
  418764:	cc                   	int3
  418765:	cc                   	int3
  418766:	cc                   	int3
  418767:	cc                   	int3
  418768:	cc                   	int3
  418769:	cc                   	int3
  41876a:	cc                   	int3
  41876b:	cc                   	int3
  41876c:	cc                   	int3
  41876d:	cc                   	int3
  41876e:	cc                   	int3
  41876f:	cc                   	int3
  418770:	cc                   	int3
  418771:	cc                   	int3
  418772:	cc                   	int3
  418773:	cc                   	int3
  418774:	cc                   	int3
  418775:	cc                   	int3
  418776:	cc                   	int3
  418777:	cc                   	int3
  418778:	cc                   	int3
  418779:	cc                   	int3
  41877a:	cc                   	int3
  41877b:	cc                   	int3
  41877c:	cc                   	int3
  41877d:	cc                   	int3
  41877e:	cc                   	int3
  41877f:	cc                   	int3
  418780:	cc                   	int3
  418781:	cc                   	int3
  418782:	cc                   	int3
  418783:	cc                   	int3
  418784:	cc                   	int3
  418785:	cc                   	int3
  418786:	cc                   	int3
  418787:	cc                   	int3
  418788:	cc                   	int3
  418789:	cc                   	int3
  41878a:	cc                   	int3
  41878b:	cc                   	int3
  41878c:	cc                   	int3
  41878d:	cc                   	int3
  41878e:	cc                   	int3
  41878f:	cc                   	int3
  418790:	cc                   	int3
  418791:	cc                   	int3
  418792:	cc                   	int3
  418793:	cc                   	int3
  418794:	cc                   	int3
  418795:	cc                   	int3
  418796:	cc                   	int3
  418797:	cc                   	int3
  418798:	cc                   	int3
  418799:	cc                   	int3
  41879a:	cc                   	int3
  41879b:	cc                   	int3
  41879c:	cc                   	int3
  41879d:	cc                   	int3
  41879e:	cc                   	int3
  41879f:	cc                   	int3
  4187a0:	cc                   	int3
  4187a1:	cc                   	int3
  4187a2:	cc                   	int3
  4187a3:	cc                   	int3
  4187a4:	cc                   	int3
  4187a5:	cc                   	int3
  4187a6:	cc                   	int3
  4187a7:	cc                   	int3
  4187a8:	cc                   	int3
  4187a9:	cc                   	int3
  4187aa:	cc                   	int3
  4187ab:	cc                   	int3
  4187ac:	cc                   	int3
  4187ad:	cc                   	int3
  4187ae:	cc                   	int3
  4187af:	cc                   	int3
  4187b0:	cc                   	int3
  4187b1:	cc                   	int3
  4187b2:	cc                   	int3
  4187b3:	cc                   	int3
  4187b4:	cc                   	int3
  4187b5:	cc                   	int3
  4187b6:	cc                   	int3
  4187b7:	cc                   	int3
  4187b8:	cc                   	int3
  4187b9:	cc                   	int3
  4187ba:	cc                   	int3
  4187bb:	cc                   	int3
  4187bc:	cc                   	int3
  4187bd:	cc                   	int3
  4187be:	cc                   	int3
  4187bf:	cc                   	int3
  4187c0:	cc                   	int3
  4187c1:	cc                   	int3
  4187c2:	cc                   	int3
  4187c3:	cc                   	int3
  4187c4:	cc                   	int3
  4187c5:	cc                   	int3
  4187c6:	cc                   	int3
  4187c7:	cc                   	int3
  4187c8:	cc                   	int3
  4187c9:	cc                   	int3
  4187ca:	cc                   	int3
  4187cb:	cc                   	int3
  4187cc:	cc                   	int3
  4187cd:	cc                   	int3
  4187ce:	cc                   	int3
  4187cf:	cc                   	int3
  4187d0:	cc                   	int3
  4187d1:	cc                   	int3
  4187d2:	cc                   	int3
  4187d3:	cc                   	int3
  4187d4:	cc                   	int3
  4187d5:	cc                   	int3
  4187d6:	cc                   	int3
  4187d7:	cc                   	int3
  4187d8:	cc                   	int3
  4187d9:	cc                   	int3
  4187da:	cc                   	int3
  4187db:	cc                   	int3
  4187dc:	cc                   	int3
  4187dd:	cc                   	int3
  4187de:	cc                   	int3
  4187df:	cc                   	int3
  4187e0:	cc                   	int3
  4187e1:	cc                   	int3
  4187e2:	cc                   	int3
  4187e3:	cc                   	int3
  4187e4:	cc                   	int3
  4187e5:	cc                   	int3
  4187e6:	cc                   	int3
  4187e7:	cc                   	int3
  4187e8:	cc                   	int3
  4187e9:	cc                   	int3
  4187ea:	cc                   	int3
  4187eb:	cc                   	int3
  4187ec:	cc                   	int3
  4187ed:	cc                   	int3
  4187ee:	cc                   	int3
  4187ef:	cc                   	int3
  4187f0:	cc                   	int3
  4187f1:	cc                   	int3
  4187f2:	cc                   	int3
  4187f3:	cc                   	int3
  4187f4:	cc                   	int3
  4187f5:	cc                   	int3
  4187f6:	cc                   	int3
  4187f7:	cc                   	int3
  4187f8:	cc                   	int3
  4187f9:	cc                   	int3
  4187fa:	cc                   	int3
  4187fb:	cc                   	int3
  4187fc:	cc                   	int3
  4187fd:	cc                   	int3
  4187fe:	cc                   	int3
  4187ff:	cc                   	int3
  418800:	cc                   	int3
  418801:	cc                   	int3
  418802:	cc                   	int3
  418803:	cc                   	int3
  418804:	cc                   	int3
  418805:	cc                   	int3
  418806:	cc                   	int3
  418807:	cc                   	int3
  418808:	cc                   	int3
  418809:	cc                   	int3
  41880a:	cc                   	int3
  41880b:	cc                   	int3
  41880c:	cc                   	int3
  41880d:	cc                   	int3
  41880e:	cc                   	int3
  41880f:	cc                   	int3
  418810:	cc                   	int3
  418811:	cc                   	int3
  418812:	cc                   	int3
  418813:	cc                   	int3
  418814:	cc                   	int3
  418815:	cc                   	int3
  418816:	cc                   	int3
  418817:	cc                   	int3
  418818:	cc                   	int3
  418819:	cc                   	int3
  41881a:	cc                   	int3
  41881b:	cc                   	int3
  41881c:	cc                   	int3
  41881d:	cc                   	int3
  41881e:	cc                   	int3
  41881f:	cc                   	int3
  418820:	cc                   	int3
  418821:	cc                   	int3
  418822:	cc                   	int3
  418823:	cc                   	int3
  418824:	cc                   	int3
  418825:	cc                   	int3
  418826:	cc                   	int3
  418827:	cc                   	int3
  418828:	cc                   	int3
  418829:	cc                   	int3
  41882a:	cc                   	int3
  41882b:	cc                   	int3
  41882c:	cc                   	int3
  41882d:	cc                   	int3
  41882e:	cc                   	int3
  41882f:	cc                   	int3
  418830:	cc                   	int3
  418831:	cc                   	int3
  418832:	cc                   	int3
  418833:	cc                   	int3
  418834:	cc                   	int3
  418835:	cc                   	int3
  418836:	cc                   	int3
  418837:	cc                   	int3
  418838:	cc                   	int3
  418839:	cc                   	int3
  41883a:	cc                   	int3
  41883b:	cc                   	int3
  41883c:	cc                   	int3
  41883d:	cc                   	int3
  41883e:	cc                   	int3
  41883f:	cc                   	int3
  418840:	cc                   	int3
  418841:	cc                   	int3
  418842:	cc                   	int3
  418843:	cc                   	int3
  418844:	cc                   	int3
  418845:	cc                   	int3
  418846:	cc                   	int3
  418847:	cc                   	int3
  418848:	cc                   	int3
  418849:	cc                   	int3
  41884a:	cc                   	int3
  41884b:	cc                   	int3
  41884c:	cc                   	int3
  41884d:	cc                   	int3
  41884e:	cc                   	int3
  41884f:	cc                   	int3
  418850:	cc                   	int3
  418851:	cc                   	int3
  418852:	cc                   	int3
  418853:	cc                   	int3
  418854:	cc                   	int3
  418855:	cc                   	int3
  418856:	cc                   	int3
  418857:	cc                   	int3
  418858:	cc                   	int3
  418859:	cc                   	int3
  41885a:	cc                   	int3
  41885b:	cc                   	int3
  41885c:	cc                   	int3
  41885d:	cc                   	int3
  41885e:	cc                   	int3
  41885f:	cc                   	int3
  418860:	cc                   	int3
  418861:	cc                   	int3
  418862:	cc                   	int3
  418863:	cc                   	int3
  418864:	cc                   	int3
  418865:	cc                   	int3
  418866:	cc                   	int3
  418867:	cc                   	int3
  418868:	cc                   	int3
  418869:	cc                   	int3
  41886a:	cc                   	int3
  41886b:	cc                   	int3
  41886c:	cc                   	int3
  41886d:	cc                   	int3
  41886e:	cc                   	int3
  41886f:	cc                   	int3
  418870:	cc                   	int3
  418871:	cc                   	int3
  418872:	cc                   	int3
  418873:	cc                   	int3
  418874:	cc                   	int3
  418875:	cc                   	int3
  418876:	cc                   	int3
  418877:	cc                   	int3
  418878:	cc                   	int3
  418879:	cc                   	int3
  41887a:	cc                   	int3
  41887b:	cc                   	int3
  41887c:	cc                   	int3
  41887d:	cc                   	int3
  41887e:	cc                   	int3
  41887f:	cc                   	int3
  418880:	cc                   	int3
  418881:	cc                   	int3
  418882:	cc                   	int3
  418883:	cc                   	int3
  418884:	cc                   	int3
  418885:	cc                   	int3
  418886:	cc                   	int3
  418887:	cc                   	int3
  418888:	cc                   	int3
  418889:	cc                   	int3
  41888a:	cc                   	int3
  41888b:	cc                   	int3
  41888c:	cc                   	int3
  41888d:	cc                   	int3
  41888e:	cc                   	int3
  41888f:	cc                   	int3
  418890:	cc                   	int3
  418891:	cc                   	int3
  418892:	cc                   	int3
  418893:	cc                   	int3
  418894:	cc                   	int3
  418895:	cc                   	int3
  418896:	cc                   	int3
  418897:	cc                   	int3
  418898:	cc                   	int3
  418899:	cc                   	int3
  41889a:	cc                   	int3
  41889b:	cc                   	int3
  41889c:	cc                   	int3
  41889d:	cc                   	int3
  41889e:	cc                   	int3
  41889f:	cc                   	int3
  4188a0:	cc                   	int3
  4188a1:	cc                   	int3
  4188a2:	cc                   	int3
  4188a3:	cc                   	int3
  4188a4:	cc                   	int3
  4188a5:	cc                   	int3
  4188a6:	cc                   	int3
  4188a7:	cc                   	int3
  4188a8:	cc                   	int3
  4188a9:	cc                   	int3
  4188aa:	cc                   	int3
  4188ab:	cc                   	int3
  4188ac:	cc                   	int3
  4188ad:	cc                   	int3
  4188ae:	cc                   	int3
  4188af:	cc                   	int3
  4188b0:	cc                   	int3
  4188b1:	cc                   	int3
  4188b2:	cc                   	int3
  4188b3:	cc                   	int3
  4188b4:	cc                   	int3
  4188b5:	cc                   	int3
  4188b6:	cc                   	int3
  4188b7:	cc                   	int3
  4188b8:	cc                   	int3
  4188b9:	cc                   	int3
  4188ba:	cc                   	int3
  4188bb:	cc                   	int3
  4188bc:	cc                   	int3
  4188bd:	cc                   	int3
  4188be:	cc                   	int3
  4188bf:	cc                   	int3
  4188c0:	cc                   	int3
  4188c1:	cc                   	int3
  4188c2:	cc                   	int3
  4188c3:	cc                   	int3
  4188c4:	cc                   	int3
  4188c5:	cc                   	int3
  4188c6:	cc                   	int3
  4188c7:	cc                   	int3
  4188c8:	cc                   	int3
  4188c9:	cc                   	int3
  4188ca:	cc                   	int3
  4188cb:	cc                   	int3
  4188cc:	cc                   	int3
  4188cd:	cc                   	int3
  4188ce:	cc                   	int3
  4188cf:	cc                   	int3
  4188d0:	cc                   	int3
  4188d1:	cc                   	int3
  4188d2:	cc                   	int3
  4188d3:	cc                   	int3
  4188d4:	cc                   	int3
  4188d5:	cc                   	int3
  4188d6:	cc                   	int3
  4188d7:	cc                   	int3
  4188d8:	cc                   	int3
  4188d9:	cc                   	int3
  4188da:	cc                   	int3
  4188db:	cc                   	int3
  4188dc:	cc                   	int3
  4188dd:	cc                   	int3
  4188de:	cc                   	int3
  4188df:	cc                   	int3
  4188e0:	cc                   	int3
  4188e1:	cc                   	int3
  4188e2:	cc                   	int3
  4188e3:	cc                   	int3
  4188e4:	cc                   	int3
  4188e5:	cc                   	int3
  4188e6:	cc                   	int3
  4188e7:	cc                   	int3
  4188e8:	cc                   	int3
  4188e9:	cc                   	int3
  4188ea:	cc                   	int3
  4188eb:	cc                   	int3
  4188ec:	cc                   	int3
  4188ed:	cc                   	int3
  4188ee:	cc                   	int3
  4188ef:	cc                   	int3
  4188f0:	cc                   	int3
  4188f1:	cc                   	int3
  4188f2:	cc                   	int3
  4188f3:	cc                   	int3
  4188f4:	cc                   	int3
  4188f5:	cc                   	int3
  4188f6:	cc                   	int3
  4188f7:	cc                   	int3
  4188f8:	cc                   	int3
  4188f9:	cc                   	int3
  4188fa:	cc                   	int3
  4188fb:	cc                   	int3
  4188fc:	cc                   	int3
  4188fd:	cc                   	int3
  4188fe:	cc                   	int3
  4188ff:	cc                   	int3
  418900:	cc                   	int3
  418901:	cc                   	int3
  418902:	cc                   	int3
  418903:	cc                   	int3
  418904:	cc                   	int3
  418905:	cc                   	int3
  418906:	cc                   	int3
  418907:	cc                   	int3
  418908:	cc                   	int3
  418909:	cc                   	int3
  41890a:	cc                   	int3
  41890b:	cc                   	int3
  41890c:	cc                   	int3
  41890d:	cc                   	int3
  41890e:	cc                   	int3
  41890f:	cc                   	int3
  418910:	cc                   	int3
  418911:	cc                   	int3
  418912:	cc                   	int3
  418913:	cc                   	int3
  418914:	cc                   	int3
  418915:	cc                   	int3
  418916:	cc                   	int3
  418917:	cc                   	int3
  418918:	cc                   	int3
  418919:	cc                   	int3
  41891a:	cc                   	int3
  41891b:	cc                   	int3
  41891c:	cc                   	int3
  41891d:	cc                   	int3
  41891e:	cc                   	int3
  41891f:	cc                   	int3
  418920:	cc                   	int3
  418921:	cc                   	int3
  418922:	cc                   	int3
  418923:	cc                   	int3
  418924:	cc                   	int3
  418925:	cc                   	int3
  418926:	cc                   	int3
  418927:	cc                   	int3
  418928:	cc                   	int3
  418929:	cc                   	int3
  41892a:	cc                   	int3
  41892b:	cc                   	int3
  41892c:	cc                   	int3
  41892d:	cc                   	int3
  41892e:	cc                   	int3
  41892f:	cc                   	int3
  418930:	cc                   	int3
  418931:	cc                   	int3
  418932:	cc                   	int3
  418933:	cc                   	int3
  418934:	cc                   	int3
  418935:	cc                   	int3
  418936:	cc                   	int3
  418937:	cc                   	int3
  418938:	cc                   	int3
  418939:	cc                   	int3
  41893a:	cc                   	int3
  41893b:	cc                   	int3
  41893c:	cc                   	int3
  41893d:	cc                   	int3
  41893e:	cc                   	int3
  41893f:	cc                   	int3
  418940:	cc                   	int3
  418941:	cc                   	int3
  418942:	cc                   	int3
  418943:	cc                   	int3
  418944:	cc                   	int3
  418945:	cc                   	int3
  418946:	cc                   	int3
  418947:	cc                   	int3
  418948:	cc                   	int3
  418949:	cc                   	int3
  41894a:	cc                   	int3
  41894b:	cc                   	int3
  41894c:	cc                   	int3
  41894d:	cc                   	int3
  41894e:	cc                   	int3
  41894f:	cc                   	int3
  418950:	cc                   	int3
  418951:	cc                   	int3
  418952:	cc                   	int3
  418953:	cc                   	int3
  418954:	cc                   	int3
  418955:	cc                   	int3
  418956:	cc                   	int3
  418957:	cc                   	int3
  418958:	cc                   	int3
  418959:	cc                   	int3
  41895a:	cc                   	int3
  41895b:	cc                   	int3
  41895c:	cc                   	int3
  41895d:	cc                   	int3
  41895e:	cc                   	int3
  41895f:	cc                   	int3
  418960:	cc                   	int3
  418961:	cc                   	int3
  418962:	cc                   	int3
  418963:	cc                   	int3
  418964:	cc                   	int3
  418965:	cc                   	int3
  418966:	cc                   	int3
  418967:	cc                   	int3
  418968:	cc                   	int3
  418969:	cc                   	int3
  41896a:	cc                   	int3
  41896b:	cc                   	int3
  41896c:	cc                   	int3
  41896d:	cc                   	int3
  41896e:	cc                   	int3
  41896f:	cc                   	int3
  418970:	cc                   	int3
  418971:	cc                   	int3
  418972:	cc                   	int3
  418973:	cc                   	int3
  418974:	cc                   	int3
  418975:	cc                   	int3
  418976:	cc                   	int3
  418977:	cc                   	int3
  418978:	cc                   	int3
  418979:	cc                   	int3
  41897a:	cc                   	int3
  41897b:	cc                   	int3
  41897c:	cc                   	int3
  41897d:	cc                   	int3
  41897e:	cc                   	int3
  41897f:	cc                   	int3
  418980:	cc                   	int3
  418981:	cc                   	int3
  418982:	cc                   	int3
  418983:	cc                   	int3
  418984:	cc                   	int3
  418985:	cc                   	int3
  418986:	cc                   	int3
  418987:	cc                   	int3
  418988:	cc                   	int3
  418989:	cc                   	int3
  41898a:	cc                   	int3
  41898b:	cc                   	int3
  41898c:	cc                   	int3
  41898d:	cc                   	int3
  41898e:	cc                   	int3
  41898f:	cc                   	int3
  418990:	cc                   	int3
  418991:	cc                   	int3
  418992:	cc                   	int3
  418993:	cc                   	int3
  418994:	cc                   	int3
  418995:	cc                   	int3
  418996:	cc                   	int3
  418997:	cc                   	int3
  418998:	cc                   	int3
  418999:	cc                   	int3
  41899a:	cc                   	int3
  41899b:	cc                   	int3
  41899c:	cc                   	int3
  41899d:	cc                   	int3
  41899e:	cc                   	int3
  41899f:	cc                   	int3
  4189a0:	cc                   	int3
  4189a1:	cc                   	int3
  4189a2:	cc                   	int3
  4189a3:	cc                   	int3
  4189a4:	cc                   	int3
  4189a5:	cc                   	int3
  4189a6:	cc                   	int3
  4189a7:	cc                   	int3
  4189a8:	cc                   	int3
  4189a9:	cc                   	int3
  4189aa:	cc                   	int3
  4189ab:	cc                   	int3
  4189ac:	cc                   	int3
  4189ad:	cc                   	int3
  4189ae:	cc                   	int3
  4189af:	cc                   	int3
  4189b0:	cc                   	int3
  4189b1:	cc                   	int3
  4189b2:	cc                   	int3
  4189b3:	cc                   	int3
  4189b4:	cc                   	int3
  4189b5:	cc                   	int3
  4189b6:	cc                   	int3
  4189b7:	cc                   	int3
  4189b8:	cc                   	int3
  4189b9:	cc                   	int3
  4189ba:	cc                   	int3
  4189bb:	cc                   	int3
  4189bc:	cc                   	int3
  4189bd:	cc                   	int3
  4189be:	cc                   	int3
  4189bf:	cc                   	int3
  4189c0:	cc                   	int3
  4189c1:	cc                   	int3
  4189c2:	cc                   	int3
  4189c3:	cc                   	int3
  4189c4:	cc                   	int3
  4189c5:	cc                   	int3
  4189c6:	cc                   	int3
  4189c7:	cc                   	int3
  4189c8:	cc                   	int3
  4189c9:	cc                   	int3
  4189ca:	cc                   	int3
  4189cb:	cc                   	int3
  4189cc:	cc                   	int3
  4189cd:	cc                   	int3
  4189ce:	cc                   	int3
  4189cf:	cc                   	int3
  4189d0:	cc                   	int3
  4189d1:	cc                   	int3
  4189d2:	cc                   	int3
  4189d3:	cc                   	int3
  4189d4:	cc                   	int3
  4189d5:	cc                   	int3
  4189d6:	cc                   	int3
  4189d7:	cc                   	int3
  4189d8:	cc                   	int3
  4189d9:	cc                   	int3
  4189da:	cc                   	int3
  4189db:	cc                   	int3
  4189dc:	cc                   	int3
  4189dd:	cc                   	int3
  4189de:	cc                   	int3
  4189df:	cc                   	int3
  4189e0:	cc                   	int3
  4189e1:	cc                   	int3
  4189e2:	cc                   	int3
  4189e3:	cc                   	int3
  4189e4:	cc                   	int3
  4189e5:	cc                   	int3
  4189e6:	cc                   	int3
  4189e7:	cc                   	int3
  4189e8:	cc                   	int3
  4189e9:	cc                   	int3
  4189ea:	cc                   	int3
  4189eb:	cc                   	int3
  4189ec:	cc                   	int3
  4189ed:	cc                   	int3
  4189ee:	cc                   	int3
  4189ef:	cc                   	int3
  4189f0:	cc                   	int3
  4189f1:	cc                   	int3
  4189f2:	cc                   	int3
  4189f3:	cc                   	int3
  4189f4:	cc                   	int3
  4189f5:	cc                   	int3
  4189f6:	cc                   	int3
  4189f7:	cc                   	int3
  4189f8:	cc                   	int3
  4189f9:	cc                   	int3
  4189fa:	cc                   	int3
  4189fb:	cc                   	int3
  4189fc:	cc                   	int3
  4189fd:	cc                   	int3
  4189fe:	cc                   	int3
  4189ff:	cc                   	int3
  418a00:	cc                   	int3
  418a01:	cc                   	int3
  418a02:	cc                   	int3
  418a03:	cc                   	int3
  418a04:	cc                   	int3
  418a05:	cc                   	int3
  418a06:	cc                   	int3
  418a07:	cc                   	int3
  418a08:	cc                   	int3
  418a09:	cc                   	int3
  418a0a:	cc                   	int3
  418a0b:	cc                   	int3
  418a0c:	cc                   	int3
  418a0d:	cc                   	int3
  418a0e:	cc                   	int3
  418a0f:	cc                   	int3
  418a10:	8d 4d d4             	lea    -0x2c(%ebp),%ecx
  418a13:	e9 1d 88 ff ff       	jmp    0x411235
  418a18:	cc                   	int3
  418a19:	cc                   	int3
  418a1a:	cc                   	int3
  418a1b:	cc                   	int3
  418a1c:	cc                   	int3
  418a1d:	90                   	nop
  418a1e:	90                   	nop
  418a1f:	8b 54 24 08          	mov    0x8(%esp),%edx
  418a23:	8d 42 0c             	lea    0xc(%edx),%eax
  418a26:	8b 8a 98 fe ff ff    	mov    -0x168(%edx),%ecx
  418a2c:	33 c8                	xor    %eax,%ecx
  418a2e:	e8 71 87 ff ff       	call   0x4111a4
  418a33:	8b 4a f8             	mov    -0x8(%edx),%ecx
  418a36:	33 c8                	xor    %eax,%ecx
  418a38:	e8 67 87 ff ff       	call   0x4111a4
  418a3d:	b8 5c c4 41 00       	mov    $0x41c45c,%eax
  418a42:	e9 e2 89 ff ff       	jmp    0x411429
  418a47:	cc                   	int3
  418a48:	cc                   	int3
  418a49:	cc                   	int3
  418a4a:	cc                   	int3
  418a4b:	cc                   	int3
  418a4c:	cc                   	int3
  418a4d:	cc                   	int3
  418a4e:	cc                   	int3
  418a4f:	cc                   	int3
  418a50:	cc                   	int3
  418a51:	cc                   	int3
  418a52:	cc                   	int3
  418a53:	cc                   	int3
  418a54:	cc                   	int3
  418a55:	cc                   	int3
  418a56:	cc                   	int3
  418a57:	cc                   	int3
  418a58:	cc                   	int3
  418a59:	cc                   	int3
  418a5a:	cc                   	int3
  418a5b:	cc                   	int3
  418a5c:	cc                   	int3
  418a5d:	cc                   	int3
  418a5e:	cc                   	int3
  418a5f:	cc                   	int3
  418a60:	8d 4d b4             	lea    -0x4c(%ebp),%ecx
  418a63:	e9 cd 87 ff ff       	jmp    0x411235
  418a68:	cc                   	int3
  418a69:	cc                   	int3
  418a6a:	cc                   	int3
  418a6b:	cc                   	int3
  418a6c:	cc                   	int3
  418a6d:	90                   	nop
  418a6e:	90                   	nop
  418a6f:	8b 54 24 08          	mov    0x8(%esp),%edx
  418a73:	8d 42 0c             	lea    0xc(%edx),%eax
  418a76:	8b 8a 98 fe ff ff    	mov    -0x168(%edx),%ecx
  418a7c:	33 c8                	xor    %eax,%ecx
  418a7e:	e8 21 87 ff ff       	call   0x4111a4
  418a83:	8b 4a f8             	mov    -0x8(%edx),%ecx
  418a86:	33 c8                	xor    %eax,%ecx
  418a88:	e8 17 87 ff ff       	call   0x4111a4
  418a8d:	b8 c8 c4 41 00       	mov    $0x41c4c8,%eax
  418a92:	e9 92 89 ff ff       	jmp    0x411429
  418a97:	cc                   	int3
  418a98:	cc                   	int3
  418a99:	cc                   	int3
  418a9a:	cc                   	int3
  418a9b:	cc                   	int3
  418a9c:	cc                   	int3
  418a9d:	cc                   	int3
  418a9e:	cc                   	int3
  418a9f:	cc                   	int3
  418aa0:	cc                   	int3
  418aa1:	cc                   	int3
  418aa2:	cc                   	int3
  418aa3:	cc                   	int3
  418aa4:	cc                   	int3
  418aa5:	cc                   	int3
  418aa6:	cc                   	int3
  418aa7:	cc                   	int3
  418aa8:	cc                   	int3
  418aa9:	cc                   	int3
  418aaa:	cc                   	int3
  418aab:	cc                   	int3
  418aac:	cc                   	int3
  418aad:	cc                   	int3
  418aae:	cc                   	int3
  418aaf:	cc                   	int3
  418ab0:	8b 4d ec             	mov    -0x14(%ebp),%ecx
  418ab3:	e9 3f 89 ff ff       	jmp    0x4113f7
  418ab8:	cc                   	int3
  418ab9:	cc                   	int3
  418aba:	cc                   	int3
  418abb:	cc                   	int3
  418abc:	cc                   	int3
  418abd:	90                   	nop
  418abe:	90                   	nop
  418abf:	8b 54 24 08          	mov    0x8(%esp),%edx
  418ac3:	8d 42 0c             	lea    0xc(%edx),%eax
  418ac6:	8b 8a 18 ff ff ff    	mov    -0xe8(%edx),%ecx
  418acc:	33 c8                	xor    %eax,%ecx
  418ace:	e8 d1 86 ff ff       	call   0x4111a4
  418ad3:	b8 28 c5 41 00       	mov    $0x41c528,%eax
  418ad8:	e9 4c 89 ff ff       	jmp    0x411429
  418add:	cc                   	int3
  418ade:	cc                   	int3
  418adf:	cc                   	int3
  418ae0:	cc                   	int3
  418ae1:	cc                   	int3
  418ae2:	cc                   	int3
  418ae3:	cc                   	int3
  418ae4:	cc                   	int3
  418ae5:	cc                   	int3
  418ae6:	cc                   	int3
  418ae7:	cc                   	int3
  418ae8:	cc                   	int3
  418ae9:	cc                   	int3
  418aea:	cc                   	int3
  418aeb:	cc                   	int3
  418aec:	cc                   	int3
  418aed:	cc                   	int3
  418aee:	cc                   	int3
  418aef:	cc                   	int3
  418af0:	90                   	nop
  418af1:	90                   	nop
  418af2:	8b 54 24 08          	mov    0x8(%esp),%edx
  418af6:	8d 42 0c             	lea    0xc(%edx),%eax
  418af9:	8b 8a 14 ff ff ff    	mov    -0xec(%edx),%ecx
  418aff:	33 c8                	xor    %eax,%ecx
  418b01:	e8 9e 86 ff ff       	call   0x4111a4
  418b06:	b8 f8 c4 41 00       	mov    $0x41c4f8,%eax
  418b0b:	e9 19 89 ff ff       	jmp    0x411429
  418b10:	cc                   	int3
  418b11:	cc                   	int3
  418b12:	cc                   	int3
  418b13:	cc                   	int3
  418b14:	cc                   	int3
  418b15:	cc                   	int3
  418b16:	cc                   	int3
  418b17:	cc                   	int3
  418b18:	cc                   	int3
  418b19:	cc                   	int3
  418b1a:	cc                   	int3
  418b1b:	cc                   	int3
  418b1c:	cc                   	int3
  418b1d:	cc                   	int3
  418b1e:	cc                   	int3
  418b1f:	cc                   	int3
  418b20:	90                   	nop
  418b21:	90                   	nop
  418b22:	8b 54 24 08          	mov    0x8(%esp),%edx
  418b26:	8d 42 0c             	lea    0xc(%edx),%eax
  418b29:	8b 8a 14 ff ff ff    	mov    -0xec(%edx),%ecx
  418b2f:	33 c8                	xor    %eax,%ecx
  418b31:	e8 6e 86 ff ff       	call   0x4111a4
  418b36:	b8 50 c5 41 00       	mov    $0x41c550,%eax
  418b3b:	e9 e9 88 ff ff       	jmp    0x411429
  418b40:	cc                   	int3
  418b41:	cc                   	int3
  418b42:	cc                   	int3
  418b43:	cc                   	int3
  418b44:	cc                   	int3
  418b45:	cc                   	int3
  418b46:	cc                   	int3
  418b47:	cc                   	int3
  418b48:	cc                   	int3
  418b49:	cc                   	int3
  418b4a:	cc                   	int3
  418b4b:	cc                   	int3
  418b4c:	cc                   	int3
  418b4d:	cc                   	int3
  418b4e:	cc                   	int3
  418b4f:	cc                   	int3
  418b50:	cc                   	int3
  418b51:	cc                   	int3
  418b52:	cc                   	int3
  418b53:	cc                   	int3
  418b54:	cc                   	int3
  418b55:	cc                   	int3
  418b56:	cc                   	int3
  418b57:	cc                   	int3
  418b58:	cc                   	int3
  418b59:	cc                   	int3
  418b5a:	cc                   	int3
  418b5b:	cc                   	int3
  418b5c:	cc                   	int3
  418b5d:	cc                   	int3
  418b5e:	cc                   	int3
  418b5f:	cc                   	int3
  418b60:	cc                   	int3
  418b61:	cc                   	int3
  418b62:	cc                   	int3
  418b63:	cc                   	int3
  418b64:	cc                   	int3
  418b65:	cc                   	int3
  418b66:	cc                   	int3
  418b67:	cc                   	int3
  418b68:	cc                   	int3
  418b69:	cc                   	int3
  418b6a:	cc                   	int3
  418b6b:	cc                   	int3
  418b6c:	cc                   	int3
  418b6d:	cc                   	int3
  418b6e:	cc                   	int3
  418b6f:	cc                   	int3
  418b70:	cc                   	int3
  418b71:	cc                   	int3
  418b72:	cc                   	int3
  418b73:	cc                   	int3
  418b74:	cc                   	int3
  418b75:	cc                   	int3
  418b76:	cc                   	int3
  418b77:	cc                   	int3
  418b78:	cc                   	int3
  418b79:	cc                   	int3
  418b7a:	cc                   	int3
  418b7b:	cc                   	int3
  418b7c:	cc                   	int3
  418b7d:	cc                   	int3
  418b7e:	cc                   	int3
  418b7f:	cc                   	int3
  418b80:	cc                   	int3
  418b81:	cc                   	int3
  418b82:	cc                   	int3
  418b83:	cc                   	int3
  418b84:	cc                   	int3
  418b85:	cc                   	int3
  418b86:	cc                   	int3
  418b87:	cc                   	int3
  418b88:	cc                   	int3
  418b89:	cc                   	int3
  418b8a:	cc                   	int3
  418b8b:	cc                   	int3
  418b8c:	cc                   	int3
  418b8d:	cc                   	int3
  418b8e:	cc                   	int3
  418b8f:	cc                   	int3
  418b90:	cc                   	int3
  418b91:	cc                   	int3
  418b92:	cc                   	int3
  418b93:	cc                   	int3
  418b94:	cc                   	int3
  418b95:	cc                   	int3
  418b96:	cc                   	int3
  418b97:	cc                   	int3
  418b98:	cc                   	int3
  418b99:	cc                   	int3
  418b9a:	cc                   	int3
  418b9b:	cc                   	int3
  418b9c:	cc                   	int3
  418b9d:	cc                   	int3
  418b9e:	cc                   	int3
  418b9f:	cc                   	int3
  418ba0:	cc                   	int3
  418ba1:	cc                   	int3
  418ba2:	cc                   	int3
  418ba3:	cc                   	int3
  418ba4:	cc                   	int3
  418ba5:	cc                   	int3
  418ba6:	cc                   	int3
  418ba7:	cc                   	int3
  418ba8:	cc                   	int3
  418ba9:	cc                   	int3
  418baa:	cc                   	int3
  418bab:	cc                   	int3
  418bac:	cc                   	int3
  418bad:	cc                   	int3
  418bae:	cc                   	int3
  418baf:	cc                   	int3
  418bb0:	cc                   	int3
  418bb1:	cc                   	int3
  418bb2:	cc                   	int3
  418bb3:	cc                   	int3
  418bb4:	cc                   	int3
  418bb5:	cc                   	int3
  418bb6:	cc                   	int3
  418bb7:	cc                   	int3
  418bb8:	cc                   	int3
  418bb9:	cc                   	int3
  418bba:	cc                   	int3
  418bbb:	cc                   	int3
  418bbc:	cc                   	int3
  418bbd:	cc                   	int3
  418bbe:	cc                   	int3
  418bbf:	cc                   	int3
  418bc0:	cc                   	int3
  418bc1:	cc                   	int3
  418bc2:	cc                   	int3
  418bc3:	cc                   	int3
  418bc4:	cc                   	int3
  418bc5:	cc                   	int3
  418bc6:	cc                   	int3
  418bc7:	cc                   	int3
  418bc8:	cc                   	int3
  418bc9:	cc                   	int3
  418bca:	cc                   	int3
  418bcb:	cc                   	int3
  418bcc:	cc                   	int3
  418bcd:	cc                   	int3
  418bce:	cc                   	int3
  418bcf:	cc                   	int3
  418bd0:	cc                   	int3
  418bd1:	cc                   	int3
  418bd2:	cc                   	int3
  418bd3:	cc                   	int3
  418bd4:	cc                   	int3
  418bd5:	cc                   	int3
  418bd6:	cc                   	int3
  418bd7:	cc                   	int3
  418bd8:	cc                   	int3
  418bd9:	cc                   	int3
  418bda:	cc                   	int3
  418bdb:	cc                   	int3
  418bdc:	cc                   	int3
  418bdd:	cc                   	int3
  418bde:	cc                   	int3
  418bdf:	cc                   	int3
  418be0:	cc                   	int3
  418be1:	cc                   	int3
  418be2:	cc                   	int3
  418be3:	cc                   	int3
  418be4:	cc                   	int3
  418be5:	cc                   	int3
  418be6:	cc                   	int3
  418be7:	cc                   	int3
  418be8:	cc                   	int3
  418be9:	cc                   	int3
  418bea:	cc                   	int3
  418beb:	cc                   	int3
  418bec:	cc                   	int3
  418bed:	cc                   	int3
  418bee:	cc                   	int3
  418bef:	cc                   	int3
  418bf0:	cc                   	int3
  418bf1:	cc                   	int3
  418bf2:	cc                   	int3
  418bf3:	cc                   	int3
  418bf4:	cc                   	int3
  418bf5:	cc                   	int3
  418bf6:	cc                   	int3
  418bf7:	cc                   	int3
  418bf8:	cc                   	int3
  418bf9:	cc                   	int3
  418bfa:	cc                   	int3
  418bfb:	cc                   	int3
  418bfc:	cc                   	int3
  418bfd:	cc                   	int3
  418bfe:	cc                   	int3
  418bff:	cc                   	int3
  418c00:	cc                   	int3
  418c01:	cc                   	int3
  418c02:	cc                   	int3
  418c03:	cc                   	int3
  418c04:	cc                   	int3
  418c05:	cc                   	int3
  418c06:	cc                   	int3
  418c07:	cc                   	int3
  418c08:	cc                   	int3
  418c09:	cc                   	int3
  418c0a:	cc                   	int3
  418c0b:	cc                   	int3
  418c0c:	cc                   	int3
  418c0d:	cc                   	int3
  418c0e:	cc                   	int3
  418c0f:	cc                   	int3
  418c10:	cc                   	int3
  418c11:	cc                   	int3
  418c12:	cc                   	int3
  418c13:	cc                   	int3
  418c14:	cc                   	int3
  418c15:	cc                   	int3
  418c16:	cc                   	int3
  418c17:	cc                   	int3
  418c18:	cc                   	int3
  418c19:	cc                   	int3
  418c1a:	cc                   	int3
  418c1b:	cc                   	int3
  418c1c:	cc                   	int3
  418c1d:	cc                   	int3
  418c1e:	cc                   	int3
  418c1f:	cc                   	int3
  418c20:	cc                   	int3
  418c21:	cc                   	int3
  418c22:	cc                   	int3
  418c23:	cc                   	int3
  418c24:	cc                   	int3
  418c25:	cc                   	int3
  418c26:	cc                   	int3
  418c27:	cc                   	int3
  418c28:	cc                   	int3
  418c29:	cc                   	int3
  418c2a:	cc                   	int3
  418c2b:	cc                   	int3
  418c2c:	cc                   	int3
  418c2d:	cc                   	int3
  418c2e:	cc                   	int3
  418c2f:	cc                   	int3
  418c30:	cc                   	int3
  418c31:	cc                   	int3
  418c32:	cc                   	int3
  418c33:	cc                   	int3
  418c34:	cc                   	int3
  418c35:	cc                   	int3
  418c36:	cc                   	int3
  418c37:	cc                   	int3
  418c38:	cc                   	int3
  418c39:	cc                   	int3
  418c3a:	cc                   	int3
  418c3b:	cc                   	int3
  418c3c:	cc                   	int3
  418c3d:	cc                   	int3
  418c3e:	cc                   	int3
  418c3f:	cc                   	int3
  418c40:	cc                   	int3
  418c41:	cc                   	int3
  418c42:	cc                   	int3
  418c43:	cc                   	int3
  418c44:	cc                   	int3
  418c45:	cc                   	int3
  418c46:	cc                   	int3
  418c47:	cc                   	int3
  418c48:	cc                   	int3
  418c49:	cc                   	int3
  418c4a:	cc                   	int3
  418c4b:	cc                   	int3
  418c4c:	cc                   	int3
  418c4d:	cc                   	int3
  418c4e:	cc                   	int3
  418c4f:	cc                   	int3
  418c50:	cc                   	int3
  418c51:	cc                   	int3
  418c52:	cc                   	int3
  418c53:	cc                   	int3
  418c54:	cc                   	int3
  418c55:	cc                   	int3
  418c56:	cc                   	int3
  418c57:	cc                   	int3
  418c58:	cc                   	int3
  418c59:	cc                   	int3
  418c5a:	cc                   	int3
  418c5b:	cc                   	int3
  418c5c:	cc                   	int3
  418c5d:	cc                   	int3
  418c5e:	cc                   	int3
  418c5f:	cc                   	int3
  418c60:	cc                   	int3
  418c61:	cc                   	int3
  418c62:	cc                   	int3
  418c63:	cc                   	int3
  418c64:	cc                   	int3
  418c65:	cc                   	int3
  418c66:	cc                   	int3
  418c67:	cc                   	int3
  418c68:	cc                   	int3
  418c69:	cc                   	int3
  418c6a:	cc                   	int3
  418c6b:	cc                   	int3
  418c6c:	cc                   	int3
  418c6d:	cc                   	int3
  418c6e:	cc                   	int3
  418c6f:	cc                   	int3
  418c70:	cc                   	int3
  418c71:	cc                   	int3
  418c72:	cc                   	int3
  418c73:	cc                   	int3
  418c74:	cc                   	int3
  418c75:	cc                   	int3
  418c76:	cc                   	int3
  418c77:	cc                   	int3
  418c78:	cc                   	int3
  418c79:	cc                   	int3
  418c7a:	cc                   	int3
  418c7b:	cc                   	int3
  418c7c:	cc                   	int3
  418c7d:	cc                   	int3
  418c7e:	cc                   	int3
  418c7f:	cc                   	int3
  418c80:	cc                   	int3
  418c81:	cc                   	int3
  418c82:	cc                   	int3
  418c83:	cc                   	int3
  418c84:	cc                   	int3
  418c85:	cc                   	int3
  418c86:	cc                   	int3
  418c87:	cc                   	int3
  418c88:	cc                   	int3
  418c89:	cc                   	int3
  418c8a:	cc                   	int3
  418c8b:	cc                   	int3
  418c8c:	cc                   	int3
  418c8d:	cc                   	int3
  418c8e:	cc                   	int3
  418c8f:	cc                   	int3
  418c90:	cc                   	int3
  418c91:	cc                   	int3
  418c92:	cc                   	int3
  418c93:	cc                   	int3
  418c94:	cc                   	int3
  418c95:	cc                   	int3
  418c96:	cc                   	int3
  418c97:	cc                   	int3
  418c98:	cc                   	int3
  418c99:	cc                   	int3
  418c9a:	cc                   	int3
  418c9b:	cc                   	int3
  418c9c:	cc                   	int3
  418c9d:	cc                   	int3
  418c9e:	cc                   	int3
  418c9f:	cc                   	int3
  418ca0:	cc                   	int3
  418ca1:	cc                   	int3
  418ca2:	cc                   	int3
  418ca3:	cc                   	int3
  418ca4:	cc                   	int3
  418ca5:	cc                   	int3
  418ca6:	cc                   	int3
  418ca7:	cc                   	int3
  418ca8:	cc                   	int3
  418ca9:	cc                   	int3
  418caa:	cc                   	int3
  418cab:	cc                   	int3
  418cac:	cc                   	int3
  418cad:	cc                   	int3
  418cae:	cc                   	int3
  418caf:	cc                   	int3
  418cb0:	cc                   	int3
  418cb1:	cc                   	int3
  418cb2:	cc                   	int3
  418cb3:	cc                   	int3
  418cb4:	cc                   	int3
  418cb5:	cc                   	int3
  418cb6:	cc                   	int3
  418cb7:	cc                   	int3
  418cb8:	cc                   	int3
  418cb9:	cc                   	int3
  418cba:	cc                   	int3
  418cbb:	cc                   	int3
  418cbc:	cc                   	int3
  418cbd:	cc                   	int3
  418cbe:	cc                   	int3
  418cbf:	cc                   	int3
  418cc0:	cc                   	int3
  418cc1:	cc                   	int3
  418cc2:	cc                   	int3
  418cc3:	cc                   	int3
  418cc4:	cc                   	int3
  418cc5:	cc                   	int3
  418cc6:	cc                   	int3
  418cc7:	cc                   	int3
  418cc8:	cc                   	int3
  418cc9:	cc                   	int3
  418cca:	cc                   	int3
  418ccb:	cc                   	int3
  418ccc:	cc                   	int3
  418ccd:	cc                   	int3
  418cce:	cc                   	int3
  418ccf:	cc                   	int3
  418cd0:	cc                   	int3
  418cd1:	cc                   	int3
  418cd2:	cc                   	int3
  418cd3:	cc                   	int3
  418cd4:	cc                   	int3
  418cd5:	cc                   	int3
  418cd6:	cc                   	int3
  418cd7:	cc                   	int3
  418cd8:	cc                   	int3
  418cd9:	cc                   	int3
  418cda:	cc                   	int3
  418cdb:	cc                   	int3
  418cdc:	cc                   	int3
  418cdd:	cc                   	int3
  418cde:	cc                   	int3
  418cdf:	cc                   	int3
  418ce0:	cc                   	int3
  418ce1:	cc                   	int3
  418ce2:	cc                   	int3
  418ce3:	cc                   	int3
  418ce4:	cc                   	int3
  418ce5:	cc                   	int3
  418ce6:	cc                   	int3
  418ce7:	cc                   	int3
  418ce8:	cc                   	int3
  418ce9:	cc                   	int3
  418cea:	cc                   	int3
  418ceb:	cc                   	int3
  418cec:	cc                   	int3
  418ced:	cc                   	int3
  418cee:	cc                   	int3
  418cef:	cc                   	int3
  418cf0:	cc                   	int3
  418cf1:	cc                   	int3
  418cf2:	cc                   	int3
  418cf3:	cc                   	int3
  418cf4:	cc                   	int3
  418cf5:	cc                   	int3
  418cf6:	cc                   	int3
  418cf7:	cc                   	int3
  418cf8:	cc                   	int3
  418cf9:	cc                   	int3
  418cfa:	cc                   	int3
  418cfb:	cc                   	int3
  418cfc:	cc                   	int3
  418cfd:	cc                   	int3
  418cfe:	cc                   	int3
  418cff:	cc                   	int3
  418d00:	cc                   	int3
  418d01:	cc                   	int3
  418d02:	cc                   	int3
  418d03:	cc                   	int3
  418d04:	cc                   	int3
  418d05:	cc                   	int3
  418d06:	cc                   	int3
  418d07:	cc                   	int3
  418d08:	cc                   	int3
  418d09:	cc                   	int3
  418d0a:	cc                   	int3
  418d0b:	cc                   	int3
  418d0c:	cc                   	int3
  418d0d:	cc                   	int3
  418d0e:	cc                   	int3
  418d0f:	cc                   	int3
  418d10:	cc                   	int3
  418d11:	cc                   	int3
  418d12:	cc                   	int3
  418d13:	cc                   	int3
  418d14:	cc                   	int3
  418d15:	cc                   	int3
  418d16:	cc                   	int3
  418d17:	cc                   	int3
  418d18:	cc                   	int3
  418d19:	cc                   	int3
  418d1a:	cc                   	int3
  418d1b:	cc                   	int3
  418d1c:	cc                   	int3
  418d1d:	cc                   	int3
  418d1e:	cc                   	int3
  418d1f:	cc                   	int3
  418d20:	cc                   	int3
  418d21:	cc                   	int3
  418d22:	cc                   	int3
  418d23:	cc                   	int3
  418d24:	cc                   	int3
  418d25:	cc                   	int3
  418d26:	cc                   	int3
  418d27:	cc                   	int3
  418d28:	cc                   	int3
  418d29:	cc                   	int3
  418d2a:	cc                   	int3
  418d2b:	cc                   	int3
  418d2c:	cc                   	int3
  418d2d:	cc                   	int3
  418d2e:	cc                   	int3
  418d2f:	cc                   	int3
  418d30:	cc                   	int3
  418d31:	cc                   	int3
  418d32:	cc                   	int3
  418d33:	cc                   	int3
  418d34:	cc                   	int3
  418d35:	cc                   	int3
  418d36:	cc                   	int3
  418d37:	cc                   	int3
  418d38:	cc                   	int3
  418d39:	cc                   	int3
  418d3a:	cc                   	int3
  418d3b:	cc                   	int3
  418d3c:	cc                   	int3
  418d3d:	cc                   	int3
  418d3e:	cc                   	int3
  418d3f:	cc                   	int3
  418d40:	cc                   	int3
  418d41:	cc                   	int3
  418d42:	cc                   	int3
  418d43:	cc                   	int3
  418d44:	cc                   	int3
  418d45:	cc                   	int3
  418d46:	cc                   	int3
  418d47:	cc                   	int3
  418d48:	cc                   	int3
  418d49:	cc                   	int3
  418d4a:	cc                   	int3
  418d4b:	cc                   	int3
  418d4c:	cc                   	int3
  418d4d:	cc                   	int3
  418d4e:	cc                   	int3
  418d4f:	cc                   	int3
  418d50:	cc                   	int3
  418d51:	cc                   	int3
  418d52:	cc                   	int3
  418d53:	cc                   	int3
  418d54:	cc                   	int3
  418d55:	cc                   	int3
  418d56:	cc                   	int3
  418d57:	cc                   	int3
  418d58:	cc                   	int3
  418d59:	cc                   	int3
  418d5a:	cc                   	int3
  418d5b:	cc                   	int3
  418d5c:	cc                   	int3
  418d5d:	cc                   	int3
  418d5e:	cc                   	int3
  418d5f:	cc                   	int3
  418d60:	cc                   	int3
  418d61:	cc                   	int3
  418d62:	cc                   	int3
  418d63:	cc                   	int3
  418d64:	cc                   	int3
  418d65:	cc                   	int3
  418d66:	cc                   	int3
  418d67:	cc                   	int3
  418d68:	cc                   	int3
  418d69:	cc                   	int3
  418d6a:	cc                   	int3
  418d6b:	cc                   	int3
  418d6c:	cc                   	int3
  418d6d:	cc                   	int3
  418d6e:	cc                   	int3
  418d6f:	cc                   	int3
  418d70:	cc                   	int3
  418d71:	cc                   	int3
  418d72:	cc                   	int3
  418d73:	cc                   	int3
  418d74:	cc                   	int3
  418d75:	cc                   	int3
  418d76:	cc                   	int3
  418d77:	cc                   	int3
  418d78:	cc                   	int3
  418d79:	cc                   	int3
  418d7a:	cc                   	int3
  418d7b:	cc                   	int3
  418d7c:	cc                   	int3
  418d7d:	cc                   	int3
  418d7e:	cc                   	int3
  418d7f:	cc                   	int3
  418d80:	cc                   	int3
  418d81:	cc                   	int3
  418d82:	cc                   	int3
  418d83:	cc                   	int3
  418d84:	cc                   	int3
  418d85:	cc                   	int3
  418d86:	cc                   	int3
  418d87:	cc                   	int3
  418d88:	cc                   	int3
  418d89:	cc                   	int3
  418d8a:	cc                   	int3
  418d8b:	cc                   	int3
  418d8c:	cc                   	int3
  418d8d:	cc                   	int3
  418d8e:	cc                   	int3
  418d8f:	cc                   	int3
  418d90:	cc                   	int3
  418d91:	cc                   	int3
  418d92:	cc                   	int3
  418d93:	cc                   	int3
  418d94:	cc                   	int3
  418d95:	cc                   	int3
  418d96:	cc                   	int3
  418d97:	cc                   	int3
  418d98:	cc                   	int3
  418d99:	cc                   	int3
  418d9a:	cc                   	int3
  418d9b:	cc                   	int3
  418d9c:	cc                   	int3
  418d9d:	cc                   	int3
  418d9e:	cc                   	int3
  418d9f:	cc                   	int3
  418da0:	cc                   	int3
  418da1:	cc                   	int3
  418da2:	cc                   	int3
  418da3:	cc                   	int3
  418da4:	cc                   	int3
  418da5:	cc                   	int3
  418da6:	cc                   	int3
  418da7:	cc                   	int3
  418da8:	cc                   	int3
  418da9:	cc                   	int3
  418daa:	cc                   	int3
  418dab:	cc                   	int3
  418dac:	cc                   	int3
  418dad:	cc                   	int3
  418dae:	cc                   	int3
  418daf:	cc                   	int3
  418db0:	cc                   	int3
  418db1:	cc                   	int3
  418db2:	cc                   	int3
  418db3:	cc                   	int3
  418db4:	cc                   	int3
  418db5:	cc                   	int3
  418db6:	cc                   	int3
  418db7:	cc                   	int3
  418db8:	cc                   	int3
  418db9:	cc                   	int3
  418dba:	cc                   	int3
  418dbb:	cc                   	int3
  418dbc:	cc                   	int3
  418dbd:	cc                   	int3
  418dbe:	cc                   	int3
  418dbf:	cc                   	int3
  418dc0:	cc                   	int3
  418dc1:	cc                   	int3
  418dc2:	cc                   	int3
  418dc3:	cc                   	int3
  418dc4:	cc                   	int3
  418dc5:	cc                   	int3
  418dc6:	cc                   	int3
  418dc7:	cc                   	int3
  418dc8:	cc                   	int3
  418dc9:	cc                   	int3
  418dca:	cc                   	int3
  418dcb:	cc                   	int3
  418dcc:	cc                   	int3
  418dcd:	cc                   	int3
  418dce:	cc                   	int3
  418dcf:	cc                   	int3
  418dd0:	cc                   	int3
  418dd1:	cc                   	int3
  418dd2:	cc                   	int3
  418dd3:	cc                   	int3
  418dd4:	cc                   	int3
  418dd5:	cc                   	int3
  418dd6:	cc                   	int3
  418dd7:	cc                   	int3
  418dd8:	cc                   	int3
  418dd9:	cc                   	int3
  418dda:	cc                   	int3
  418ddb:	cc                   	int3
  418ddc:	cc                   	int3
  418ddd:	cc                   	int3
  418dde:	cc                   	int3
  418ddf:	cc                   	int3
  418de0:	cc                   	int3
  418de1:	cc                   	int3
  418de2:	cc                   	int3
  418de3:	cc                   	int3
  418de4:	cc                   	int3
  418de5:	cc                   	int3
  418de6:	cc                   	int3
  418de7:	cc                   	int3
  418de8:	cc                   	int3
  418de9:	cc                   	int3
  418dea:	cc                   	int3
  418deb:	cc                   	int3
  418dec:	cc                   	int3
  418ded:	cc                   	int3
  418dee:	cc                   	int3
  418def:	cc                   	int3
  418df0:	cc                   	int3
  418df1:	cc                   	int3
  418df2:	cc                   	int3
  418df3:	cc                   	int3
  418df4:	cc                   	int3
  418df5:	cc                   	int3
  418df6:	cc                   	int3
  418df7:	cc                   	int3
  418df8:	cc                   	int3
  418df9:	cc                   	int3
  418dfa:	cc                   	int3
  418dfb:	cc                   	int3
  418dfc:	cc                   	int3
  418dfd:	cc                   	int3
  418dfe:	cc                   	int3
  418dff:	cc                   	int3
  418e00:	cc                   	int3
  418e01:	cc                   	int3
  418e02:	cc                   	int3
  418e03:	cc                   	int3
  418e04:	cc                   	int3
  418e05:	cc                   	int3
  418e06:	cc                   	int3
  418e07:	cc                   	int3
  418e08:	cc                   	int3
  418e09:	cc                   	int3
  418e0a:	cc                   	int3
  418e0b:	cc                   	int3
  418e0c:	cc                   	int3
  418e0d:	cc                   	int3
  418e0e:	cc                   	int3
  418e0f:	cc                   	int3
  418e10:	cc                   	int3
  418e11:	cc                   	int3
  418e12:	cc                   	int3
  418e13:	cc                   	int3
  418e14:	cc                   	int3
  418e15:	cc                   	int3
  418e16:	cc                   	int3
  418e17:	cc                   	int3
  418e18:	cc                   	int3
  418e19:	cc                   	int3
  418e1a:	cc                   	int3
  418e1b:	cc                   	int3
  418e1c:	cc                   	int3
  418e1d:	cc                   	int3
  418e1e:	cc                   	int3
  418e1f:	cc                   	int3
  418e20:	cc                   	int3
  418e21:	cc                   	int3
  418e22:	cc                   	int3
  418e23:	cc                   	int3
  418e24:	cc                   	int3
  418e25:	cc                   	int3
  418e26:	cc                   	int3
  418e27:	cc                   	int3
  418e28:	cc                   	int3
  418e29:	cc                   	int3
  418e2a:	cc                   	int3
  418e2b:	cc                   	int3
  418e2c:	cc                   	int3
  418e2d:	cc                   	int3
  418e2e:	cc                   	int3
  418e2f:	cc                   	int3
  418e30:	cc                   	int3
  418e31:	cc                   	int3
  418e32:	cc                   	int3
  418e33:	cc                   	int3
  418e34:	cc                   	int3
  418e35:	cc                   	int3
  418e36:	cc                   	int3
  418e37:	cc                   	int3
  418e38:	cc                   	int3
  418e39:	cc                   	int3
  418e3a:	cc                   	int3
  418e3b:	cc                   	int3
  418e3c:	cc                   	int3
  418e3d:	cc                   	int3
  418e3e:	cc                   	int3
  418e3f:	cc                   	int3
  418e40:	cc                   	int3
  418e41:	cc                   	int3
  418e42:	cc                   	int3
  418e43:	cc                   	int3
  418e44:	cc                   	int3
  418e45:	cc                   	int3
  418e46:	cc                   	int3
  418e47:	cc                   	int3
  418e48:	cc                   	int3
  418e49:	cc                   	int3
  418e4a:	cc                   	int3
  418e4b:	cc                   	int3
  418e4c:	cc                   	int3
  418e4d:	cc                   	int3
  418e4e:	cc                   	int3
  418e4f:	cc                   	int3
  418e50:	cc                   	int3
  418e51:	cc                   	int3
  418e52:	cc                   	int3
  418e53:	cc                   	int3
  418e54:	cc                   	int3
  418e55:	cc                   	int3
  418e56:	cc                   	int3
  418e57:	cc                   	int3
  418e58:	cc                   	int3
  418e59:	cc                   	int3
  418e5a:	cc                   	int3
  418e5b:	cc                   	int3
  418e5c:	cc                   	int3
  418e5d:	cc                   	int3
  418e5e:	cc                   	int3
  418e5f:	cc                   	int3
  418e60:	cc                   	int3
  418e61:	cc                   	int3
  418e62:	cc                   	int3
  418e63:	cc                   	int3
  418e64:	cc                   	int3
  418e65:	cc                   	int3
  418e66:	cc                   	int3
  418e67:	cc                   	int3
  418e68:	cc                   	int3
  418e69:	cc                   	int3
  418e6a:	cc                   	int3
  418e6b:	cc                   	int3
  418e6c:	cc                   	int3
  418e6d:	cc                   	int3
  418e6e:	cc                   	int3
  418e6f:	cc                   	int3
  418e70:	cc                   	int3
  418e71:	cc                   	int3
  418e72:	cc                   	int3
  418e73:	cc                   	int3
  418e74:	cc                   	int3
  418e75:	cc                   	int3
  418e76:	cc                   	int3
  418e77:	cc                   	int3
  418e78:	cc                   	int3
  418e79:	cc                   	int3
  418e7a:	cc                   	int3
  418e7b:	cc                   	int3
  418e7c:	cc                   	int3
  418e7d:	cc                   	int3
  418e7e:	cc                   	int3
  418e7f:	cc                   	int3
  418e80:	cc                   	int3
  418e81:	cc                   	int3
  418e82:	cc                   	int3
  418e83:	cc                   	int3
  418e84:	cc                   	int3
  418e85:	cc                   	int3
  418e86:	cc                   	int3
  418e87:	cc                   	int3
  418e88:	cc                   	int3
  418e89:	cc                   	int3
  418e8a:	cc                   	int3
  418e8b:	cc                   	int3
  418e8c:	cc                   	int3
  418e8d:	cc                   	int3
  418e8e:	cc                   	int3
  418e8f:	cc                   	int3
  418e90:	cc                   	int3
  418e91:	cc                   	int3
  418e92:	cc                   	int3
  418e93:	cc                   	int3
  418e94:	cc                   	int3
  418e95:	cc                   	int3
  418e96:	cc                   	int3
  418e97:	cc                   	int3
  418e98:	cc                   	int3
  418e99:	cc                   	int3
  418e9a:	cc                   	int3
  418e9b:	cc                   	int3
  418e9c:	cc                   	int3
  418e9d:	cc                   	int3
  418e9e:	cc                   	int3
  418e9f:	cc                   	int3
  418ea0:	cc                   	int3
  418ea1:	cc                   	int3
  418ea2:	cc                   	int3
  418ea3:	cc                   	int3
  418ea4:	cc                   	int3
  418ea5:	cc                   	int3
  418ea6:	cc                   	int3
  418ea7:	cc                   	int3
  418ea8:	cc                   	int3
  418ea9:	cc                   	int3
  418eaa:	cc                   	int3
  418eab:	cc                   	int3
  418eac:	cc                   	int3
  418ead:	cc                   	int3
  418eae:	cc                   	int3
  418eaf:	cc                   	int3
  418eb0:	cc                   	int3
  418eb1:	cc                   	int3
  418eb2:	cc                   	int3
  418eb3:	cc                   	int3
  418eb4:	cc                   	int3
  418eb5:	cc                   	int3
  418eb6:	cc                   	int3
  418eb7:	cc                   	int3
  418eb8:	cc                   	int3
  418eb9:	cc                   	int3
  418eba:	cc                   	int3
  418ebb:	cc                   	int3
  418ebc:	cc                   	int3
  418ebd:	cc                   	int3
  418ebe:	cc                   	int3
  418ebf:	cc                   	int3
  418ec0:	cc                   	int3
  418ec1:	cc                   	int3
  418ec2:	cc                   	int3
  418ec3:	cc                   	int3
  418ec4:	cc                   	int3
  418ec5:	cc                   	int3
  418ec6:	cc                   	int3
  418ec7:	cc                   	int3
  418ec8:	cc                   	int3
  418ec9:	cc                   	int3
  418eca:	cc                   	int3
  418ecb:	cc                   	int3
  418ecc:	cc                   	int3
  418ecd:	cc                   	int3
  418ece:	cc                   	int3
  418ecf:	cc                   	int3
  418ed0:	cc                   	int3
  418ed1:	cc                   	int3
  418ed2:	cc                   	int3
  418ed3:	cc                   	int3
  418ed4:	cc                   	int3
  418ed5:	cc                   	int3
  418ed6:	cc                   	int3
  418ed7:	cc                   	int3
  418ed8:	cc                   	int3
  418ed9:	cc                   	int3
  418eda:	cc                   	int3
  418edb:	cc                   	int3
  418edc:	cc                   	int3
  418edd:	cc                   	int3
  418ede:	cc                   	int3
  418edf:	cc                   	int3
  418ee0:	cc                   	int3
  418ee1:	cc                   	int3
  418ee2:	cc                   	int3
  418ee3:	cc                   	int3
  418ee4:	cc                   	int3
  418ee5:	cc                   	int3
  418ee6:	cc                   	int3
  418ee7:	cc                   	int3
  418ee8:	cc                   	int3
  418ee9:	cc                   	int3
  418eea:	cc                   	int3
  418eeb:	cc                   	int3
  418eec:	cc                   	int3
  418eed:	cc                   	int3
  418eee:	cc                   	int3
  418eef:	cc                   	int3
  418ef0:	cc                   	int3
  418ef1:	cc                   	int3
  418ef2:	cc                   	int3
  418ef3:	cc                   	int3
  418ef4:	cc                   	int3
  418ef5:	cc                   	int3
  418ef6:	cc                   	int3
  418ef7:	cc                   	int3
  418ef8:	cc                   	int3
  418ef9:	cc                   	int3
  418efa:	cc                   	int3
  418efb:	cc                   	int3
  418efc:	cc                   	int3
  418efd:	cc                   	int3
  418efe:	cc                   	int3
  418eff:	cc                   	int3
  418f00:	cc                   	int3
  418f01:	cc                   	int3
  418f02:	cc                   	int3
  418f03:	cc                   	int3
  418f04:	cc                   	int3
  418f05:	cc                   	int3
  418f06:	cc                   	int3
  418f07:	cc                   	int3
  418f08:	cc                   	int3
  418f09:	cc                   	int3
  418f0a:	cc                   	int3
  418f0b:	cc                   	int3
  418f0c:	cc                   	int3
  418f0d:	cc                   	int3
  418f0e:	cc                   	int3
  418f0f:	cc                   	int3
  418f10:	cc                   	int3
  418f11:	cc                   	int3
  418f12:	cc                   	int3
  418f13:	cc                   	int3
  418f14:	cc                   	int3
  418f15:	cc                   	int3
  418f16:	cc                   	int3
  418f17:	cc                   	int3
  418f18:	cc                   	int3
  418f19:	cc                   	int3
  418f1a:	cc                   	int3
  418f1b:	cc                   	int3
  418f1c:	cc                   	int3
  418f1d:	cc                   	int3
  418f1e:	cc                   	int3
  418f1f:	cc                   	int3
  418f20:	cc                   	int3
  418f21:	cc                   	int3
  418f22:	cc                   	int3
  418f23:	cc                   	int3
  418f24:	cc                   	int3
  418f25:	cc                   	int3
  418f26:	cc                   	int3
  418f27:	cc                   	int3
  418f28:	cc                   	int3
  418f29:	cc                   	int3
  418f2a:	cc                   	int3
  418f2b:	cc                   	int3
  418f2c:	cc                   	int3
  418f2d:	cc                   	int3
  418f2e:	cc                   	int3
  418f2f:	cc                   	int3
  418f30:	cc                   	int3
  418f31:	cc                   	int3
  418f32:	cc                   	int3
  418f33:	cc                   	int3
  418f34:	cc                   	int3
  418f35:	cc                   	int3
  418f36:	cc                   	int3
  418f37:	cc                   	int3
  418f38:	cc                   	int3
  418f39:	cc                   	int3
  418f3a:	cc                   	int3
  418f3b:	cc                   	int3
  418f3c:	cc                   	int3
  418f3d:	cc                   	int3
  418f3e:	cc                   	int3
  418f3f:	cc                   	int3
  418f40:	cc                   	int3
  418f41:	cc                   	int3
  418f42:	cc                   	int3
  418f43:	cc                   	int3
  418f44:	cc                   	int3
  418f45:	cc                   	int3
  418f46:	cc                   	int3
  418f47:	cc                   	int3
  418f48:	cc                   	int3
  418f49:	cc                   	int3
  418f4a:	cc                   	int3
  418f4b:	cc                   	int3
  418f4c:	cc                   	int3
  418f4d:	cc                   	int3
  418f4e:	cc                   	int3
  418f4f:	cc                   	int3
  418f50:	cc                   	int3
  418f51:	cc                   	int3
  418f52:	cc                   	int3
  418f53:	cc                   	int3
  418f54:	cc                   	int3
  418f55:	cc                   	int3
  418f56:	cc                   	int3
  418f57:	cc                   	int3
  418f58:	cc                   	int3
  418f59:	cc                   	int3
  418f5a:	cc                   	int3
  418f5b:	cc                   	int3
  418f5c:	cc                   	int3
  418f5d:	cc                   	int3
  418f5e:	cc                   	int3
  418f5f:	cc                   	int3
  418f60:	cc                   	int3
  418f61:	cc                   	int3
  418f62:	cc                   	int3
  418f63:	cc                   	int3
  418f64:	cc                   	int3
  418f65:	cc                   	int3
  418f66:	cc                   	int3
  418f67:	cc                   	int3
  418f68:	cc                   	int3
  418f69:	cc                   	int3
  418f6a:	cc                   	int3
  418f6b:	cc                   	int3
  418f6c:	cc                   	int3
  418f6d:	cc                   	int3
  418f6e:	cc                   	int3
  418f6f:	cc                   	int3
  418f70:	cc                   	int3
  418f71:	cc                   	int3
  418f72:	cc                   	int3
  418f73:	cc                   	int3
  418f74:	cc                   	int3
  418f75:	cc                   	int3
  418f76:	cc                   	int3
  418f77:	cc                   	int3
  418f78:	cc                   	int3
  418f79:	cc                   	int3
  418f7a:	cc                   	int3
  418f7b:	cc                   	int3
  418f7c:	cc                   	int3
  418f7d:	cc                   	int3
  418f7e:	cc                   	int3
  418f7f:	cc                   	int3
  418f80:	cc                   	int3
  418f81:	cc                   	int3
  418f82:	cc                   	int3
  418f83:	cc                   	int3
  418f84:	cc                   	int3
  418f85:	cc                   	int3
  418f86:	cc                   	int3
  418f87:	cc                   	int3
  418f88:	cc                   	int3
  418f89:	cc                   	int3
  418f8a:	cc                   	int3
  418f8b:	cc                   	int3
  418f8c:	cc                   	int3
  418f8d:	cc                   	int3
  418f8e:	cc                   	int3
  418f8f:	cc                   	int3
  418f90:	cc                   	int3
  418f91:	cc                   	int3
  418f92:	cc                   	int3
  418f93:	cc                   	int3
  418f94:	cc                   	int3
  418f95:	cc                   	int3
  418f96:	cc                   	int3
  418f97:	cc                   	int3
  418f98:	cc                   	int3
  418f99:	cc                   	int3
  418f9a:	cc                   	int3
  418f9b:	cc                   	int3
  418f9c:	cc                   	int3
  418f9d:	cc                   	int3
  418f9e:	cc                   	int3
  418f9f:	cc                   	int3
  418fa0:	cc                   	int3
  418fa1:	cc                   	int3
  418fa2:	cc                   	int3
  418fa3:	cc                   	int3
  418fa4:	cc                   	int3
  418fa5:	cc                   	int3
  418fa6:	cc                   	int3
  418fa7:	cc                   	int3
  418fa8:	cc                   	int3
  418fa9:	cc                   	int3
  418faa:	cc                   	int3
  418fab:	cc                   	int3
  418fac:	cc                   	int3
  418fad:	cc                   	int3
  418fae:	cc                   	int3
  418faf:	cc                   	int3
  418fb0:	cc                   	int3
  418fb1:	cc                   	int3
  418fb2:	cc                   	int3
  418fb3:	cc                   	int3
  418fb4:	cc                   	int3
  418fb5:	cc                   	int3
  418fb6:	cc                   	int3
  418fb7:	cc                   	int3
  418fb8:	cc                   	int3
  418fb9:	cc                   	int3
  418fba:	cc                   	int3
  418fbb:	cc                   	int3
  418fbc:	cc                   	int3
  418fbd:	cc                   	int3
  418fbe:	cc                   	int3
  418fbf:	cc                   	int3
  418fc0:	cc                   	int3
  418fc1:	cc                   	int3
  418fc2:	cc                   	int3
  418fc3:	cc                   	int3
  418fc4:	cc                   	int3
  418fc5:	cc                   	int3
  418fc6:	cc                   	int3
  418fc7:	cc                   	int3
  418fc8:	cc                   	int3
  418fc9:	cc                   	int3
  418fca:	cc                   	int3
  418fcb:	cc                   	int3
  418fcc:	cc                   	int3
  418fcd:	cc                   	int3
  418fce:	cc                   	int3
  418fcf:	cc                   	int3
  418fd0:	cc                   	int3
  418fd1:	cc                   	int3
  418fd2:	cc                   	int3
  418fd3:	cc                   	int3
  418fd4:	cc                   	int3
  418fd5:	cc                   	int3
  418fd6:	cc                   	int3
  418fd7:	cc                   	int3
  418fd8:	cc                   	int3
  418fd9:	cc                   	int3
  418fda:	cc                   	int3
  418fdb:	cc                   	int3
  418fdc:	cc                   	int3
  418fdd:	cc                   	int3
  418fde:	cc                   	int3
  418fdf:	cc                   	int3
  418fe0:	cc                   	int3
  418fe1:	cc                   	int3
  418fe2:	cc                   	int3
  418fe3:	cc                   	int3
  418fe4:	cc                   	int3
  418fe5:	cc                   	int3
  418fe6:	cc                   	int3
  418fe7:	cc                   	int3
  418fe8:	cc                   	int3
  418fe9:	cc                   	int3
  418fea:	cc                   	int3
  418feb:	cc                   	int3
  418fec:	cc                   	int3
  418fed:	cc                   	int3
  418fee:	cc                   	int3
  418fef:	cc                   	int3
  418ff0:	cc                   	int3
  418ff1:	cc                   	int3
  418ff2:	cc                   	int3
  418ff3:	cc                   	int3
  418ff4:	cc                   	int3
  418ff5:	cc                   	int3
  418ff6:	cc                   	int3
  418ff7:	cc                   	int3
  418ff8:	cc                   	int3
  418ff9:	cc                   	int3
  418ffa:	cc                   	int3
  418ffb:	cc                   	int3
  418ffc:	cc                   	int3
  418ffd:	cc                   	int3
  418ffe:	cc                   	int3
  418fff:	cc                   	int3
  419000:	cc                   	int3
  419001:	cc                   	int3
  419002:	cc                   	int3
  419003:	cc                   	int3
  419004:	cc                   	int3
  419005:	cc                   	int3
  419006:	cc                   	int3
  419007:	cc                   	int3
  419008:	cc                   	int3
  419009:	cc                   	int3
  41900a:	cc                   	int3
  41900b:	cc                   	int3
  41900c:	cc                   	int3
  41900d:	cc                   	int3
  41900e:	cc                   	int3
  41900f:	cc                   	int3
  419010:	cc                   	int3
  419011:	cc                   	int3
  419012:	cc                   	int3
  419013:	cc                   	int3
  419014:	cc                   	int3
  419015:	cc                   	int3
  419016:	cc                   	int3
  419017:	cc                   	int3
  419018:	cc                   	int3
  419019:	cc                   	int3
  41901a:	cc                   	int3
  41901b:	cc                   	int3
  41901c:	cc                   	int3
  41901d:	cc                   	int3
  41901e:	cc                   	int3
  41901f:	cc                   	int3
  419020:	cc                   	int3
  419021:	cc                   	int3
  419022:	cc                   	int3
  419023:	cc                   	int3
  419024:	cc                   	int3
  419025:	cc                   	int3
  419026:	cc                   	int3
  419027:	cc                   	int3
  419028:	cc                   	int3
  419029:	cc                   	int3
  41902a:	cc                   	int3
  41902b:	cc                   	int3
  41902c:	cc                   	int3
  41902d:	cc                   	int3
  41902e:	cc                   	int3
  41902f:	cc                   	int3
  419030:	cc                   	int3
  419031:	cc                   	int3
  419032:	cc                   	int3
  419033:	cc                   	int3
  419034:	cc                   	int3
  419035:	cc                   	int3
  419036:	cc                   	int3
  419037:	cc                   	int3
  419038:	cc                   	int3
  419039:	cc                   	int3
  41903a:	cc                   	int3
  41903b:	cc                   	int3
  41903c:	cc                   	int3
  41903d:	cc                   	int3
  41903e:	cc                   	int3
  41903f:	cc                   	int3
  419040:	cc                   	int3
  419041:	cc                   	int3
  419042:	cc                   	int3
  419043:	cc                   	int3
  419044:	cc                   	int3
  419045:	cc                   	int3
  419046:	cc                   	int3
  419047:	cc                   	int3
  419048:	cc                   	int3
  419049:	cc                   	int3
  41904a:	cc                   	int3
  41904b:	cc                   	int3
  41904c:	cc                   	int3
  41904d:	cc                   	int3
  41904e:	cc                   	int3
  41904f:	cc                   	int3
  419050:	cc                   	int3
  419051:	cc                   	int3
  419052:	cc                   	int3
  419053:	cc                   	int3
  419054:	cc                   	int3
  419055:	cc                   	int3
  419056:	cc                   	int3
  419057:	cc                   	int3
  419058:	cc                   	int3
  419059:	cc                   	int3
  41905a:	cc                   	int3
  41905b:	cc                   	int3
  41905c:	cc                   	int3
  41905d:	cc                   	int3
  41905e:	cc                   	int3
  41905f:	cc                   	int3
  419060:	cc                   	int3
  419061:	cc                   	int3
  419062:	cc                   	int3
  419063:	cc                   	int3
  419064:	cc                   	int3
  419065:	cc                   	int3
  419066:	cc                   	int3
  419067:	cc                   	int3
  419068:	cc                   	int3
  419069:	cc                   	int3
  41906a:	cc                   	int3
  41906b:	cc                   	int3
  41906c:	cc                   	int3
  41906d:	cc                   	int3
  41906e:	cc                   	int3
  41906f:	cc                   	int3
  419070:	cc                   	int3
  419071:	cc                   	int3
  419072:	cc                   	int3
  419073:	cc                   	int3
  419074:	cc                   	int3
  419075:	cc                   	int3
  419076:	cc                   	int3
  419077:	cc                   	int3
  419078:	cc                   	int3
  419079:	cc                   	int3
  41907a:	cc                   	int3
  41907b:	cc                   	int3
  41907c:	cc                   	int3
  41907d:	cc                   	int3
  41907e:	cc                   	int3
  41907f:	cc                   	int3
  419080:	cc                   	int3
  419081:	cc                   	int3
  419082:	cc                   	int3
  419083:	cc                   	int3
  419084:	cc                   	int3
  419085:	cc                   	int3
  419086:	cc                   	int3
  419087:	cc                   	int3
  419088:	cc                   	int3
  419089:	cc                   	int3
  41908a:	cc                   	int3
  41908b:	cc                   	int3
  41908c:	cc                   	int3
  41908d:	cc                   	int3
  41908e:	cc                   	int3
  41908f:	cc                   	int3
  419090:	cc                   	int3
  419091:	cc                   	int3
  419092:	cc                   	int3
  419093:	cc                   	int3
  419094:	cc                   	int3
  419095:	cc                   	int3
  419096:	cc                   	int3
  419097:	cc                   	int3
  419098:	cc                   	int3
  419099:	cc                   	int3
  41909a:	cc                   	int3
  41909b:	cc                   	int3
  41909c:	cc                   	int3
  41909d:	cc                   	int3
  41909e:	cc                   	int3
  41909f:	cc                   	int3
  4190a0:	cc                   	int3
  4190a1:	cc                   	int3
  4190a2:	cc                   	int3
  4190a3:	cc                   	int3
  4190a4:	cc                   	int3
  4190a5:	cc                   	int3
  4190a6:	cc                   	int3
  4190a7:	cc                   	int3
  4190a8:	cc                   	int3
  4190a9:	cc                   	int3
  4190aa:	cc                   	int3
  4190ab:	cc                   	int3
  4190ac:	cc                   	int3
  4190ad:	cc                   	int3
  4190ae:	cc                   	int3
  4190af:	cc                   	int3
  4190b0:	cc                   	int3
  4190b1:	cc                   	int3
  4190b2:	cc                   	int3
  4190b3:	cc                   	int3
  4190b4:	cc                   	int3
  4190b5:	cc                   	int3
  4190b6:	cc                   	int3
  4190b7:	cc                   	int3
  4190b8:	cc                   	int3
  4190b9:	cc                   	int3
  4190ba:	cc                   	int3
  4190bb:	cc                   	int3
  4190bc:	cc                   	int3
  4190bd:	cc                   	int3
  4190be:	cc                   	int3
  4190bf:	cc                   	int3
  4190c0:	cc                   	int3
  4190c1:	cc                   	int3
  4190c2:	cc                   	int3
  4190c3:	cc                   	int3
  4190c4:	cc                   	int3
  4190c5:	cc                   	int3
  4190c6:	cc                   	int3
  4190c7:	cc                   	int3
  4190c8:	cc                   	int3
  4190c9:	cc                   	int3
  4190ca:	cc                   	int3
  4190cb:	cc                   	int3
  4190cc:	cc                   	int3
  4190cd:	cc                   	int3
  4190ce:	cc                   	int3
  4190cf:	cc                   	int3
  4190d0:	cc                   	int3
  4190d1:	cc                   	int3
  4190d2:	cc                   	int3
  4190d3:	cc                   	int3
  4190d4:	cc                   	int3
  4190d5:	cc                   	int3
  4190d6:	cc                   	int3
  4190d7:	cc                   	int3
  4190d8:	cc                   	int3
  4190d9:	cc                   	int3
  4190da:	cc                   	int3
  4190db:	cc                   	int3
  4190dc:	cc                   	int3
  4190dd:	cc                   	int3
  4190de:	cc                   	int3
  4190df:	cc                   	int3
  4190e0:	cc                   	int3
  4190e1:	cc                   	int3
  4190e2:	cc                   	int3
  4190e3:	cc                   	int3
  4190e4:	cc                   	int3
  4190e5:	cc                   	int3
  4190e6:	cc                   	int3
  4190e7:	cc                   	int3
  4190e8:	cc                   	int3
  4190e9:	cc                   	int3
  4190ea:	cc                   	int3
  4190eb:	cc                   	int3
  4190ec:	cc                   	int3
  4190ed:	cc                   	int3
  4190ee:	cc                   	int3
  4190ef:	cc                   	int3
  4190f0:	cc                   	int3
  4190f1:	cc                   	int3
  4190f2:	cc                   	int3
  4190f3:	cc                   	int3
  4190f4:	cc                   	int3
  4190f5:	cc                   	int3
  4190f6:	cc                   	int3
  4190f7:	cc                   	int3
  4190f8:	cc                   	int3
  4190f9:	cc                   	int3
  4190fa:	cc                   	int3
  4190fb:	cc                   	int3
  4190fc:	cc                   	int3
  4190fd:	cc                   	int3
  4190fe:	cc                   	int3
  4190ff:	cc                   	int3
  419100:	cc                   	int3
  419101:	cc                   	int3
  419102:	cc                   	int3
  419103:	cc                   	int3
  419104:	cc                   	int3
  419105:	cc                   	int3
  419106:	cc                   	int3
  419107:	cc                   	int3
  419108:	cc                   	int3
  419109:	cc                   	int3
  41910a:	cc                   	int3
  41910b:	cc                   	int3
  41910c:	cc                   	int3
  41910d:	cc                   	int3
  41910e:	cc                   	int3
  41910f:	cc                   	int3
  419110:	cc                   	int3
  419111:	cc                   	int3
  419112:	cc                   	int3
  419113:	cc                   	int3
  419114:	cc                   	int3
  419115:	cc                   	int3
  419116:	cc                   	int3
  419117:	cc                   	int3
  419118:	cc                   	int3
  419119:	cc                   	int3
  41911a:	cc                   	int3
  41911b:	cc                   	int3
  41911c:	cc                   	int3
  41911d:	cc                   	int3
  41911e:	cc                   	int3
  41911f:	cc                   	int3
  419120:	cc                   	int3
  419121:	cc                   	int3
  419122:	cc                   	int3
  419123:	cc                   	int3
  419124:	cc                   	int3
  419125:	cc                   	int3
  419126:	cc                   	int3
  419127:	cc                   	int3
  419128:	cc                   	int3
  419129:	cc                   	int3
  41912a:	cc                   	int3
  41912b:	cc                   	int3
  41912c:	cc                   	int3
  41912d:	cc                   	int3
  41912e:	cc                   	int3
  41912f:	cc                   	int3
  419130:	cc                   	int3
  419131:	cc                   	int3
  419132:	cc                   	int3
  419133:	cc                   	int3
  419134:	cc                   	int3
  419135:	cc                   	int3
  419136:	cc                   	int3
  419137:	cc                   	int3
  419138:	cc                   	int3
  419139:	cc                   	int3
  41913a:	cc                   	int3
  41913b:	cc                   	int3
  41913c:	cc                   	int3
  41913d:	cc                   	int3
  41913e:	cc                   	int3
  41913f:	cc                   	int3
  419140:	cc                   	int3
  419141:	cc                   	int3
  419142:	cc                   	int3
  419143:	cc                   	int3
  419144:	cc                   	int3
  419145:	cc                   	int3
  419146:	cc                   	int3
  419147:	cc                   	int3
  419148:	cc                   	int3
  419149:	cc                   	int3
  41914a:	cc                   	int3
  41914b:	cc                   	int3
  41914c:	cc                   	int3
  41914d:	cc                   	int3
  41914e:	cc                   	int3
  41914f:	cc                   	int3
  419150:	cc                   	int3
  419151:	cc                   	int3
  419152:	cc                   	int3
  419153:	cc                   	int3
  419154:	cc                   	int3
  419155:	cc                   	int3
  419156:	cc                   	int3
  419157:	cc                   	int3
  419158:	cc                   	int3
  419159:	cc                   	int3
  41915a:	cc                   	int3
  41915b:	cc                   	int3
  41915c:	cc                   	int3
  41915d:	cc                   	int3
  41915e:	cc                   	int3
  41915f:	cc                   	int3
  419160:	cc                   	int3
  419161:	cc                   	int3
  419162:	cc                   	int3
  419163:	cc                   	int3
  419164:	cc                   	int3
  419165:	cc                   	int3
  419166:	cc                   	int3
  419167:	cc                   	int3
  419168:	cc                   	int3
  419169:	cc                   	int3
  41916a:	cc                   	int3
  41916b:	cc                   	int3
  41916c:	cc                   	int3
  41916d:	cc                   	int3
  41916e:	cc                   	int3
  41916f:	cc                   	int3
  419170:	cc                   	int3
  419171:	cc                   	int3
  419172:	cc                   	int3
  419173:	cc                   	int3
  419174:	cc                   	int3
  419175:	cc                   	int3
  419176:	cc                   	int3
  419177:	cc                   	int3
  419178:	cc                   	int3
  419179:	cc                   	int3
  41917a:	cc                   	int3
  41917b:	cc                   	int3
  41917c:	cc                   	int3
  41917d:	cc                   	int3
  41917e:	cc                   	int3
  41917f:	cc                   	int3
  419180:	cc                   	int3
  419181:	cc                   	int3
  419182:	cc                   	int3
  419183:	cc                   	int3
  419184:	cc                   	int3
  419185:	cc                   	int3
  419186:	cc                   	int3
  419187:	cc                   	int3
  419188:	cc                   	int3
  419189:	cc                   	int3
  41918a:	cc                   	int3
  41918b:	cc                   	int3
  41918c:	cc                   	int3
  41918d:	cc                   	int3
  41918e:	cc                   	int3
  41918f:	cc                   	int3
  419190:	cc                   	int3
  419191:	cc                   	int3
  419192:	cc                   	int3
  419193:	cc                   	int3
  419194:	cc                   	int3
  419195:	cc                   	int3
  419196:	cc                   	int3
  419197:	cc                   	int3
  419198:	cc                   	int3
  419199:	cc                   	int3
  41919a:	cc                   	int3
  41919b:	cc                   	int3
  41919c:	cc                   	int3
  41919d:	cc                   	int3
  41919e:	cc                   	int3
  41919f:	cc                   	int3
  4191a0:	cc                   	int3
  4191a1:	cc                   	int3
  4191a2:	cc                   	int3
  4191a3:	cc                   	int3
  4191a4:	cc                   	int3
  4191a5:	cc                   	int3
  4191a6:	cc                   	int3
  4191a7:	cc                   	int3
  4191a8:	cc                   	int3
  4191a9:	cc                   	int3
  4191aa:	cc                   	int3
  4191ab:	cc                   	int3
  4191ac:	cc                   	int3
  4191ad:	cc                   	int3
  4191ae:	cc                   	int3
  4191af:	cc                   	int3
  4191b0:	cc                   	int3
  4191b1:	cc                   	int3
  4191b2:	cc                   	int3
  4191b3:	cc                   	int3
  4191b4:	cc                   	int3
  4191b5:	cc                   	int3
  4191b6:	cc                   	int3
  4191b7:	cc                   	int3
  4191b8:	cc                   	int3
  4191b9:	cc                   	int3
  4191ba:	cc                   	int3
  4191bb:	cc                   	int3
  4191bc:	cc                   	int3
  4191bd:	cc                   	int3
  4191be:	cc                   	int3
  4191bf:	cc                   	int3
  4191c0:	cc                   	int3
  4191c1:	cc                   	int3
  4191c2:	cc                   	int3
  4191c3:	cc                   	int3
  4191c4:	cc                   	int3
  4191c5:	cc                   	int3
  4191c6:	cc                   	int3
  4191c7:	cc                   	int3
  4191c8:	cc                   	int3
  4191c9:	cc                   	int3
  4191ca:	cc                   	int3
  4191cb:	cc                   	int3
  4191cc:	cc                   	int3
  4191cd:	cc                   	int3
  4191ce:	cc                   	int3
  4191cf:	cc                   	int3
  4191d0:	cc                   	int3
  4191d1:	cc                   	int3
  4191d2:	cc                   	int3
  4191d3:	cc                   	int3
  4191d4:	cc                   	int3
  4191d5:	cc                   	int3
  4191d6:	cc                   	int3
  4191d7:	cc                   	int3
  4191d8:	cc                   	int3
  4191d9:	cc                   	int3
  4191da:	cc                   	int3
  4191db:	cc                   	int3
  4191dc:	cc                   	int3
  4191dd:	cc                   	int3
  4191de:	cc                   	int3
  4191df:	cc                   	int3
  4191e0:	cc                   	int3
  4191e1:	cc                   	int3
  4191e2:	cc                   	int3
  4191e3:	cc                   	int3
  4191e4:	cc                   	int3
  4191e5:	cc                   	int3
  4191e6:	cc                   	int3
  4191e7:	cc                   	int3
  4191e8:	cc                   	int3
  4191e9:	cc                   	int3
  4191ea:	cc                   	int3
  4191eb:	cc                   	int3
  4191ec:	cc                   	int3
  4191ed:	cc                   	int3
  4191ee:	cc                   	int3
  4191ef:	cc                   	int3
  4191f0:	cc                   	int3
  4191f1:	cc                   	int3
  4191f2:	cc                   	int3
  4191f3:	cc                   	int3
  4191f4:	cc                   	int3
  4191f5:	cc                   	int3
  4191f6:	cc                   	int3
  4191f7:	cc                   	int3
  4191f8:	cc                   	int3
  4191f9:	cc                   	int3
  4191fa:	cc                   	int3
  4191fb:	cc                   	int3
  4191fc:	cc                   	int3
  4191fd:	cc                   	int3
  4191fe:	cc                   	int3
  4191ff:	cc                   	int3
  419200:	cc                   	int3
  419201:	cc                   	int3
  419202:	cc                   	int3
  419203:	cc                   	int3
  419204:	cc                   	int3
  419205:	cc                   	int3
  419206:	cc                   	int3
  419207:	cc                   	int3
  419208:	cc                   	int3
  419209:	cc                   	int3
  41920a:	cc                   	int3
  41920b:	cc                   	int3
  41920c:	cc                   	int3
  41920d:	cc                   	int3
  41920e:	cc                   	int3
  41920f:	cc                   	int3
  419210:	cc                   	int3
  419211:	cc                   	int3
  419212:	cc                   	int3
  419213:	cc                   	int3
  419214:	cc                   	int3
  419215:	cc                   	int3
  419216:	cc                   	int3
  419217:	cc                   	int3
  419218:	cc                   	int3
  419219:	cc                   	int3
  41921a:	cc                   	int3
  41921b:	cc                   	int3
  41921c:	cc                   	int3
  41921d:	cc                   	int3
  41921e:	cc                   	int3
  41921f:	cc                   	int3
  419220:	cc                   	int3
  419221:	cc                   	int3
  419222:	cc                   	int3
  419223:	cc                   	int3
  419224:	cc                   	int3
  419225:	cc                   	int3
  419226:	cc                   	int3
  419227:	cc                   	int3
  419228:	cc                   	int3
  419229:	cc                   	int3
  41922a:	cc                   	int3
  41922b:	cc                   	int3
  41922c:	cc                   	int3
  41922d:	cc                   	int3
  41922e:	cc                   	int3
  41922f:	cc                   	int3
  419230:	cc                   	int3
  419231:	cc                   	int3
  419232:	cc                   	int3
  419233:	cc                   	int3
  419234:	cc                   	int3
  419235:	cc                   	int3
  419236:	cc                   	int3
  419237:	cc                   	int3
  419238:	cc                   	int3
  419239:	cc                   	int3
  41923a:	cc                   	int3
  41923b:	cc                   	int3
  41923c:	cc                   	int3
  41923d:	cc                   	int3
  41923e:	cc                   	int3
  41923f:	cc                   	int3
  419240:	cc                   	int3
  419241:	cc                   	int3
  419242:	cc                   	int3
  419243:	cc                   	int3
  419244:	cc                   	int3
  419245:	cc                   	int3
  419246:	cc                   	int3
  419247:	cc                   	int3
  419248:	cc                   	int3
  419249:	cc                   	int3
  41924a:	cc                   	int3
  41924b:	cc                   	int3
  41924c:	cc                   	int3
  41924d:	cc                   	int3
  41924e:	cc                   	int3
  41924f:	cc                   	int3
  419250:	cc                   	int3
  419251:	cc                   	int3
  419252:	cc                   	int3
  419253:	cc                   	int3
  419254:	cc                   	int3
  419255:	cc                   	int3
  419256:	cc                   	int3
  419257:	cc                   	int3
  419258:	cc                   	int3
  419259:	cc                   	int3
  41925a:	cc                   	int3
  41925b:	cc                   	int3
  41925c:	cc                   	int3
  41925d:	cc                   	int3
  41925e:	cc                   	int3
  41925f:	cc                   	int3
  419260:	cc                   	int3
  419261:	cc                   	int3
  419262:	cc                   	int3
  419263:	cc                   	int3
  419264:	cc                   	int3
  419265:	cc                   	int3
  419266:	cc                   	int3
  419267:	cc                   	int3
  419268:	cc                   	int3
  419269:	cc                   	int3
  41926a:	cc                   	int3
  41926b:	cc                   	int3
  41926c:	cc                   	int3
  41926d:	cc                   	int3
  41926e:	cc                   	int3
  41926f:	cc                   	int3
  419270:	cc                   	int3
  419271:	cc                   	int3
  419272:	cc                   	int3
  419273:	cc                   	int3
  419274:	cc                   	int3
  419275:	cc                   	int3
  419276:	cc                   	int3
  419277:	cc                   	int3
  419278:	cc                   	int3
  419279:	cc                   	int3
  41927a:	cc                   	int3
  41927b:	cc                   	int3
  41927c:	cc                   	int3
  41927d:	cc                   	int3
  41927e:	cc                   	int3
  41927f:	cc                   	int3
  419280:	cc                   	int3
  419281:	cc                   	int3
  419282:	cc                   	int3
  419283:	cc                   	int3
  419284:	cc                   	int3
  419285:	cc                   	int3
  419286:	cc                   	int3
  419287:	cc                   	int3
  419288:	cc                   	int3
  419289:	cc                   	int3
  41928a:	cc                   	int3
  41928b:	cc                   	int3
  41928c:	cc                   	int3
  41928d:	cc                   	int3
  41928e:	cc                   	int3
  41928f:	cc                   	int3
  419290:	cc                   	int3
  419291:	cc                   	int3
  419292:	cc                   	int3
  419293:	cc                   	int3
  419294:	cc                   	int3
  419295:	cc                   	int3
  419296:	cc                   	int3
  419297:	cc                   	int3
  419298:	cc                   	int3
  419299:	cc                   	int3
  41929a:	cc                   	int3
  41929b:	cc                   	int3
  41929c:	cc                   	int3
  41929d:	cc                   	int3
  41929e:	cc                   	int3
  41929f:	cc                   	int3
  4192a0:	cc                   	int3
  4192a1:	cc                   	int3
  4192a2:	cc                   	int3
  4192a3:	cc                   	int3
  4192a4:	cc                   	int3
  4192a5:	cc                   	int3
  4192a6:	cc                   	int3
  4192a7:	cc                   	int3
  4192a8:	cc                   	int3
  4192a9:	cc                   	int3
  4192aa:	cc                   	int3
  4192ab:	cc                   	int3
  4192ac:	cc                   	int3
  4192ad:	cc                   	int3
  4192ae:	cc                   	int3
  4192af:	cc                   	int3
  4192b0:	cc                   	int3
  4192b1:	cc                   	int3
  4192b2:	cc                   	int3
  4192b3:	cc                   	int3
  4192b4:	cc                   	int3
  4192b5:	cc                   	int3
  4192b6:	cc                   	int3
  4192b7:	cc                   	int3
  4192b8:	cc                   	int3
  4192b9:	cc                   	int3
  4192ba:	cc                   	int3
  4192bb:	cc                   	int3
  4192bc:	cc                   	int3
  4192bd:	cc                   	int3
  4192be:	cc                   	int3
  4192bf:	cc                   	int3
  4192c0:	cc                   	int3
  4192c1:	cc                   	int3
  4192c2:	cc                   	int3
  4192c3:	cc                   	int3
  4192c4:	cc                   	int3
  4192c5:	cc                   	int3
  4192c6:	cc                   	int3
  4192c7:	cc                   	int3
  4192c8:	cc                   	int3
  4192c9:	cc                   	int3
  4192ca:	cc                   	int3
  4192cb:	cc                   	int3
  4192cc:	cc                   	int3
  4192cd:	cc                   	int3
  4192ce:	cc                   	int3
  4192cf:	cc                   	int3
  4192d0:	cc                   	int3
  4192d1:	cc                   	int3
  4192d2:	cc                   	int3
  4192d3:	cc                   	int3
  4192d4:	cc                   	int3
  4192d5:	cc                   	int3
  4192d6:	cc                   	int3
  4192d7:	cc                   	int3
  4192d8:	cc                   	int3
  4192d9:	cc                   	int3
  4192da:	cc                   	int3
  4192db:	cc                   	int3
  4192dc:	cc                   	int3
  4192dd:	cc                   	int3
  4192de:	cc                   	int3
  4192df:	cc                   	int3
  4192e0:	cc                   	int3
  4192e1:	cc                   	int3
  4192e2:	cc                   	int3
  4192e3:	cc                   	int3
  4192e4:	cc                   	int3
  4192e5:	cc                   	int3
  4192e6:	cc                   	int3
  4192e7:	cc                   	int3
  4192e8:	cc                   	int3
  4192e9:	cc                   	int3
  4192ea:	cc                   	int3
  4192eb:	cc                   	int3
  4192ec:	cc                   	int3
  4192ed:	cc                   	int3
  4192ee:	cc                   	int3
  4192ef:	cc                   	int3
  4192f0:	cc                   	int3
  4192f1:	cc                   	int3
  4192f2:	cc                   	int3
  4192f3:	cc                   	int3
  4192f4:	cc                   	int3
  4192f5:	cc                   	int3
  4192f6:	cc                   	int3
  4192f7:	cc                   	int3
  4192f8:	cc                   	int3
  4192f9:	cc                   	int3
  4192fa:	cc                   	int3
  4192fb:	cc                   	int3
  4192fc:	cc                   	int3
  4192fd:	cc                   	int3
  4192fe:	cc                   	int3
  4192ff:	cc                   	int3
  419300:	cc                   	int3
  419301:	cc                   	int3
  419302:	cc                   	int3
  419303:	cc                   	int3
  419304:	cc                   	int3
  419305:	cc                   	int3
  419306:	cc                   	int3
  419307:	cc                   	int3
  419308:	cc                   	int3
  419309:	cc                   	int3
  41930a:	cc                   	int3
  41930b:	cc                   	int3
  41930c:	cc                   	int3
  41930d:	cc                   	int3
  41930e:	cc                   	int3
  41930f:	cc                   	int3
  419310:	cc                   	int3
  419311:	cc                   	int3
  419312:	cc                   	int3
  419313:	cc                   	int3
  419314:	cc                   	int3
  419315:	cc                   	int3
  419316:	cc                   	int3
  419317:	cc                   	int3
  419318:	cc                   	int3
  419319:	cc                   	int3
  41931a:	cc                   	int3
  41931b:	cc                   	int3
  41931c:	cc                   	int3
  41931d:	cc                   	int3
  41931e:	cc                   	int3
  41931f:	cc                   	int3
  419320:	cc                   	int3
  419321:	cc                   	int3
  419322:	cc                   	int3
  419323:	cc                   	int3
  419324:	cc                   	int3
  419325:	cc                   	int3
  419326:	cc                   	int3
  419327:	cc                   	int3
  419328:	cc                   	int3
  419329:	cc                   	int3
  41932a:	cc                   	int3
  41932b:	cc                   	int3
  41932c:	cc                   	int3
  41932d:	cc                   	int3
  41932e:	cc                   	int3
  41932f:	cc                   	int3
  419330:	cc                   	int3
  419331:	cc                   	int3
  419332:	cc                   	int3
  419333:	cc                   	int3
  419334:	cc                   	int3
  419335:	cc                   	int3
  419336:	cc                   	int3
  419337:	cc                   	int3
  419338:	cc                   	int3
  419339:	cc                   	int3
  41933a:	cc                   	int3
  41933b:	cc                   	int3
  41933c:	cc                   	int3
  41933d:	cc                   	int3
  41933e:	cc                   	int3
  41933f:	cc                   	int3
  419340:	cc                   	int3
  419341:	cc                   	int3
  419342:	cc                   	int3
  419343:	cc                   	int3
  419344:	cc                   	int3
  419345:	cc                   	int3
  419346:	cc                   	int3
  419347:	cc                   	int3
  419348:	cc                   	int3
  419349:	cc                   	int3
  41934a:	cc                   	int3
  41934b:	cc                   	int3
  41934c:	cc                   	int3
  41934d:	cc                   	int3
  41934e:	cc                   	int3
  41934f:	cc                   	int3
  419350:	cc                   	int3
  419351:	cc                   	int3
  419352:	cc                   	int3
  419353:	cc                   	int3
  419354:	cc                   	int3
  419355:	cc                   	int3
  419356:	cc                   	int3
  419357:	cc                   	int3
  419358:	cc                   	int3
  419359:	cc                   	int3
  41935a:	cc                   	int3
  41935b:	cc                   	int3
  41935c:	cc                   	int3
  41935d:	cc                   	int3
  41935e:	cc                   	int3
  41935f:	cc                   	int3
  419360:	cc                   	int3
  419361:	cc                   	int3
  419362:	cc                   	int3
  419363:	cc                   	int3
  419364:	cc                   	int3
  419365:	cc                   	int3
  419366:	cc                   	int3
  419367:	cc                   	int3
  419368:	cc                   	int3
  419369:	cc                   	int3
  41936a:	cc                   	int3
  41936b:	cc                   	int3
  41936c:	cc                   	int3
  41936d:	cc                   	int3
  41936e:	cc                   	int3
  41936f:	cc                   	int3
  419370:	cc                   	int3
  419371:	cc                   	int3
  419372:	cc                   	int3
  419373:	cc                   	int3
  419374:	cc                   	int3
  419375:	cc                   	int3
  419376:	cc                   	int3
  419377:	cc                   	int3
  419378:	cc                   	int3
  419379:	cc                   	int3
  41937a:	cc                   	int3
  41937b:	cc                   	int3
  41937c:	cc                   	int3
  41937d:	cc                   	int3
  41937e:	cc                   	int3
  41937f:	cc                   	int3
  419380:	cc                   	int3
  419381:	cc                   	int3
  419382:	cc                   	int3
  419383:	cc                   	int3
  419384:	cc                   	int3
  419385:	cc                   	int3
  419386:	cc                   	int3
  419387:	cc                   	int3
  419388:	cc                   	int3
  419389:	cc                   	int3
  41938a:	cc                   	int3
  41938b:	cc                   	int3
  41938c:	cc                   	int3
  41938d:	cc                   	int3
  41938e:	cc                   	int3
  41938f:	cc                   	int3
  419390:	cc                   	int3
  419391:	cc                   	int3
  419392:	cc                   	int3
  419393:	cc                   	int3
  419394:	cc                   	int3
  419395:	cc                   	int3
  419396:	cc                   	int3
  419397:	cc                   	int3
  419398:	cc                   	int3
  419399:	cc                   	int3
  41939a:	cc                   	int3
  41939b:	cc                   	int3
  41939c:	cc                   	int3
  41939d:	cc                   	int3
  41939e:	cc                   	int3
  41939f:	cc                   	int3
  4193a0:	cc                   	int3
  4193a1:	cc                   	int3
  4193a2:	cc                   	int3
  4193a3:	cc                   	int3
  4193a4:	cc                   	int3
  4193a5:	cc                   	int3
  4193a6:	cc                   	int3
  4193a7:	cc                   	int3
  4193a8:	cc                   	int3
  4193a9:	cc                   	int3
  4193aa:	cc                   	int3
  4193ab:	cc                   	int3
  4193ac:	cc                   	int3
  4193ad:	cc                   	int3
  4193ae:	cc                   	int3
  4193af:	cc                   	int3
  4193b0:	cc                   	int3
  4193b1:	cc                   	int3
  4193b2:	cc                   	int3
  4193b3:	cc                   	int3
  4193b4:	cc                   	int3
  4193b5:	cc                   	int3
  4193b6:	cc                   	int3
  4193b7:	cc                   	int3
  4193b8:	cc                   	int3
  4193b9:	cc                   	int3
  4193ba:	cc                   	int3
  4193bb:	cc                   	int3
  4193bc:	cc                   	int3
  4193bd:	cc                   	int3
  4193be:	cc                   	int3
  4193bf:	cc                   	int3
  4193c0:	cc                   	int3
  4193c1:	cc                   	int3
  4193c2:	cc                   	int3
  4193c3:	cc                   	int3
  4193c4:	cc                   	int3
  4193c5:	cc                   	int3
  4193c6:	cc                   	int3
  4193c7:	cc                   	int3
  4193c8:	cc                   	int3
  4193c9:	cc                   	int3
  4193ca:	cc                   	int3
  4193cb:	cc                   	int3
  4193cc:	cc                   	int3
  4193cd:	cc                   	int3
  4193ce:	cc                   	int3
  4193cf:	cc                   	int3
  4193d0:	cc                   	int3
  4193d1:	cc                   	int3
  4193d2:	cc                   	int3
  4193d3:	cc                   	int3
  4193d4:	cc                   	int3
  4193d5:	cc                   	int3
  4193d6:	cc                   	int3
  4193d7:	cc                   	int3
  4193d8:	cc                   	int3
  4193d9:	cc                   	int3
  4193da:	cc                   	int3
  4193db:	cc                   	int3
  4193dc:	cc                   	int3
  4193dd:	cc                   	int3
  4193de:	cc                   	int3
  4193df:	cc                   	int3
  4193e0:	cc                   	int3
  4193e1:	cc                   	int3
  4193e2:	cc                   	int3
  4193e3:	cc                   	int3
  4193e4:	cc                   	int3
  4193e5:	cc                   	int3
  4193e6:	cc                   	int3
  4193e7:	cc                   	int3
  4193e8:	cc                   	int3
  4193e9:	cc                   	int3
  4193ea:	cc                   	int3
  4193eb:	cc                   	int3
  4193ec:	cc                   	int3
  4193ed:	cc                   	int3
  4193ee:	cc                   	int3
  4193ef:	cc                   	int3
  4193f0:	cc                   	int3
  4193f1:	cc                   	int3
  4193f2:	cc                   	int3
  4193f3:	cc                   	int3
  4193f4:	cc                   	int3
  4193f5:	cc                   	int3
  4193f6:	cc                   	int3
  4193f7:	cc                   	int3
  4193f8:	cc                   	int3
  4193f9:	cc                   	int3
  4193fa:	cc                   	int3
  4193fb:	cc                   	int3
  4193fc:	cc                   	int3
  4193fd:	cc                   	int3
  4193fe:	cc                   	int3
  4193ff:	cc                   	int3
  419400:	cc                   	int3
  419401:	cc                   	int3
  419402:	cc                   	int3
  419403:	cc                   	int3
  419404:	cc                   	int3
  419405:	cc                   	int3
  419406:	cc                   	int3
  419407:	cc                   	int3
  419408:	cc                   	int3
  419409:	cc                   	int3
  41940a:	cc                   	int3
  41940b:	cc                   	int3
  41940c:	cc                   	int3
  41940d:	cc                   	int3
  41940e:	cc                   	int3
  41940f:	cc                   	int3
  419410:	cc                   	int3
  419411:	cc                   	int3
  419412:	cc                   	int3
  419413:	cc                   	int3
  419414:	cc                   	int3
  419415:	cc                   	int3
  419416:	cc                   	int3
  419417:	cc                   	int3
  419418:	cc                   	int3
  419419:	cc                   	int3
  41941a:	cc                   	int3
  41941b:	cc                   	int3
  41941c:	cc                   	int3
  41941d:	cc                   	int3
  41941e:	cc                   	int3
  41941f:	cc                   	int3
  419420:	cc                   	int3
  419421:	cc                   	int3
  419422:	cc                   	int3
  419423:	cc                   	int3
  419424:	cc                   	int3
  419425:	cc                   	int3
  419426:	cc                   	int3
  419427:	cc                   	int3
  419428:	cc                   	int3
  419429:	cc                   	int3
  41942a:	cc                   	int3
  41942b:	cc                   	int3
  41942c:	cc                   	int3
  41942d:	cc                   	int3
  41942e:	cc                   	int3
  41942f:	cc                   	int3
  419430:	cc                   	int3
  419431:	cc                   	int3
  419432:	cc                   	int3
  419433:	cc                   	int3
  419434:	cc                   	int3
  419435:	cc                   	int3
  419436:	cc                   	int3
  419437:	cc                   	int3
  419438:	cc                   	int3
  419439:	cc                   	int3
  41943a:	cc                   	int3
  41943b:	cc                   	int3
  41943c:	cc                   	int3
  41943d:	cc                   	int3
  41943e:	cc                   	int3
  41943f:	cc                   	int3
  419440:	cc                   	int3
  419441:	cc                   	int3
  419442:	cc                   	int3
  419443:	cc                   	int3
  419444:	cc                   	int3
  419445:	cc                   	int3
  419446:	cc                   	int3
  419447:	cc                   	int3
  419448:	cc                   	int3
  419449:	cc                   	int3
  41944a:	cc                   	int3
  41944b:	cc                   	int3
  41944c:	cc                   	int3
  41944d:	cc                   	int3
  41944e:	cc                   	int3
  41944f:	cc                   	int3
  419450:	cc                   	int3
  419451:	cc                   	int3
  419452:	cc                   	int3
  419453:	cc                   	int3
  419454:	cc                   	int3
  419455:	cc                   	int3
  419456:	cc                   	int3
  419457:	cc                   	int3
  419458:	cc                   	int3
  419459:	cc                   	int3
  41945a:	cc                   	int3
  41945b:	cc                   	int3
  41945c:	cc                   	int3
  41945d:	cc                   	int3
  41945e:	cc                   	int3
  41945f:	cc                   	int3
  419460:	cc                   	int3
  419461:	cc                   	int3
  419462:	cc                   	int3
  419463:	cc                   	int3
  419464:	cc                   	int3
  419465:	cc                   	int3
  419466:	cc                   	int3
  419467:	cc                   	int3
  419468:	cc                   	int3
  419469:	cc                   	int3
  41946a:	cc                   	int3
  41946b:	cc                   	int3
  41946c:	cc                   	int3
  41946d:	cc                   	int3
  41946e:	cc                   	int3
  41946f:	cc                   	int3
  419470:	cc                   	int3
  419471:	cc                   	int3
  419472:	cc                   	int3
  419473:	cc                   	int3
  419474:	cc                   	int3
  419475:	cc                   	int3
  419476:	cc                   	int3
  419477:	cc                   	int3
  419478:	cc                   	int3
  419479:	cc                   	int3
  41947a:	cc                   	int3
  41947b:	cc                   	int3
  41947c:	cc                   	int3
  41947d:	cc                   	int3
  41947e:	cc                   	int3
  41947f:	cc                   	int3
  419480:	cc                   	int3
  419481:	cc                   	int3
  419482:	cc                   	int3
  419483:	cc                   	int3
  419484:	cc                   	int3
  419485:	cc                   	int3
  419486:	cc                   	int3
  419487:	cc                   	int3
  419488:	cc                   	int3
  419489:	cc                   	int3
  41948a:	cc                   	int3
  41948b:	cc                   	int3
  41948c:	cc                   	int3
  41948d:	cc                   	int3
  41948e:	cc                   	int3
  41948f:	cc                   	int3
  419490:	cc                   	int3
  419491:	cc                   	int3
  419492:	cc                   	int3
  419493:	cc                   	int3
  419494:	cc                   	int3
  419495:	cc                   	int3
  419496:	cc                   	int3
  419497:	cc                   	int3
  419498:	cc                   	int3
  419499:	cc                   	int3
  41949a:	cc                   	int3
  41949b:	cc                   	int3
  41949c:	cc                   	int3
  41949d:	cc                   	int3
  41949e:	cc                   	int3
  41949f:	cc                   	int3
  4194a0:	cc                   	int3
  4194a1:	cc                   	int3
  4194a2:	cc                   	int3
  4194a3:	cc                   	int3
  4194a4:	cc                   	int3
  4194a5:	cc                   	int3
  4194a6:	cc                   	int3
  4194a7:	cc                   	int3
  4194a8:	cc                   	int3
  4194a9:	cc                   	int3
  4194aa:	cc                   	int3
  4194ab:	cc                   	int3
  4194ac:	cc                   	int3
  4194ad:	cc                   	int3
  4194ae:	cc                   	int3
  4194af:	cc                   	int3
  4194b0:	cc                   	int3
  4194b1:	cc                   	int3
  4194b2:	cc                   	int3
  4194b3:	cc                   	int3
  4194b4:	cc                   	int3
  4194b5:	cc                   	int3
  4194b6:	cc                   	int3
  4194b7:	cc                   	int3
  4194b8:	cc                   	int3
  4194b9:	cc                   	int3
  4194ba:	cc                   	int3
  4194bb:	cc                   	int3
  4194bc:	cc                   	int3
  4194bd:	cc                   	int3
  4194be:	cc                   	int3
  4194bf:	cc                   	int3
  4194c0:	cc                   	int3
  4194c1:	cc                   	int3
  4194c2:	cc                   	int3
  4194c3:	cc                   	int3
  4194c4:	cc                   	int3
  4194c5:	cc                   	int3
  4194c6:	cc                   	int3
  4194c7:	cc                   	int3
  4194c8:	cc                   	int3
  4194c9:	cc                   	int3
  4194ca:	cc                   	int3
  4194cb:	cc                   	int3
  4194cc:	cc                   	int3
  4194cd:	cc                   	int3
  4194ce:	cc                   	int3
  4194cf:	cc                   	int3
  4194d0:	cc                   	int3
  4194d1:	cc                   	int3
  4194d2:	cc                   	int3
  4194d3:	cc                   	int3
  4194d4:	cc                   	int3
  4194d5:	cc                   	int3
  4194d6:	cc                   	int3
  4194d7:	cc                   	int3
  4194d8:	cc                   	int3
  4194d9:	cc                   	int3
  4194da:	cc                   	int3
  4194db:	cc                   	int3
  4194dc:	cc                   	int3
  4194dd:	cc                   	int3
  4194de:	cc                   	int3
  4194df:	cc                   	int3
  4194e0:	cc                   	int3
  4194e1:	cc                   	int3
  4194e2:	cc                   	int3
  4194e3:	cc                   	int3
  4194e4:	cc                   	int3
  4194e5:	cc                   	int3
  4194e6:	cc                   	int3
  4194e7:	cc                   	int3
  4194e8:	cc                   	int3
  4194e9:	cc                   	int3
  4194ea:	cc                   	int3
  4194eb:	cc                   	int3
  4194ec:	cc                   	int3
  4194ed:	cc                   	int3
  4194ee:	cc                   	int3
  4194ef:	cc                   	int3
  4194f0:	cc                   	int3
  4194f1:	cc                   	int3
  4194f2:	cc                   	int3
  4194f3:	cc                   	int3
  4194f4:	cc                   	int3
  4194f5:	cc                   	int3
  4194f6:	cc                   	int3
  4194f7:	cc                   	int3
  4194f8:	cc                   	int3
  4194f9:	cc                   	int3
  4194fa:	cc                   	int3
  4194fb:	cc                   	int3
  4194fc:	cc                   	int3
  4194fd:	cc                   	int3
  4194fe:	cc                   	int3
  4194ff:	cc                   	int3
  419500:	cc                   	int3
  419501:	cc                   	int3
  419502:	cc                   	int3
  419503:	cc                   	int3
  419504:	cc                   	int3
  419505:	cc                   	int3
  419506:	cc                   	int3
  419507:	cc                   	int3
  419508:	cc                   	int3
  419509:	cc                   	int3
  41950a:	cc                   	int3
  41950b:	cc                   	int3
  41950c:	cc                   	int3
  41950d:	cc                   	int3
  41950e:	cc                   	int3
  41950f:	cc                   	int3
  419510:	cc                   	int3
  419511:	cc                   	int3
  419512:	cc                   	int3
  419513:	cc                   	int3
  419514:	cc                   	int3
  419515:	cc                   	int3
  419516:	cc                   	int3
  419517:	cc                   	int3
  419518:	cc                   	int3
  419519:	cc                   	int3
  41951a:	cc                   	int3
  41951b:	cc                   	int3
  41951c:	cc                   	int3
  41951d:	cc                   	int3
  41951e:	cc                   	int3
  41951f:	cc                   	int3
  419520:	cc                   	int3
  419521:	cc                   	int3
  419522:	cc                   	int3
  419523:	cc                   	int3
  419524:	cc                   	int3
  419525:	cc                   	int3
  419526:	cc                   	int3
  419527:	cc                   	int3
  419528:	cc                   	int3
  419529:	cc                   	int3
  41952a:	cc                   	int3
  41952b:	cc                   	int3
  41952c:	cc                   	int3
  41952d:	cc                   	int3
  41952e:	cc                   	int3
  41952f:	cc                   	int3
  419530:	cc                   	int3
  419531:	cc                   	int3
  419532:	cc                   	int3
  419533:	cc                   	int3
  419534:	cc                   	int3
  419535:	cc                   	int3
  419536:	cc                   	int3
  419537:	cc                   	int3
  419538:	cc                   	int3
  419539:	cc                   	int3
  41953a:	cc                   	int3
  41953b:	cc                   	int3
  41953c:	cc                   	int3
  41953d:	cc                   	int3
  41953e:	cc                   	int3
  41953f:	cc                   	int3
  419540:	cc                   	int3
  419541:	cc                   	int3
  419542:	cc                   	int3
  419543:	cc                   	int3
  419544:	cc                   	int3
  419545:	cc                   	int3
  419546:	cc                   	int3
  419547:	cc                   	int3
  419548:	cc                   	int3
  419549:	cc                   	int3
  41954a:	cc                   	int3
  41954b:	cc                   	int3
  41954c:	cc                   	int3
  41954d:	cc                   	int3
  41954e:	cc                   	int3
  41954f:	cc                   	int3
  419550:	cc                   	int3
  419551:	cc                   	int3
  419552:	cc                   	int3
  419553:	cc                   	int3
  419554:	cc                   	int3
  419555:	cc                   	int3
  419556:	cc                   	int3
  419557:	cc                   	int3
  419558:	cc                   	int3
  419559:	cc                   	int3
  41955a:	cc                   	int3
  41955b:	cc                   	int3
  41955c:	cc                   	int3
  41955d:	cc                   	int3
  41955e:	cc                   	int3
  41955f:	cc                   	int3
  419560:	cc                   	int3
  419561:	cc                   	int3
  419562:	cc                   	int3
  419563:	cc                   	int3
  419564:	cc                   	int3
  419565:	cc                   	int3
  419566:	cc                   	int3
  419567:	cc                   	int3
  419568:	cc                   	int3
  419569:	cc                   	int3
  41956a:	cc                   	int3
  41956b:	cc                   	int3
  41956c:	cc                   	int3
  41956d:	cc                   	int3
  41956e:	cc                   	int3
  41956f:	cc                   	int3
  419570:	cc                   	int3
  419571:	cc                   	int3
  419572:	cc                   	int3
  419573:	cc                   	int3
  419574:	cc                   	int3
  419575:	cc                   	int3
  419576:	cc                   	int3
  419577:	cc                   	int3
  419578:	cc                   	int3
  419579:	cc                   	int3
  41957a:	cc                   	int3
  41957b:	cc                   	int3
  41957c:	cc                   	int3
  41957d:	cc                   	int3
  41957e:	cc                   	int3
  41957f:	cc                   	int3
  419580:	cc                   	int3
  419581:	cc                   	int3
  419582:	cc                   	int3
  419583:	cc                   	int3
  419584:	cc                   	int3
  419585:	cc                   	int3
  419586:	cc                   	int3
  419587:	cc                   	int3
  419588:	cc                   	int3
  419589:	cc                   	int3
  41958a:	cc                   	int3
  41958b:	cc                   	int3
  41958c:	cc                   	int3
  41958d:	cc                   	int3
  41958e:	cc                   	int3
  41958f:	cc                   	int3
  419590:	cc                   	int3
  419591:	cc                   	int3
  419592:	cc                   	int3
  419593:	cc                   	int3
  419594:	cc                   	int3
  419595:	cc                   	int3
  419596:	cc                   	int3
  419597:	cc                   	int3
  419598:	cc                   	int3
  419599:	cc                   	int3
  41959a:	cc                   	int3
  41959b:	cc                   	int3
  41959c:	cc                   	int3
  41959d:	cc                   	int3
  41959e:	cc                   	int3
  41959f:	cc                   	int3
  4195a0:	cc                   	int3
  4195a1:	cc                   	int3
  4195a2:	cc                   	int3
  4195a3:	cc                   	int3
  4195a4:	cc                   	int3
  4195a5:	cc                   	int3
  4195a6:	cc                   	int3
  4195a7:	cc                   	int3
  4195a8:	cc                   	int3
  4195a9:	cc                   	int3
  4195aa:	cc                   	int3
  4195ab:	cc                   	int3
  4195ac:	cc                   	int3
  4195ad:	cc                   	int3
  4195ae:	cc                   	int3
  4195af:	cc                   	int3
  4195b0:	cc                   	int3
  4195b1:	cc                   	int3
  4195b2:	cc                   	int3
  4195b3:	cc                   	int3
  4195b4:	cc                   	int3
  4195b5:	cc                   	int3
  4195b6:	cc                   	int3
  4195b7:	cc                   	int3
  4195b8:	cc                   	int3
  4195b9:	cc                   	int3
  4195ba:	cc                   	int3
  4195bb:	cc                   	int3
  4195bc:	cc                   	int3
  4195bd:	cc                   	int3
  4195be:	cc                   	int3
  4195bf:	cc                   	int3
  4195c0:	cc                   	int3
  4195c1:	cc                   	int3
  4195c2:	cc                   	int3
  4195c3:	cc                   	int3
  4195c4:	cc                   	int3
  4195c5:	cc                   	int3
  4195c6:	cc                   	int3
  4195c7:	cc                   	int3
  4195c8:	cc                   	int3
  4195c9:	cc                   	int3
  4195ca:	cc                   	int3
  4195cb:	cc                   	int3
  4195cc:	cc                   	int3
  4195cd:	cc                   	int3
  4195ce:	cc                   	int3
  4195cf:	cc                   	int3
  4195d0:	cc                   	int3
  4195d1:	cc                   	int3
  4195d2:	cc                   	int3
  4195d3:	cc                   	int3
  4195d4:	cc                   	int3
  4195d5:	cc                   	int3
  4195d6:	cc                   	int3
  4195d7:	cc                   	int3
  4195d8:	cc                   	int3
  4195d9:	cc                   	int3
  4195da:	cc                   	int3
  4195db:	cc                   	int3
  4195dc:	cc                   	int3
  4195dd:	cc                   	int3
  4195de:	cc                   	int3
  4195df:	cc                   	int3
  4195e0:	cc                   	int3
  4195e1:	cc                   	int3
  4195e2:	cc                   	int3
  4195e3:	cc                   	int3
  4195e4:	cc                   	int3
  4195e5:	cc                   	int3
  4195e6:	cc                   	int3
  4195e7:	cc                   	int3
  4195e8:	cc                   	int3
  4195e9:	cc                   	int3
  4195ea:	cc                   	int3
  4195eb:	cc                   	int3
  4195ec:	cc                   	int3
  4195ed:	cc                   	int3
  4195ee:	cc                   	int3
  4195ef:	cc                   	int3
  4195f0:	cc                   	int3
  4195f1:	cc                   	int3
  4195f2:	cc                   	int3
  4195f3:	cc                   	int3
  4195f4:	cc                   	int3
  4195f5:	cc                   	int3
  4195f6:	cc                   	int3
  4195f7:	cc                   	int3
  4195f8:	cc                   	int3
  4195f9:	cc                   	int3
  4195fa:	cc                   	int3
  4195fb:	cc                   	int3
  4195fc:	cc                   	int3
  4195fd:	cc                   	int3
  4195fe:	cc                   	int3
  4195ff:	cc                   	int3
  419600:	cc                   	int3
  419601:	cc                   	int3
  419602:	cc                   	int3
  419603:	cc                   	int3
  419604:	cc                   	int3
  419605:	cc                   	int3
  419606:	cc                   	int3
  419607:	cc                   	int3
  419608:	cc                   	int3
  419609:	cc                   	int3
  41960a:	cc                   	int3
  41960b:	cc                   	int3
  41960c:	cc                   	int3
  41960d:	cc                   	int3
  41960e:	cc                   	int3
  41960f:	cc                   	int3
  419610:	cc                   	int3
  419611:	cc                   	int3
  419612:	cc                   	int3
  419613:	cc                   	int3
  419614:	cc                   	int3
  419615:	cc                   	int3
  419616:	cc                   	int3
  419617:	cc                   	int3
  419618:	cc                   	int3
  419619:	cc                   	int3
  41961a:	cc                   	int3
  41961b:	cc                   	int3
  41961c:	cc                   	int3
  41961d:	cc                   	int3
  41961e:	cc                   	int3
  41961f:	cc                   	int3
  419620:	cc                   	int3
  419621:	cc                   	int3
  419622:	cc                   	int3
  419623:	cc                   	int3
  419624:	cc                   	int3
  419625:	cc                   	int3
  419626:	cc                   	int3
  419627:	cc                   	int3
  419628:	cc                   	int3
  419629:	cc                   	int3
  41962a:	cc                   	int3
  41962b:	cc                   	int3
  41962c:	cc                   	int3
  41962d:	cc                   	int3
  41962e:	cc                   	int3
  41962f:	cc                   	int3
  419630:	cc                   	int3
  419631:	cc                   	int3
  419632:	cc                   	int3
  419633:	cc                   	int3
  419634:	cc                   	int3
  419635:	cc                   	int3
  419636:	cc                   	int3
  419637:	cc                   	int3
  419638:	cc                   	int3
  419639:	cc                   	int3
  41963a:	cc                   	int3
  41963b:	cc                   	int3
  41963c:	cc                   	int3
  41963d:	cc                   	int3
  41963e:	cc                   	int3
  41963f:	cc                   	int3
  419640:	cc                   	int3
  419641:	cc                   	int3
  419642:	cc                   	int3
  419643:	cc                   	int3
  419644:	cc                   	int3
  419645:	cc                   	int3
  419646:	cc                   	int3
  419647:	cc                   	int3
  419648:	cc                   	int3
  419649:	cc                   	int3
  41964a:	cc                   	int3
  41964b:	cc                   	int3
  41964c:	cc                   	int3
  41964d:	cc                   	int3
  41964e:	cc                   	int3
  41964f:	cc                   	int3
  419650:	cc                   	int3
  419651:	cc                   	int3
  419652:	cc                   	int3
  419653:	cc                   	int3
  419654:	cc                   	int3
  419655:	cc                   	int3
  419656:	cc                   	int3
  419657:	cc                   	int3
  419658:	cc                   	int3
  419659:	cc                   	int3
  41965a:	cc                   	int3
  41965b:	cc                   	int3
  41965c:	cc                   	int3
  41965d:	cc                   	int3
  41965e:	cc                   	int3
  41965f:	cc                   	int3
  419660:	cc                   	int3
  419661:	cc                   	int3
  419662:	cc                   	int3
  419663:	cc                   	int3
  419664:	cc                   	int3
  419665:	cc                   	int3
  419666:	cc                   	int3
  419667:	cc                   	int3
  419668:	cc                   	int3
  419669:	cc                   	int3
  41966a:	cc                   	int3
  41966b:	cc                   	int3
  41966c:	cc                   	int3
  41966d:	cc                   	int3
  41966e:	cc                   	int3
  41966f:	cc                   	int3
  419670:	cc                   	int3
  419671:	cc                   	int3
  419672:	cc                   	int3
  419673:	cc                   	int3
  419674:	cc                   	int3
  419675:	cc                   	int3
  419676:	cc                   	int3
  419677:	cc                   	int3
  419678:	cc                   	int3
  419679:	cc                   	int3
  41967a:	cc                   	int3
  41967b:	cc                   	int3
  41967c:	cc                   	int3
  41967d:	cc                   	int3
  41967e:	cc                   	int3
  41967f:	cc                   	int3
  419680:	cc                   	int3
  419681:	cc                   	int3
  419682:	cc                   	int3
  419683:	cc                   	int3
  419684:	cc                   	int3
  419685:	cc                   	int3
  419686:	cc                   	int3
  419687:	cc                   	int3
  419688:	cc                   	int3
  419689:	cc                   	int3
  41968a:	cc                   	int3
  41968b:	cc                   	int3
  41968c:	cc                   	int3
  41968d:	cc                   	int3
  41968e:	cc                   	int3
  41968f:	cc                   	int3
  419690:	cc                   	int3
  419691:	cc                   	int3
  419692:	cc                   	int3
  419693:	cc                   	int3
  419694:	cc                   	int3
  419695:	cc                   	int3
  419696:	cc                   	int3
  419697:	cc                   	int3
  419698:	cc                   	int3
  419699:	cc                   	int3
  41969a:	cc                   	int3
  41969b:	cc                   	int3
  41969c:	cc                   	int3
  41969d:	cc                   	int3
  41969e:	cc                   	int3
  41969f:	cc                   	int3
  4196a0:	cc                   	int3
  4196a1:	cc                   	int3
  4196a2:	cc                   	int3
  4196a3:	cc                   	int3
  4196a4:	cc                   	int3
  4196a5:	cc                   	int3
  4196a6:	cc                   	int3
  4196a7:	cc                   	int3
  4196a8:	cc                   	int3
  4196a9:	cc                   	int3
  4196aa:	cc                   	int3
  4196ab:	cc                   	int3
  4196ac:	cc                   	int3
  4196ad:	cc                   	int3
  4196ae:	cc                   	int3
  4196af:	cc                   	int3
  4196b0:	cc                   	int3
  4196b1:	cc                   	int3
  4196b2:	cc                   	int3
  4196b3:	cc                   	int3
  4196b4:	cc                   	int3
  4196b5:	cc                   	int3
  4196b6:	cc                   	int3
  4196b7:	cc                   	int3
  4196b8:	cc                   	int3
  4196b9:	cc                   	int3
  4196ba:	cc                   	int3
  4196bb:	cc                   	int3
  4196bc:	cc                   	int3
  4196bd:	cc                   	int3
  4196be:	cc                   	int3
  4196bf:	cc                   	int3
  4196c0:	cc                   	int3
  4196c1:	cc                   	int3
  4196c2:	cc                   	int3
  4196c3:	cc                   	int3
  4196c4:	cc                   	int3
  4196c5:	cc                   	int3
  4196c6:	cc                   	int3
  4196c7:	cc                   	int3
  4196c8:	cc                   	int3
  4196c9:	cc                   	int3
  4196ca:	cc                   	int3
  4196cb:	cc                   	int3
  4196cc:	cc                   	int3
  4196cd:	cc                   	int3
  4196ce:	cc                   	int3
  4196cf:	cc                   	int3
  4196d0:	cc                   	int3
  4196d1:	cc                   	int3
  4196d2:	cc                   	int3
  4196d3:	cc                   	int3
  4196d4:	cc                   	int3
  4196d5:	cc                   	int3
  4196d6:	cc                   	int3
  4196d7:	cc                   	int3
  4196d8:	cc                   	int3
  4196d9:	cc                   	int3
  4196da:	cc                   	int3
  4196db:	cc                   	int3
  4196dc:	cc                   	int3
  4196dd:	cc                   	int3
  4196de:	cc                   	int3
  4196df:	cc                   	int3
  4196e0:	cc                   	int3
  4196e1:	cc                   	int3
  4196e2:	cc                   	int3
  4196e3:	cc                   	int3
  4196e4:	cc                   	int3
  4196e5:	cc                   	int3
  4196e6:	cc                   	int3
  4196e7:	cc                   	int3
  4196e8:	cc                   	int3
  4196e9:	cc                   	int3
  4196ea:	cc                   	int3
  4196eb:	cc                   	int3
  4196ec:	cc                   	int3
  4196ed:	cc                   	int3
  4196ee:	cc                   	int3
  4196ef:	cc                   	int3
  4196f0:	cc                   	int3
  4196f1:	cc                   	int3
  4196f2:	cc                   	int3
  4196f3:	cc                   	int3
  4196f4:	cc                   	int3
  4196f5:	cc                   	int3
  4196f6:	cc                   	int3
  4196f7:	cc                   	int3
  4196f8:	cc                   	int3
  4196f9:	cc                   	int3
  4196fa:	cc                   	int3
  4196fb:	cc                   	int3
  4196fc:	cc                   	int3
  4196fd:	cc                   	int3
  4196fe:	cc                   	int3
  4196ff:	cc                   	int3
  419700:	cc                   	int3
  419701:	cc                   	int3
  419702:	cc                   	int3
  419703:	cc                   	int3
  419704:	cc                   	int3
  419705:	cc                   	int3
  419706:	cc                   	int3
  419707:	cc                   	int3
  419708:	cc                   	int3
  419709:	cc                   	int3
  41970a:	cc                   	int3
  41970b:	cc                   	int3
  41970c:	cc                   	int3
  41970d:	cc                   	int3
  41970e:	cc                   	int3
  41970f:	cc                   	int3
  419710:	cc                   	int3
  419711:	cc                   	int3
  419712:	cc                   	int3
  419713:	cc                   	int3
  419714:	cc                   	int3
  419715:	cc                   	int3
  419716:	cc                   	int3
  419717:	cc                   	int3
  419718:	cc                   	int3
  419719:	cc                   	int3
  41971a:	cc                   	int3
  41971b:	cc                   	int3
  41971c:	cc                   	int3
  41971d:	cc                   	int3
  41971e:	cc                   	int3
  41971f:	cc                   	int3
  419720:	cc                   	int3
  419721:	cc                   	int3
  419722:	cc                   	int3
  419723:	cc                   	int3
  419724:	cc                   	int3
  419725:	cc                   	int3
  419726:	cc                   	int3
  419727:	cc                   	int3
  419728:	cc                   	int3
  419729:	cc                   	int3
  41972a:	cc                   	int3
  41972b:	cc                   	int3
  41972c:	cc                   	int3
  41972d:	cc                   	int3
  41972e:	cc                   	int3
  41972f:	cc                   	int3
  419730:	cc                   	int3
  419731:	cc                   	int3
  419732:	cc                   	int3
  419733:	cc                   	int3
  419734:	cc                   	int3
  419735:	cc                   	int3
  419736:	cc                   	int3
  419737:	cc                   	int3
  419738:	cc                   	int3
  419739:	cc                   	int3
  41973a:	cc                   	int3
  41973b:	cc                   	int3
  41973c:	cc                   	int3
  41973d:	cc                   	int3
  41973e:	cc                   	int3
  41973f:	cc                   	int3
  419740:	cc                   	int3
  419741:	cc                   	int3
  419742:	cc                   	int3
  419743:	cc                   	int3
  419744:	cc                   	int3
  419745:	cc                   	int3
  419746:	cc                   	int3
  419747:	cc                   	int3
  419748:	cc                   	int3
  419749:	cc                   	int3
  41974a:	cc                   	int3
  41974b:	cc                   	int3
  41974c:	cc                   	int3
  41974d:	cc                   	int3
  41974e:	cc                   	int3
  41974f:	cc                   	int3
  419750:	cc                   	int3
  419751:	cc                   	int3
  419752:	cc                   	int3
  419753:	cc                   	int3
  419754:	cc                   	int3
  419755:	cc                   	int3
  419756:	cc                   	int3
  419757:	cc                   	int3
  419758:	cc                   	int3
  419759:	cc                   	int3
  41975a:	cc                   	int3
  41975b:	cc                   	int3
  41975c:	cc                   	int3
  41975d:	cc                   	int3
  41975e:	cc                   	int3
  41975f:	cc                   	int3
  419760:	cc                   	int3
  419761:	cc                   	int3
  419762:	cc                   	int3
  419763:	cc                   	int3
  419764:	cc                   	int3
  419765:	cc                   	int3
  419766:	cc                   	int3
  419767:	cc                   	int3
  419768:	cc                   	int3
  419769:	cc                   	int3
  41976a:	cc                   	int3
  41976b:	cc                   	int3
  41976c:	cc                   	int3
  41976d:	cc                   	int3
  41976e:	cc                   	int3
  41976f:	cc                   	int3
  419770:	cc                   	int3
  419771:	cc                   	int3
  419772:	cc                   	int3
  419773:	cc                   	int3
  419774:	cc                   	int3
  419775:	cc                   	int3
  419776:	cc                   	int3
  419777:	cc                   	int3
  419778:	cc                   	int3
  419779:	cc                   	int3
  41977a:	cc                   	int3
  41977b:	cc                   	int3
  41977c:	cc                   	int3
  41977d:	cc                   	int3
  41977e:	cc                   	int3
  41977f:	cc                   	int3
  419780:	cc                   	int3
  419781:	cc                   	int3
  419782:	cc                   	int3
  419783:	cc                   	int3
  419784:	cc                   	int3
  419785:	cc                   	int3
  419786:	cc                   	int3
  419787:	cc                   	int3
  419788:	cc                   	int3
  419789:	cc                   	int3
  41978a:	cc                   	int3
  41978b:	cc                   	int3
  41978c:	cc                   	int3
  41978d:	cc                   	int3
  41978e:	cc                   	int3
  41978f:	cc                   	int3
  419790:	cc                   	int3
  419791:	cc                   	int3
  419792:	cc                   	int3
  419793:	cc                   	int3
  419794:	cc                   	int3
  419795:	cc                   	int3
  419796:	cc                   	int3
  419797:	cc                   	int3
  419798:	cc                   	int3
  419799:	cc                   	int3
  41979a:	cc                   	int3
  41979b:	cc                   	int3
  41979c:	cc                   	int3
  41979d:	cc                   	int3
  41979e:	cc                   	int3
  41979f:	cc                   	int3
  4197a0:	cc                   	int3
  4197a1:	cc                   	int3
  4197a2:	cc                   	int3
  4197a3:	cc                   	int3
  4197a4:	cc                   	int3
  4197a5:	cc                   	int3
  4197a6:	cc                   	int3
  4197a7:	cc                   	int3
  4197a8:	cc                   	int3
  4197a9:	cc                   	int3
  4197aa:	cc                   	int3
  4197ab:	cc                   	int3
  4197ac:	cc                   	int3
  4197ad:	cc                   	int3
  4197ae:	cc                   	int3
  4197af:	cc                   	int3
  4197b0:	cc                   	int3
  4197b1:	cc                   	int3
  4197b2:	cc                   	int3
  4197b3:	cc                   	int3
  4197b4:	cc                   	int3
  4197b5:	cc                   	int3
  4197b6:	cc                   	int3
  4197b7:	cc                   	int3
  4197b8:	cc                   	int3
  4197b9:	cc                   	int3
  4197ba:	cc                   	int3
  4197bb:	cc                   	int3
  4197bc:	cc                   	int3
  4197bd:	cc                   	int3
  4197be:	cc                   	int3
  4197bf:	cc                   	int3
  4197c0:	cc                   	int3
  4197c1:	cc                   	int3
  4197c2:	cc                   	int3
  4197c3:	cc                   	int3
  4197c4:	cc                   	int3
  4197c5:	cc                   	int3
  4197c6:	cc                   	int3
  4197c7:	cc                   	int3
  4197c8:	cc                   	int3
  4197c9:	cc                   	int3
  4197ca:	cc                   	int3
  4197cb:	cc                   	int3
  4197cc:	cc                   	int3
  4197cd:	cc                   	int3
  4197ce:	cc                   	int3
  4197cf:	cc                   	int3
  4197d0:	cc                   	int3
  4197d1:	cc                   	int3
  4197d2:	cc                   	int3
  4197d3:	cc                   	int3
  4197d4:	cc                   	int3
  4197d5:	cc                   	int3
  4197d6:	cc                   	int3
  4197d7:	cc                   	int3
  4197d8:	cc                   	int3
  4197d9:	cc                   	int3
  4197da:	cc                   	int3
  4197db:	cc                   	int3
  4197dc:	cc                   	int3
  4197dd:	cc                   	int3
  4197de:	cc                   	int3
  4197df:	cc                   	int3
  4197e0:	cc                   	int3
  4197e1:	cc                   	int3
  4197e2:	cc                   	int3
  4197e3:	cc                   	int3
  4197e4:	cc                   	int3
  4197e5:	cc                   	int3
  4197e6:	cc                   	int3
  4197e7:	cc                   	int3
  4197e8:	cc                   	int3
  4197e9:	cc                   	int3
  4197ea:	cc                   	int3
  4197eb:	cc                   	int3
  4197ec:	cc                   	int3
  4197ed:	cc                   	int3
  4197ee:	cc                   	int3
  4197ef:	cc                   	int3
  4197f0:	cc                   	int3
  4197f1:	cc                   	int3
  4197f2:	cc                   	int3
  4197f3:	cc                   	int3
  4197f4:	cc                   	int3
  4197f5:	cc                   	int3
  4197f6:	cc                   	int3
  4197f7:	cc                   	int3
  4197f8:	cc                   	int3
  4197f9:	cc                   	int3
  4197fa:	cc                   	int3
  4197fb:	cc                   	int3
  4197fc:	cc                   	int3
  4197fd:	cc                   	int3
  4197fe:	cc                   	int3
  4197ff:	cc                   	int3
  419800:	cc                   	int3
  419801:	cc                   	int3
  419802:	cc                   	int3
  419803:	cc                   	int3
  419804:	cc                   	int3
  419805:	cc                   	int3
  419806:	cc                   	int3
  419807:	cc                   	int3
  419808:	cc                   	int3
  419809:	cc                   	int3
  41980a:	cc                   	int3
  41980b:	cc                   	int3
  41980c:	cc                   	int3
  41980d:	cc                   	int3
  41980e:	cc                   	int3
  41980f:	cc                   	int3
  419810:	cc                   	int3
  419811:	cc                   	int3
  419812:	cc                   	int3
  419813:	cc                   	int3
  419814:	cc                   	int3
  419815:	cc                   	int3
  419816:	cc                   	int3
  419817:	cc                   	int3
  419818:	cc                   	int3
  419819:	cc                   	int3
  41981a:	cc                   	int3
  41981b:	cc                   	int3
  41981c:	cc                   	int3
  41981d:	cc                   	int3
  41981e:	cc                   	int3
  41981f:	cc                   	int3
  419820:	cc                   	int3
  419821:	cc                   	int3
  419822:	cc                   	int3
  419823:	cc                   	int3
  419824:	cc                   	int3
  419825:	cc                   	int3
  419826:	cc                   	int3
  419827:	cc                   	int3
  419828:	cc                   	int3
  419829:	cc                   	int3
  41982a:	cc                   	int3
  41982b:	cc                   	int3
  41982c:	cc                   	int3
  41982d:	cc                   	int3
  41982e:	cc                   	int3
  41982f:	cc                   	int3
  419830:	cc                   	int3
  419831:	cc                   	int3
  419832:	cc                   	int3
  419833:	cc                   	int3
  419834:	cc                   	int3
  419835:	cc                   	int3
  419836:	cc                   	int3
  419837:	cc                   	int3
  419838:	cc                   	int3
  419839:	cc                   	int3
  41983a:	cc                   	int3
  41983b:	cc                   	int3
  41983c:	cc                   	int3
  41983d:	cc                   	int3
  41983e:	cc                   	int3
  41983f:	cc                   	int3
  419840:	cc                   	int3
  419841:	cc                   	int3
  419842:	cc                   	int3
  419843:	cc                   	int3
  419844:	cc                   	int3
  419845:	cc                   	int3
  419846:	cc                   	int3
  419847:	cc                   	int3
  419848:	cc                   	int3
  419849:	cc                   	int3
  41984a:	cc                   	int3
  41984b:	cc                   	int3
  41984c:	cc                   	int3
  41984d:	cc                   	int3
  41984e:	cc                   	int3
  41984f:	cc                   	int3
  419850:	cc                   	int3
  419851:	cc                   	int3
  419852:	cc                   	int3
  419853:	cc                   	int3
  419854:	cc                   	int3
  419855:	cc                   	int3
  419856:	cc                   	int3
  419857:	cc                   	int3
  419858:	cc                   	int3
  419859:	cc                   	int3
  41985a:	cc                   	int3
  41985b:	cc                   	int3
  41985c:	cc                   	int3
  41985d:	cc                   	int3
  41985e:	cc                   	int3
  41985f:	cc                   	int3
  419860:	cc                   	int3
  419861:	cc                   	int3
  419862:	cc                   	int3
  419863:	cc                   	int3
  419864:	cc                   	int3
  419865:	cc                   	int3
  419866:	cc                   	int3
  419867:	cc                   	int3
  419868:	cc                   	int3
  419869:	cc                   	int3
  41986a:	cc                   	int3
  41986b:	cc                   	int3
  41986c:	cc                   	int3
  41986d:	cc                   	int3
  41986e:	cc                   	int3
  41986f:	cc                   	int3
  419870:	cc                   	int3
  419871:	cc                   	int3
  419872:	cc                   	int3
  419873:	cc                   	int3
  419874:	cc                   	int3
  419875:	cc                   	int3
  419876:	cc                   	int3
  419877:	cc                   	int3
  419878:	cc                   	int3
  419879:	cc                   	int3
  41987a:	cc                   	int3
  41987b:	cc                   	int3
  41987c:	cc                   	int3
  41987d:	cc                   	int3
  41987e:	cc                   	int3
  41987f:	cc                   	int3
  419880:	cc                   	int3
  419881:	cc                   	int3
  419882:	cc                   	int3
  419883:	cc                   	int3
  419884:	cc                   	int3
  419885:	cc                   	int3
  419886:	cc                   	int3
  419887:	cc                   	int3
  419888:	cc                   	int3
  419889:	cc                   	int3
  41988a:	cc                   	int3
  41988b:	cc                   	int3
  41988c:	cc                   	int3
  41988d:	cc                   	int3
  41988e:	cc                   	int3
  41988f:	cc                   	int3
  419890:	cc                   	int3
  419891:	cc                   	int3
  419892:	cc                   	int3
  419893:	cc                   	int3
  419894:	cc                   	int3
  419895:	cc                   	int3
  419896:	cc                   	int3
  419897:	cc                   	int3
  419898:	cc                   	int3
  419899:	cc                   	int3
  41989a:	cc                   	int3
  41989b:	cc                   	int3
  41989c:	cc                   	int3
  41989d:	cc                   	int3
  41989e:	cc                   	int3
  41989f:	cc                   	int3
  4198a0:	cc                   	int3
  4198a1:	cc                   	int3
  4198a2:	cc                   	int3
  4198a3:	cc                   	int3
  4198a4:	cc                   	int3
  4198a5:	cc                   	int3
  4198a6:	cc                   	int3
  4198a7:	cc                   	int3
  4198a8:	cc                   	int3
  4198a9:	cc                   	int3
  4198aa:	cc                   	int3
  4198ab:	cc                   	int3
  4198ac:	cc                   	int3
  4198ad:	cc                   	int3
  4198ae:	cc                   	int3
  4198af:	cc                   	int3
  4198b0:	cc                   	int3
  4198b1:	cc                   	int3
  4198b2:	cc                   	int3
  4198b3:	cc                   	int3
  4198b4:	cc                   	int3
  4198b5:	cc                   	int3
  4198b6:	cc                   	int3
  4198b7:	cc                   	int3
  4198b8:	cc                   	int3
  4198b9:	cc                   	int3
  4198ba:	cc                   	int3
  4198bb:	cc                   	int3
  4198bc:	cc                   	int3
  4198bd:	cc                   	int3
  4198be:	cc                   	int3
  4198bf:	cc                   	int3
  4198c0:	cc                   	int3
  4198c1:	cc                   	int3
  4198c2:	cc                   	int3
  4198c3:	cc                   	int3
  4198c4:	cc                   	int3
  4198c5:	cc                   	int3
  4198c6:	cc                   	int3
  4198c7:	cc                   	int3
  4198c8:	cc                   	int3
  4198c9:	cc                   	int3
  4198ca:	cc                   	int3
  4198cb:	cc                   	int3
  4198cc:	cc                   	int3
  4198cd:	cc                   	int3
  4198ce:	cc                   	int3
  4198cf:	cc                   	int3
  4198d0:	cc                   	int3
  4198d1:	cc                   	int3
  4198d2:	cc                   	int3
  4198d3:	cc                   	int3
  4198d4:	cc                   	int3
  4198d5:	cc                   	int3
  4198d6:	cc                   	int3
  4198d7:	cc                   	int3
  4198d8:	cc                   	int3
  4198d9:	cc                   	int3
  4198da:	cc                   	int3
  4198db:	cc                   	int3
  4198dc:	cc                   	int3
  4198dd:	cc                   	int3
  4198de:	cc                   	int3
  4198df:	cc                   	int3
  4198e0:	cc                   	int3
  4198e1:	cc                   	int3
  4198e2:	cc                   	int3
  4198e3:	cc                   	int3
  4198e4:	cc                   	int3
  4198e5:	cc                   	int3
  4198e6:	cc                   	int3
  4198e7:	cc                   	int3
  4198e8:	cc                   	int3
  4198e9:	cc                   	int3
  4198ea:	cc                   	int3
  4198eb:	cc                   	int3
  4198ec:	cc                   	int3
  4198ed:	cc                   	int3
  4198ee:	cc                   	int3
  4198ef:	cc                   	int3
  4198f0:	cc                   	int3
  4198f1:	cc                   	int3
  4198f2:	cc                   	int3
  4198f3:	cc                   	int3
  4198f4:	cc                   	int3
  4198f5:	cc                   	int3
  4198f6:	cc                   	int3
  4198f7:	cc                   	int3
  4198f8:	cc                   	int3
  4198f9:	cc                   	int3
  4198fa:	cc                   	int3
  4198fb:	cc                   	int3
  4198fc:	cc                   	int3
  4198fd:	cc                   	int3
  4198fe:	cc                   	int3
  4198ff:	cc                   	int3
  419900:	cc                   	int3
  419901:	cc                   	int3
  419902:	cc                   	int3
  419903:	cc                   	int3
  419904:	cc                   	int3
  419905:	cc                   	int3
  419906:	cc                   	int3
  419907:	cc                   	int3
  419908:	cc                   	int3
  419909:	cc                   	int3
  41990a:	cc                   	int3
  41990b:	cc                   	int3
  41990c:	cc                   	int3
  41990d:	cc                   	int3
  41990e:	cc                   	int3
  41990f:	cc                   	int3
  419910:	cc                   	int3
  419911:	cc                   	int3
  419912:	cc                   	int3
  419913:	cc                   	int3
  419914:	cc                   	int3
  419915:	cc                   	int3
  419916:	cc                   	int3
  419917:	cc                   	int3
  419918:	cc                   	int3
  419919:	cc                   	int3
  41991a:	cc                   	int3
  41991b:	cc                   	int3
  41991c:	cc                   	int3
  41991d:	cc                   	int3
  41991e:	cc                   	int3
  41991f:	cc                   	int3
  419920:	cc                   	int3
  419921:	cc                   	int3
  419922:	cc                   	int3
  419923:	cc                   	int3
  419924:	cc                   	int3
  419925:	cc                   	int3
  419926:	cc                   	int3
  419927:	cc                   	int3
  419928:	cc                   	int3
  419929:	cc                   	int3
  41992a:	cc                   	int3
  41992b:	cc                   	int3
  41992c:	cc                   	int3
  41992d:	cc                   	int3
  41992e:	cc                   	int3
  41992f:	cc                   	int3
  419930:	cc                   	int3
  419931:	cc                   	int3
  419932:	cc                   	int3
  419933:	cc                   	int3
  419934:	cc                   	int3
  419935:	cc                   	int3
  419936:	cc                   	int3
  419937:	cc                   	int3
  419938:	cc                   	int3
  419939:	cc                   	int3
  41993a:	cc                   	int3
  41993b:	cc                   	int3
  41993c:	cc                   	int3
  41993d:	cc                   	int3
  41993e:	cc                   	int3
  41993f:	cc                   	int3
  419940:	cc                   	int3
  419941:	cc                   	int3
  419942:	cc                   	int3
  419943:	cc                   	int3
  419944:	cc                   	int3
  419945:	cc                   	int3
  419946:	cc                   	int3
  419947:	cc                   	int3
  419948:	cc                   	int3
  419949:	cc                   	int3
  41994a:	cc                   	int3
  41994b:	cc                   	int3
  41994c:	cc                   	int3
  41994d:	cc                   	int3
  41994e:	cc                   	int3
  41994f:	cc                   	int3
  419950:	cc                   	int3
  419951:	cc                   	int3
  419952:	cc                   	int3
  419953:	cc                   	int3
  419954:	cc                   	int3
  419955:	cc                   	int3
  419956:	cc                   	int3
  419957:	cc                   	int3
  419958:	cc                   	int3
  419959:	cc                   	int3
  41995a:	cc                   	int3
  41995b:	cc                   	int3
  41995c:	cc                   	int3
  41995d:	cc                   	int3
  41995e:	cc                   	int3
  41995f:	cc                   	int3
  419960:	cc                   	int3
  419961:	cc                   	int3
  419962:	cc                   	int3
  419963:	cc                   	int3
  419964:	cc                   	int3
  419965:	cc                   	int3
  419966:	cc                   	int3
  419967:	cc                   	int3
  419968:	cc                   	int3
  419969:	cc                   	int3
  41996a:	cc                   	int3
  41996b:	cc                   	int3
  41996c:	cc                   	int3
  41996d:	cc                   	int3
  41996e:	cc                   	int3
  41996f:	cc                   	int3
  419970:	cc                   	int3
  419971:	cc                   	int3
  419972:	cc                   	int3
  419973:	cc                   	int3
  419974:	cc                   	int3
  419975:	cc                   	int3
  419976:	cc                   	int3
  419977:	cc                   	int3
  419978:	cc                   	int3
  419979:	cc                   	int3
  41997a:	cc                   	int3
  41997b:	cc                   	int3
  41997c:	cc                   	int3
  41997d:	cc                   	int3
  41997e:	cc                   	int3
  41997f:	cc                   	int3
  419980:	cc                   	int3
  419981:	cc                   	int3
  419982:	cc                   	int3
  419983:	cc                   	int3
  419984:	cc                   	int3
  419985:	cc                   	int3
  419986:	cc                   	int3
  419987:	cc                   	int3
  419988:	cc                   	int3
  419989:	cc                   	int3
  41998a:	cc                   	int3
  41998b:	cc                   	int3
  41998c:	cc                   	int3
  41998d:	cc                   	int3
  41998e:	cc                   	int3
  41998f:	cc                   	int3
  419990:	cc                   	int3
  419991:	cc                   	int3
  419992:	cc                   	int3
  419993:	cc                   	int3
  419994:	cc                   	int3
  419995:	cc                   	int3
  419996:	cc                   	int3
  419997:	cc                   	int3
  419998:	cc                   	int3
  419999:	cc                   	int3
  41999a:	cc                   	int3
  41999b:	cc                   	int3
  41999c:	cc                   	int3
  41999d:	cc                   	int3
  41999e:	cc                   	int3
  41999f:	cc                   	int3
  4199a0:	cc                   	int3
  4199a1:	cc                   	int3
  4199a2:	cc                   	int3
  4199a3:	cc                   	int3
  4199a4:	cc                   	int3
  4199a5:	cc                   	int3
  4199a6:	cc                   	int3
  4199a7:	cc                   	int3
  4199a8:	cc                   	int3
  4199a9:	cc                   	int3
  4199aa:	cc                   	int3
  4199ab:	cc                   	int3
  4199ac:	cc                   	int3
  4199ad:	cc                   	int3
  4199ae:	cc                   	int3
  4199af:	cc                   	int3
  4199b0:	cc                   	int3
  4199b1:	cc                   	int3
  4199b2:	cc                   	int3
  4199b3:	cc                   	int3
  4199b4:	cc                   	int3
  4199b5:	cc                   	int3
  4199b6:	cc                   	int3
  4199b7:	cc                   	int3
  4199b8:	cc                   	int3
  4199b9:	cc                   	int3
  4199ba:	cc                   	int3
  4199bb:	cc                   	int3
  4199bc:	cc                   	int3
  4199bd:	cc                   	int3
  4199be:	cc                   	int3
  4199bf:	cc                   	int3
  4199c0:	cc                   	int3
  4199c1:	cc                   	int3
  4199c2:	cc                   	int3
  4199c3:	cc                   	int3
  4199c4:	cc                   	int3
  4199c5:	cc                   	int3
  4199c6:	cc                   	int3
  4199c7:	cc                   	int3
  4199c8:	cc                   	int3
  4199c9:	cc                   	int3
  4199ca:	cc                   	int3
  4199cb:	cc                   	int3
  4199cc:	cc                   	int3
  4199cd:	cc                   	int3
  4199ce:	cc                   	int3
  4199cf:	cc                   	int3
  4199d0:	cc                   	int3
  4199d1:	cc                   	int3
  4199d2:	cc                   	int3
  4199d3:	cc                   	int3
  4199d4:	cc                   	int3
  4199d5:	cc                   	int3
  4199d6:	cc                   	int3
  4199d7:	cc                   	int3
  4199d8:	cc                   	int3
  4199d9:	cc                   	int3
  4199da:	cc                   	int3
  4199db:	cc                   	int3
  4199dc:	cc                   	int3
  4199dd:	cc                   	int3
  4199de:	cc                   	int3
  4199df:	cc                   	int3
  4199e0:	cc                   	int3
  4199e1:	cc                   	int3
  4199e2:	cc                   	int3
  4199e3:	cc                   	int3
  4199e4:	cc                   	int3
  4199e5:	cc                   	int3
  4199e6:	cc                   	int3
  4199e7:	cc                   	int3
  4199e8:	cc                   	int3
  4199e9:	cc                   	int3
  4199ea:	cc                   	int3
  4199eb:	cc                   	int3
  4199ec:	cc                   	int3
  4199ed:	cc                   	int3
  4199ee:	cc                   	int3
  4199ef:	cc                   	int3
  4199f0:	cc                   	int3
  4199f1:	cc                   	int3
  4199f2:	cc                   	int3
  4199f3:	cc                   	int3
  4199f4:	cc                   	int3
  4199f5:	cc                   	int3
  4199f6:	cc                   	int3
  4199f7:	cc                   	int3
  4199f8:	cc                   	int3
  4199f9:	cc                   	int3
  4199fa:	cc                   	int3
  4199fb:	cc                   	int3
  4199fc:	cc                   	int3
  4199fd:	cc                   	int3
  4199fe:	cc                   	int3
  4199ff:	cc                   	int3
  419a00:	cc                   	int3
  419a01:	cc                   	int3
  419a02:	cc                   	int3
  419a03:	cc                   	int3
  419a04:	cc                   	int3
  419a05:	cc                   	int3
  419a06:	cc                   	int3
  419a07:	cc                   	int3
  419a08:	cc                   	int3
  419a09:	cc                   	int3
  419a0a:	cc                   	int3
  419a0b:	cc                   	int3
  419a0c:	cc                   	int3
  419a0d:	cc                   	int3
  419a0e:	cc                   	int3
  419a0f:	cc                   	int3
  419a10:	cc                   	int3
  419a11:	cc                   	int3
  419a12:	cc                   	int3
  419a13:	cc                   	int3
  419a14:	cc                   	int3
  419a15:	cc                   	int3
  419a16:	cc                   	int3
  419a17:	cc                   	int3
  419a18:	cc                   	int3
  419a19:	cc                   	int3
  419a1a:	cc                   	int3
  419a1b:	cc                   	int3
  419a1c:	cc                   	int3
  419a1d:	cc                   	int3
  419a1e:	cc                   	int3
  419a1f:	cc                   	int3
  419a20:	cc                   	int3
  419a21:	cc                   	int3
  419a22:	cc                   	int3
  419a23:	cc                   	int3
  419a24:	cc                   	int3
  419a25:	cc                   	int3
  419a26:	cc                   	int3
  419a27:	cc                   	int3
  419a28:	cc                   	int3
  419a29:	cc                   	int3
  419a2a:	cc                   	int3
  419a2b:	cc                   	int3
  419a2c:	cc                   	int3
  419a2d:	cc                   	int3
  419a2e:	cc                   	int3
  419a2f:	cc                   	int3
  419a30:	cc                   	int3
  419a31:	cc                   	int3
  419a32:	cc                   	int3
  419a33:	cc                   	int3
  419a34:	cc                   	int3
  419a35:	cc                   	int3
  419a36:	cc                   	int3
  419a37:	cc                   	int3
  419a38:	cc                   	int3
  419a39:	cc                   	int3
  419a3a:	cc                   	int3
  419a3b:	cc                   	int3
  419a3c:	cc                   	int3
  419a3d:	cc                   	int3
  419a3e:	cc                   	int3
  419a3f:	cc                   	int3
  419a40:	cc                   	int3
  419a41:	cc                   	int3
  419a42:	cc                   	int3
  419a43:	cc                   	int3
  419a44:	cc                   	int3
  419a45:	cc                   	int3
  419a46:	cc                   	int3
  419a47:	cc                   	int3
  419a48:	cc                   	int3
  419a49:	cc                   	int3
  419a4a:	cc                   	int3
  419a4b:	cc                   	int3
  419a4c:	cc                   	int3
  419a4d:	cc                   	int3
  419a4e:	cc                   	int3
  419a4f:	cc                   	int3
  419a50:	cc                   	int3
  419a51:	cc                   	int3
  419a52:	cc                   	int3
  419a53:	cc                   	int3
  419a54:	cc                   	int3
  419a55:	cc                   	int3
  419a56:	cc                   	int3
  419a57:	cc                   	int3
  419a58:	cc                   	int3
  419a59:	cc                   	int3
  419a5a:	cc                   	int3
  419a5b:	cc                   	int3
  419a5c:	cc                   	int3
  419a5d:	cc                   	int3
  419a5e:	cc                   	int3
  419a5f:	cc                   	int3
  419a60:	cc                   	int3
  419a61:	cc                   	int3
  419a62:	cc                   	int3
  419a63:	cc                   	int3
  419a64:	cc                   	int3
  419a65:	cc                   	int3
  419a66:	cc                   	int3
  419a67:	cc                   	int3
  419a68:	cc                   	int3
  419a69:	cc                   	int3
  419a6a:	cc                   	int3
  419a6b:	cc                   	int3
  419a6c:	cc                   	int3
  419a6d:	cc                   	int3
  419a6e:	cc                   	int3
  419a6f:	cc                   	int3
  419a70:	cc                   	int3
  419a71:	cc                   	int3
  419a72:	cc                   	int3
  419a73:	cc                   	int3
  419a74:	cc                   	int3
  419a75:	cc                   	int3
  419a76:	cc                   	int3
  419a77:	cc                   	int3
  419a78:	cc                   	int3
  419a79:	cc                   	int3
  419a7a:	cc                   	int3
  419a7b:	cc                   	int3
  419a7c:	cc                   	int3
  419a7d:	cc                   	int3
  419a7e:	cc                   	int3
  419a7f:	cc                   	int3
  419a80:	cc                   	int3
  419a81:	cc                   	int3
  419a82:	cc                   	int3
  419a83:	cc                   	int3
  419a84:	cc                   	int3
  419a85:	cc                   	int3
  419a86:	cc                   	int3
  419a87:	cc                   	int3
  419a88:	cc                   	int3
  419a89:	cc                   	int3
  419a8a:	cc                   	int3
  419a8b:	cc                   	int3
  419a8c:	cc                   	int3
  419a8d:	cc                   	int3
  419a8e:	cc                   	int3
  419a8f:	cc                   	int3
  419a90:	cc                   	int3
  419a91:	cc                   	int3
  419a92:	cc                   	int3
  419a93:	cc                   	int3
  419a94:	cc                   	int3
  419a95:	cc                   	int3
  419a96:	cc                   	int3
  419a97:	cc                   	int3
  419a98:	cc                   	int3
  419a99:	cc                   	int3
  419a9a:	cc                   	int3
  419a9b:	cc                   	int3
  419a9c:	cc                   	int3
  419a9d:	cc                   	int3
  419a9e:	cc                   	int3
  419a9f:	cc                   	int3
  419aa0:	cc                   	int3
  419aa1:	cc                   	int3
  419aa2:	cc                   	int3
  419aa3:	cc                   	int3
  419aa4:	cc                   	int3
  419aa5:	cc                   	int3
  419aa6:	cc                   	int3
  419aa7:	cc                   	int3
  419aa8:	cc                   	int3
  419aa9:	cc                   	int3
  419aaa:	cc                   	int3
  419aab:	cc                   	int3
  419aac:	cc                   	int3
  419aad:	cc                   	int3
  419aae:	cc                   	int3
  419aaf:	cc                   	int3
  419ab0:	cc                   	int3
  419ab1:	cc                   	int3
  419ab2:	cc                   	int3
  419ab3:	cc                   	int3
  419ab4:	cc                   	int3
  419ab5:	cc                   	int3
  419ab6:	cc                   	int3
  419ab7:	cc                   	int3
  419ab8:	cc                   	int3
  419ab9:	cc                   	int3
  419aba:	cc                   	int3
  419abb:	cc                   	int3
  419abc:	cc                   	int3
  419abd:	cc                   	int3
  419abe:	cc                   	int3
  419abf:	cc                   	int3
  419ac0:	cc                   	int3
  419ac1:	cc                   	int3
  419ac2:	cc                   	int3
  419ac3:	cc                   	int3
  419ac4:	cc                   	int3
  419ac5:	cc                   	int3
  419ac6:	cc                   	int3
  419ac7:	cc                   	int3
  419ac8:	cc                   	int3
  419ac9:	cc                   	int3
  419aca:	cc                   	int3
  419acb:	cc                   	int3
  419acc:	cc                   	int3
  419acd:	cc                   	int3
  419ace:	cc                   	int3
  419acf:	cc                   	int3
  419ad0:	cc                   	int3
  419ad1:	cc                   	int3
  419ad2:	cc                   	int3
  419ad3:	cc                   	int3
  419ad4:	cc                   	int3
  419ad5:	cc                   	int3
  419ad6:	cc                   	int3
  419ad7:	cc                   	int3
  419ad8:	cc                   	int3
  419ad9:	cc                   	int3
  419ada:	cc                   	int3
  419adb:	cc                   	int3
  419adc:	cc                   	int3
  419add:	cc                   	int3
  419ade:	cc                   	int3
  419adf:	cc                   	int3
  419ae0:	cc                   	int3
  419ae1:	cc                   	int3
  419ae2:	cc                   	int3
  419ae3:	cc                   	int3
  419ae4:	cc                   	int3
  419ae5:	cc                   	int3
  419ae6:	cc                   	int3
  419ae7:	cc                   	int3
  419ae8:	cc                   	int3
  419ae9:	cc                   	int3
  419aea:	cc                   	int3
  419aeb:	cc                   	int3
  419aec:	cc                   	int3
  419aed:	cc                   	int3
  419aee:	cc                   	int3
  419aef:	cc                   	int3
  419af0:	cc                   	int3
  419af1:	cc                   	int3
  419af2:	cc                   	int3
  419af3:	cc                   	int3
  419af4:	cc                   	int3
  419af5:	cc                   	int3
  419af6:	cc                   	int3
  419af7:	cc                   	int3
  419af8:	cc                   	int3
  419af9:	cc                   	int3
  419afa:	cc                   	int3
  419afb:	cc                   	int3
  419afc:	cc                   	int3
  419afd:	cc                   	int3
  419afe:	cc                   	int3
  419aff:	cc                   	int3
  419b00:	cc                   	int3
  419b01:	cc                   	int3
  419b02:	cc                   	int3
  419b03:	cc                   	int3
  419b04:	cc                   	int3
  419b05:	cc                   	int3
  419b06:	cc                   	int3
  419b07:	cc                   	int3
  419b08:	cc                   	int3
  419b09:	cc                   	int3
  419b0a:	cc                   	int3
  419b0b:	cc                   	int3
  419b0c:	cc                   	int3
  419b0d:	cc                   	int3
  419b0e:	cc                   	int3
  419b0f:	cc                   	int3
  419b10:	cc                   	int3
  419b11:	cc                   	int3
  419b12:	cc                   	int3
  419b13:	cc                   	int3
  419b14:	cc                   	int3
  419b15:	cc                   	int3
  419b16:	cc                   	int3
  419b17:	cc                   	int3
  419b18:	cc                   	int3
  419b19:	cc                   	int3
  419b1a:	cc                   	int3
  419b1b:	cc                   	int3
  419b1c:	cc                   	int3
  419b1d:	cc                   	int3
  419b1e:	cc                   	int3
  419b1f:	cc                   	int3
  419b20:	cc                   	int3
  419b21:	cc                   	int3
  419b22:	cc                   	int3
  419b23:	cc                   	int3
  419b24:	cc                   	int3
  419b25:	cc                   	int3
  419b26:	cc                   	int3
  419b27:	cc                   	int3
  419b28:	cc                   	int3
  419b29:	cc                   	int3
  419b2a:	cc                   	int3
  419b2b:	cc                   	int3
  419b2c:	cc                   	int3
  419b2d:	cc                   	int3
  419b2e:	cc                   	int3
  419b2f:	cc                   	int3
  419b30:	cc                   	int3
  419b31:	cc                   	int3
  419b32:	cc                   	int3
  419b33:	cc                   	int3
  419b34:	cc                   	int3
  419b35:	cc                   	int3
  419b36:	cc                   	int3
  419b37:	cc                   	int3
  419b38:	cc                   	int3
  419b39:	cc                   	int3
  419b3a:	cc                   	int3
  419b3b:	cc                   	int3
  419b3c:	cc                   	int3
  419b3d:	cc                   	int3
  419b3e:	cc                   	int3
  419b3f:	cc                   	int3
  419b40:	cc                   	int3
  419b41:	cc                   	int3
  419b42:	cc                   	int3
  419b43:	cc                   	int3
  419b44:	cc                   	int3
  419b45:	cc                   	int3
  419b46:	cc                   	int3
  419b47:	cc                   	int3
  419b48:	cc                   	int3
  419b49:	cc                   	int3
  419b4a:	cc                   	int3
  419b4b:	cc                   	int3
  419b4c:	cc                   	int3
  419b4d:	cc                   	int3
  419b4e:	cc                   	int3
  419b4f:	cc                   	int3
  419b50:	cc                   	int3
  419b51:	cc                   	int3
  419b52:	cc                   	int3
